 assaultcube

 Timestamp is 608e327a (Sun May  2 07:02:50 2021)

 Preferred load address is 00400000

 Start         Length     Name                   Class
 0001:00000000 00006240H .text                   CODE
 0001:00006240 0001afa0H .text$di                CODE
 0001:000211e0 001e2790H .text$mn                CODE
 0001:00203970 00007f70H .text$x                 CODE
 0001:0020b8e0 000023a2H .text$yd                CODE
 0002:00000000 00000504H .idata$5                DATA
 0002:00000504 00000004H .00cfg                  DATA
 0002:00000508 00000004H .CRT$XCA                DATA
 0002:0000050c 00000004H .CRT$XCAA               DATA
 0002:00000510 00001d04H .CRT$XCU                DATA
 0002:00002214 00000004H .CRT$XCZ                DATA
 0002:00002218 00000004H .CRT$XIA                DATA
 0002:0000221c 00000004H .CRT$XIAA               DATA
 0002:00002220 00000004H .CRT$XIAC               DATA
 0002:00002224 00000018H .CRT$XIC                DATA
 0002:0000223c 00000004H .CRT$XIZ                DATA
 0002:00002240 00000004H .CRT$XLA                DATA
 0002:00002244 00000004H .CRT$XLZ                DATA
 0002:00002248 00000004H .CRT$XPA                DATA
 0002:0000224c 00000008H .CRT$XPX                DATA
 0002:00002254 00000004H .CRT$XPXA               DATA
 0002:00002258 00000004H .CRT$XPZ                DATA
 0002:0000225c 00000004H .CRT$XTA                DATA
 0002:00002260 00000020H .CRT$XTZ                DATA
 0002:00002264 00000000H .gfids$y                DATA
 0002:00002280 00028f00H .rdata                  DATA
 0002:0002b180 00000000H .rdata$CastGuardVftablesA DATA
 0002:0002b180 00000000H .rdata$CastGuardVftablesC DATA
 0002:0002b180 00000018H .rdata$T                DATA
 0002:0002b198 000024a0H .rdata$r                DATA
 0002:0002d638 000000e0H .rdata$zzz              DATA
 0002:0002d718 00000404H .rdata$zzzdbg           DATA
 0002:0002db1c 00000004H .rtc$IAA                DATA
 0002:0002db20 00000004H .rtc$IZZ                DATA
 0002:0002db24 00000004H .rtc$TAA                DATA
 0002:0002db28 00000004H .rtc$TZZ                DATA
 0002:0002db2c 00000004H .tls                    DATA
 0002:0002db30 00000004H .tls$                   DATA
 0002:0002db34 00000004H .tls$ZZZ                DATA
 0002:0002db38 00009368H .xdata$x                DATA
 0002:00036ea0 00000088H .edata                  DATA
 0002:00036f28 000000dcH .idata$2                DATA
 0002:00037004 00000014H .idata$3                DATA
 0002:00037018 00000504H .idata$4                DATA
 0002:0003751c 000014b8H .idata$6                DATA
 0003:00000000 00004af0H .data                   DATA
 0003:00004af0 0000003cH .data$r                 DATA
 0003:00004b2c 00000e34H .data$rs                DATA
 0003:00005960 000efd74H .bss                    DATA
 0004:00000000 00014008H _RDATA                  DATA
 0005:00000000 000001b0H .rsrc$01                DATA
 0005:000001b0 00010e10H .rsrc$02                DATA

  Address         Publics by Value              Rva+Base       Lib:Object

 0000:00000000       ___hybrid_code_map_count   00000000     <absolute>
 0000:00000000       ___guard_eh_cont_count     00000000     <absolute>
 0000:00000000       ___arm64x_redirection_metadata 00000000     <absolute>
 0000:00000000       ___arm64x_extra_rfe_table  00000000     <absolute>
 0000:00000000       ___volatile_metadata       00000000     <absolute>
 0000:00000000       ___guard_longjmp_table     00000000     <absolute>
 0000:00000000       ___arm64x_native_entrypoint 00000000     <absolute>
 0000:00000000       ___safe_se_handler_table   00000000     <absolute>
 0000:00000000       ___guard_fids_count        00000000     <absolute>
 0000:00000000       ___hybrid_code_map         00000000     <absolute>
 0000:00000000       ___guard_eh_cont_table     00000000     <absolute>
 0000:00000000       ___arm64x_extra_rfe_table_size 00000000     <absolute>
 0000:00000000       ___guard_iat_count         00000000     <absolute>
 0000:00000000       ___x64_code_ranges_to_entry_points 00000000     <absolute>
 0000:00000000       __except_list              00000000     <absolute>
 0000:00000000       ___x64_code_ranges_to_entry_points_count 00000000     <absolute>
 0000:00000000       ___guard_iat_table         00000000     <absolute>
 0000:00000000       ___hybrid_auxiliary_iat    00000000     <absolute>
 0000:00000000       ___dynamic_value_reloc_table 00000000     <absolute>
 0000:00000000       ___safe_se_handler_count   00000000     <absolute>
 0000:00000000       ___AbsoluteZero            00000000     <absolute>
 0000:00000000       ___guard_longjmp_count     00000000     <absolute>
 0000:00000000       ___guard_check_icall_a64n_fptr 00000000     <absolute>
 0000:00000000       ___arm64x_redirection_metadata_count 00000000     <absolute>
 0000:00000000       ___enclave_config          00000000     <absolute>
 0000:00000000       ___guard_fids_table        00000000     <absolute>
 0000:00000000       ___hybrid_auxiliary_iat_copy 00000000     <absolute>
 0000:0000002c       __tls_array                0000002c     <absolute>
 0000:00000100       ___guard_flags             00000100     <absolute>
 0000:00000000       ___ImageBase               00400000     <linker-defined>
 0001:00000000       _enet_host_create          00401000 f   enet:host.o
 0001:000003c0       _enet_host_destroy         004013c0 f   enet:host.o
 0001:00000460       _enet_host_connect         00401460 f   enet:host.o
 0001:00000700       _enet_host_broadcast       00401700 f   enet:host.o
 0001:00000780       _enet_host_compress        00401780 f   enet:host.o
 0001:000007f0       _enet_host_channel_limit   004017f0 f   enet:host.o
 0001:00000810       _enet_host_bandwidth_limit 00401810 f   enet:host.o
 0001:00000830       _enet_host_bandwidth_throttle 00401830 f   enet:host.o
 0001:00000c10       _enet_peer_throttle        00401c10 f   enet:peer.o
 0001:00000c90       _enet_peer_receive         00401c90 f   enet:peer.o
 0001:00000d00       _enet_peer_reset_queues    00401d00 f   enet:peer.o
 0001:00001010       _enet_peer_on_connect      00402010 f   enet:peer.o
 0001:00001040       _enet_peer_on_disconnect   00402040 f   enet:peer.o
 0001:00001070       _enet_peer_reset           00402070 f   enet:peer.o
 0001:00001250       _enet_peer_ping_interval   00402250 f   enet:peer.o
 0001:00001270       _enet_peer_timeout         00402270 f   enet:peer.o
 0001:000012c0       _enet_peer_queue_acknowledgement 004022c0 f   enet:peer.o
 0001:000013a0       _enet_peer_setup_outgoing_command 004023a0 f   enet:peer.o
 0001:000014f0       _enet_peer_throttle_configure 004024f0 f   enet:peer.o
 0001:000015a0       _enet_peer_ping            004025a0 f   enet:peer.o
 0001:00001600       _enet_peer_disconnect      00402600 f   enet:peer.o
 0001:000016e0       _enet_peer_disconnect_later 004026e0 f   enet:peer.o
 0001:00001800       _enet_peer_disconnect_now  00402800 f   enet:peer.o
 0001:000018b0       _enet_peer_send            004028b0 f   enet:peer.o
 0001:00001c00       _enet_peer_queue_outgoing_command 00402c00 f   enet:peer.o
 0001:00001ca0       _enet_peer_dispatch_incoming_unreliable_commands 00402ca0 f   enet:peer.o
 0001:00001f40       _enet_peer_dispatch_incoming_reliable_commands 00402f40 f   enet:peer.o
 0001:00002050       _enet_peer_queue_incoming_command 00403050 f   enet:peer.o
 0001:000023f0       _enet_initialize           004033f0 f   enet:win32.o
 0001:00002460       _enet_deinitialize         00403460 f   enet:win32.o
 0001:00002480       _enet_host_random_seed     00403480 f   enet:win32.o
 0001:00002490       _enet_time_get             00403490 f   enet:win32.o
 0001:000024b0       _enet_time_set             004034b0 f   enet:win32.o
 0001:000024d0       _enet_address_set_host_ip  004034d0 f   enet:win32.o
 0001:00002680       _enet_address_set_host     00403680 f   enet:win32.o
 0001:000026e0       _enet_address_get_host_ip  004036e0 f   enet:win32.o
 0001:00002740       _enet_address_get_host     00403740 f   enet:win32.o
 0001:000027c0       _enet_socket_bind          004037c0 f   enet:win32.o
 0001:00002840       _enet_socket_get_address   00403840 f   enet:win32.o
 0001:000028a0       _enet_socket_listen        004038a0 f   enet:win32.o
 0001:000028e0       _enet_socket_create        004038e0 f   enet:win32.o
 0001:00002910       _enet_socket_set_option    00403910 f   enet:win32.o
 0001:00002a90       _enet_socket_get_option    00403a90 f   enet:win32.o
 0001:00002af0       _enet_socket_connect       00403af0 f   enet:win32.o
 0001:00002b90       _enet_socket_accept        00403b90 f   enet:win32.o
 0001:00002c20       _enet_socket_shutdown      00403c20 f   enet:win32.o
 0001:00002c50       _enet_socket_destroy       00403c50 f   enet:win32.o
 0001:00002c70       _enet_socket_send          00403c70 f   enet:win32.o
 0001:00002d50       _enet_socket_receive       00403d50 f   enet:win32.o
 0001:00002e40       _enet_socketset_select     00403e40 f   enet:win32.o
 0001:00002ea0       _enet_socket_wait          00403ea0 f   enet:win32.o
 0001:00003e70       _enet_protocol_command_size 00404e70 f   enet:protocol.o
 0001:00003e80       _enet_host_flush           00404e80 f   enet:protocol.o
 0001:00003ea0       _enet_host_check_events    00404ea0 f   enet:protocol.o
 0001:00004000       _enet_host_service         00405000 f   enet:protocol.o
 0001:00005df0       _enet_packet_create        00406df0 f   enet:packet.o
 0001:00005ea0       _enet_packet_destroy       00406ea0 f   enet:packet.o
 0001:00005ef0       _enet_packet_resize        00406ef0 f   enet:packet.o
 0001:00005f50       _enet_crc32                00406f50 f   enet:packet.o
 0001:000060f0       _enet_initialize_with_callbacks 004070f0 f   enet:callbacks.o
 0001:00006140       _enet_linked_version       00407140 f   enet:callbacks.o
 0001:00006150       _enet_malloc               00407150 f   enet:callbacks.o
 0001:00006190       _enet_free                 00407190 f   enet:callbacks.o
 0001:000061a0       _enet_list_clear           004071a0 f   enet:list.o
 0001:000061b0       _enet_list_insert          004071b0 f   enet:list.o
 0001:000061d0       _enet_list_remove          004071d0 f   enet:list.o
 0001:000061e0       _enet_list_move            004071e0 f   enet:list.o
 0001:00006210       _enet_list_size            00407210 f   enet:list.o
 0001:000211e0       ?replace@cubeloader@@QAEPADQBD00@Z 004221e0 f i assaultcubeloader.obj
 0001:000212f0       ?create_ent@cubeloader@@QAEXAAUc_persistent_entity@1@@Z 004222f0 f i assaultcubeloader.obj
 0001:00021690       ?boundingbox@cubeloader@@QAEXXZ 00422690 f i assaultcubeloader.obj
 0001:00021830       ?create_cubes@cubeloader@@QAEXXZ 00422830 f i assaultcubeloader.obj
 0001:00022100       ?unpackheaderextra@cubeloader@@QAEXPAEH@Z 00423100 f i assaultcubeloader.obj
 0001:000222b0       ?rldecodecubes@cubeloader@@QAE_NAAU?$databuf@E@@PAUc_sqr@1@HH_NH@Z 004232b0 f i assaultcubeloader.obj
 0001:000226a0       ?processheaderextra@cubeloader@@QAEXPAD@Z 004236a0 f i assaultcubeloader.obj
 0001:000229f0       ?load_assaultcube_world@cubeloader@@QAEXPADH@Z 004239f0 f i assaultcubeloader.obj
 0001:000231b0       ??1?$vector@Ucharinfo@font@@@@QAE@XZ 004241b0 f i rendertext.obj
 0001:000231b0       ??1?$vector@Upitchdep@skelmodel@@@@QAE@XZ 004241b0 f i rendermodel.obj
 0001:000231b0       ??1?$vector@Usortitem@@@@QAE@XZ 004241b0 f i command.obj
 0001:000231b0       ??1?$vector@Uobstacle@avoidset@ai@@@@QAE@XZ 004241b0 f i ai.obj
 0001:000231b0       ??1?$vector@USlotShaderParamState@@@@QAE@XZ 004241b0 f i shader.obj
 0001:000231b0       ??1?$vector@Uvert@ragdollskel@@@@QAE@XZ 004241b0 f i rendermodel.obj
 0001:000231b0       ??1?$vector@Utri@ragdollskel@@@@QAE@XZ 004241b0 f i rendermodel.obj
 0001:000231b0       ??1?$vector@UGlobalShaderParamUse@@@@QAE@XZ 004241b0 f i shader.obj
 0001:000231b0       ??1?$vector@Uvert@skelmodel@@@@QAE@XZ 004241b0 f i rendermodel.obj
 0001:000231b0       ??1?$vector@Umaterialsurface@@@@QAE@XZ 004241b0 f i octarender.obj
 0001:000231b0       ??1?$vector@Urotlimit@ragdollskel@@@@QAE@XZ 004241b0 f i rendermodel.obj
 0001:000231b0       ??1?$vector@Ugrasstri@@@@QAE@XZ 004241b0 f i octarender.obj
 0001:000231b0       ??1?$vector@Udualquat@@@@QAE@XZ 004241b0 f i rendermodel.obj
 0001:000231b0       ??1?$vector@Uvotecount@server@@@@QAE@XZ 004241b0 f i server1.obj
 0001:000231b0       ??1?$vector@Upoly@@@@QAE@XZ 004241b0 f i octa.obj
 0001:000231b0       ??1?$vector@Usoundslot@@@@QAE@XZ 004241b0 f i sound.obj
 0001:000231b0       ??1?$vector@Uskelcacheentry@skelmodel@@@@QAE@XZ 004241b0 f i rendermodel.obj
 0001:000231b0       ??1?$vector@Uvvertg@vertmodel@@@@QAE@XZ 004241b0 f i rendermodel.obj
 0001:000231b0       ??1?$vector@Upitchcorrect@skelmodel@@@@QAE@XZ 004241b0 f i rendermodel.obj
 0001:000231b0       ??1?$vector@USlotShaderParam@@@@QAE@XZ 004241b0 f i octaedit.obj
 0001:000231b0       ??1?$vector@Umd5joint@@@@QAE@XZ 004241b0 f i rendermodel.obj
 0001:000231b0       ??1?$vector@Uaviindexentry@@@@QAE@XZ 004241b0 f i movie.obj
 0001:000231b0       ??1?$vector@Utriangle@@@@QAE@XZ 004241b0 f i renderva.obj
 0001:000231b0       ??1?$vector@Ublendcombo@skelmodel@@@@QAE@XZ 004241b0 f i rendermodel.obj
 0001:000231b0       ??1?$vector@Uvertex@prefabmesh@@@@QAE@XZ 004241b0 f i octaedit.obj
 0001:000231b0       ??1?$vector@Uvvertgw@skelmodel@@@@QAE@XZ 004241b0 f i rendermodel.obj
 0001:000231b0       ??1?$vector@Udistlimit@ragdollskel@@@@QAE@XZ 004241b0 f i rendermodel.obj
 0001:000231b0       ??1?$vector@UTex@Slot@@@@QAE@XZ 004241b0 f i texture.obj
 0001:000231b0       ??1?$vector@Uvec@@@@QAE@XZ 004241b0 f i worldio.obj
 0001:000231b0       ??1?$vector@Uantipode@skelmodel@@@@QAE@XZ 004241b0 f i rendermodel.obj
 0001:000231b0       ??1?$vector@Ujoint@ragdollskel@@@@QAE@XZ 004241b0 f i rendermodel.obj
 0001:000231b0       ??1?$vector@Uipmask@@@@QAE@XZ 004241b0 f i server1.obj
 0001:000231b0       ??1?$vector@Umd5hierarchy@@@@QAE@XZ 004241b0 f i rendermodel.obj
 0001:000231b0       ??1?$vector@Ulinkedpart@animmodel@@@@QAE@XZ 004241b0 f i rendermodel.obj
 0001:000231b0       ??1?$vector@Utri@skelmodel@@@@QAE@XZ 004241b0 f i rendermodel.obj
 0001:000231b0       ??1?$vector@UAttribLoc@@@@QAE@XZ 004241b0 f i shader.obj
 0001:000231b0       ??1?$vector@Uvert@vertmodel@@@@QAE@XZ 004241b0 f i rendermodel.obj
 0001:000231b0       ??1?$vector@Uvertex@@@@QAE@XZ 004241b0 f i octarender.obj
 0001:000231b0       ??1?$vector@Utcvert@vertmodel@@@@QAE@XZ 004241b0 f i rendermodel.obj
 0001:000231b0       ??1?$vector@Utri@vertmodel@@@@QAE@XZ 004241b0 f i rendermodel.obj
 0001:000231b0       ??1?$vector@Urotfriction@ragdollskel@@@@QAE@XZ 004241b0 f i rendermodel.obj
 0001:000231b0       ??1?$vector@Ucrcinfo@server@@@@QAE@XZ 004241b0 f i server1.obj
 0001:000231b0       ??1?$vector@Umergedface@@@@QAE@XZ 004241b0 f i octarender.obj
 0001:000231b0       ??1?$vector@Uflag@ctfservmode@server@@@@QAE@XZ 004241b0 f i server1.obj
 0001:000231b0       ??1?$vector@Uaistate@ai@@@@QAE@XZ 004241b0 f i ai.obj
 0001:000231b0       ??1?$vector@Upitchtarget@skelmodel@@@@QAE@XZ 004241b0 f i rendermodel.obj
 0001:000231b0       ??1?$vector@Uactexture@cubeloader@@@@QAE@XZ 004241b0 f i assaultcubeloader.obj
 0001:000231b0       ??1?$vector@Usmdbone@@@@QAE@XZ 004241b0 f i rendermodel.obj
 0001:000231b0       ??1?$vector@Uskin@animmodel@@@@QAE@XZ 004241b0 f i rendermodel.obj
 0001:000231b0       ??1?$vector@Uhitinfo@server@@@@QAE@XZ 004241b0 f i server1.obj
 0001:000231b0       ??1?$vector@Uacmapmodel@cubeloader@@@@QAE@XZ 004241b0 f i assaultcubeloader.obj
 0001:000231b0       ??1?$vector@UFragDataLoc@@@@QAE@XZ 004241b0 f i shader.obj
 0001:000231b0       ??1?$vector@Uanimspec@animmodel@@@@QAE@XZ 004241b0 f i rendermodel.obj
 0001:000231b0       ??1?$vector@Uivec2@@@@QAE@XZ 004241b0 f i worldio.obj
 0001:000231b0       ??1?$vector@Uflag@ctfclientmode@game@@@@QAE@XZ 004241b0 f i client1.obj
 0001:000231b0       ??1?$vector@Uvvertg@skelmodel@@@@QAE@XZ 004241b0 f i rendermodel.obj
 0001:000231b0       ??1?$vector@Uavisegmentinfo@@@@QAE@XZ 004241b0 f i movie.obj
 0001:000231b0       ??1?$vector@Utri@skelbih@@@@QAE@XZ 004241b0 f i rendermodel.obj
 0001:000231b0       ??1?$vector@UUniformLoc@@@@QAE@XZ 004241b0 f i shader.obj
 0001:000231b0       ??1?$vector@Uteamscore@@@@QAE@XZ 004241b0 f i scoreboard.obj
 0001:000231b0       ??1?$vector@ULocalShaderParamState@@@@QAE@XZ 004241b0 f i shader.obj
 0001:000231b0       ??1?$vector@Ueditline@@@@QAE@XZ 004241b0 f i ui.obj
 0001:000231b0       ??1?$vector@Usortkey@@@@QAE@XZ 004241b0 f i octarender.obj
 0001:000231b0       ??1?$vector@Uc_persistent_entity@cubeloader@@@@QAE@XZ 004241b0 f i assaultcubeloader.obj
 0001:000231b0       ??1?$vector@Usoundconfig@@@@QAE@XZ 004241b0 f i sound.obj
 0001:000231b0       ??1?$vector@Udecalkey@@@@QAE@XZ 004241b0 f i octarender.obj
 0001:000231b0       ??1?$vector@Unode@wpcache@ai@@@@QAE@XZ 004241b0 f i waypoint.obj
 0001:000231b0       ??1?$vector@Ulightrect@@@@QAE@XZ 004241b0 f i renderlights.obj
 0001:000231b0       ??1?$vector@Ureljoint@ragdollskel@@@@QAE@XZ 004241b0 f i rendermodel.obj
 0001:000231b0       ??1?$vector@Umesh@BIH@@@@QAE@XZ 004241b0 f i rendermodel.obj
 0001:00023200       ?add@?$vector@PAUmesh@animmodel@@@@QAEAAPAUmesh@animmodel@@ABQAU23@@Z 00424200 f i rendermodel.obj
 0001:00023200       ?add@?$vector@PAD@@QAEAAPADABQAD@Z 00424200 f i server.obj
 0001:00023200       ?add@?$vector@PAUextentity@@@@QAEAAPAUextentity@@ABQAU2@@Z 00424200 f i assaultcubeloader.obj
 0001:00023200       ?add@?$vector@PAUObject@UI@@@@QAEAAPAUObject@UI@@ABQAU23@@Z 00424200 f i ui.obj
 0001:00023200       ?add@?$vector@PAUvtxarray@@@@QAEAAPAUvtxarray@@ABQAU2@@Z 00424200 f i octarender.obj
 0001:00023200       ?add@?$vector@PAUgameent@@@@QAEAAPAUgameent@@ABQAU2@@Z 00424200 f i ai.obj
 0001:00023200       ?add@?$vector@PAUskelmeshgroup@skelmodel@@@@QAEAAPAUskelmeshgroup@skelmodel@@ABQAU23@@Z 00424200 f i rendermodel.obj
 0001:00023200       ?add@?$vector@PBD@@QAEAAPBDABQBD@Z 00424200 f i serverbrowser.obj
 0001:00023200       ?add@?$vector@PAUident@@@@QAEAAPAUident@@ABQAU2@@Z 00424200 f i command.obj
 0001:00023200       ?add@?$vector@PAUpart@animmodel@@@@QAEAAPAUpart@animmodel@@ABQAU23@@Z 00424200 f i rendermodel.obj
 0001:00023200       ?add@?$vector@PAUphysent@@@@QAEAAPAUphysent@@ABQAU2@@Z 00424200 f i physics.obj
 0001:00023200       ?add@?$vector@PAUclientinfo@server@@@@QAEAAPAUclientinfo@server@@ABQAU23@@Z 00424200 f i server1.obj
 0001:000232c0       ??1?$vector@PAUoctaentities@@@@QAE@XZ 004242c0 f i octarender.obj
 0001:000232c0       ??1?$vector@D@@QAE@XZ      004242c0 f i octaedit.obj
 0001:000232c0       ??1?$vector@G@@QAE@XZ      004242c0 f i octaedit.obj
 0001:000232c0       ??1?$vector@I@@QAE@XZ      004242c0 f i renderlights.obj
 0001:000232c0       ??1?$vector@PAUplink@@@@QAE@XZ 004242c0 f i octa.obj
 0001:000232c0       ??1?$vector@H@@QAE@XZ      004242c0 f i normal.obj
 0001:000232c0       ??1?$vector@M@@QAE@XZ      004242c0 f i ui.obj
 0001:000232c0       ??1?$vector@PAUheaderextra@cubeloader@@@@QAE@XZ 004242c0 f i assaultcubeloader.obj
 0001:000232c0       ??1?$vector@PAUkeym@@@@QAE@XZ 004242c0 f i console.obj
 0001:000232c0       ??1?$vector@PAUskelmeshgroup@skelmodel@@@@QAE@XZ 004242c0 f i rendermodel.obj
 0001:000232c0       ??1?$vector@E@@QAE@XZ      004242c0 f i assaultcubeloader.obj
 0001:000232c0       ??1?$vector@PAUObject@UI@@@@QAE@XZ 004242c0 f i ui.obj
 0001:000232c0       ??1?$vector@PAUmaterialsurface@@@@QAE@XZ 004242c0 f i pvs.obj
 0001:000232c0       ??1?$vector@PAUclientinfo@server@@@@QAE@XZ 004242c0 f i server1.obj
 0001:000232c0       ??1?$vector@PAUvtxarray@@@@QAE@XZ 004242c0 f i octarender.obj
 0001:000232c0       ??1?$vector@PAUskelzoneinfo@@@@QAE@XZ 004242c0 f i rendermodel.obj
 0001:000232c0       ??1?$vector@PAUphysent@@@@QAE@XZ 004242c0 f i physics.obj
 0001:000232c0       ??1?$vector@PAUgameevent@server@@@@QAE@XZ 004242c0 f i server1.obj
 0001:000232c0       ??1?$vector@PAUShader@@@@QAE@XZ 004242c0 f i shader.obj
 0001:000232c0       ??1?$vector@PAUmesh@animmodel@@@@QAE@XZ 004242c0 f i rendermodel.obj
 0001:000232c0       ??1?$vector@PBD@@QAE@XZ    004242c0 f i server.obj
 0001:000232c0       ??1?$vector@PAD@@QAE@XZ    004242c0 f i server.obj
 0001:000232c0       ??1?$vector@PAUTexture@@@@QAE@XZ 004242c0 f i rendertext.obj
 0001:000232c0       ??1?$vector@PAUident@@@@QAE@XZ 004242c0 f i command.obj
 0001:000232c0       ??1?$vector@PAUpart@animmodel@@@@QAE@XZ 004242c0 f i rendermodel.obj
 0001:000232c0       ??1?$vector@PAUgameent@@@@QAE@XZ 004242c0 f i ai.obj
 0001:00023310       ?growbuf@?$vector@D@@QAEXH@Z 00424310 f i octaedit.obj
 0001:00023310       ?growbuf@?$vector@E@@QAEXH@Z 00424310 f i assaultcubeloader.obj
 0001:00023390       ??$formatstring@$0BAE@@@YAXAAY0BAE@DPBDZZ 00424390 f i assaultcubeloader.obj
 0001:000233d0       ___local_stdio_printf_options 004243d0 f i assaultcubeloader.obj
 0001:000233e0       ??0?$vector@Umaterialsurface@@@@QAE@XZ 004243e0 f i octarender.obj
 0001:000233e0       ??0?$vector@PAUgameent@@@@QAE@XZ 004243e0 f i ai.obj
 0001:000233e0       ??0?$vector@PAD@@QAE@XZ    004243e0 f i server.obj
 0001:000233e0       ??0?$vector@Uanimspec@animmodel@@@@QAE@XZ 004243e0 f i rendermodel.obj
 0001:000233e0       ??0?$vector@PAUclientinfo@server@@@@QAE@XZ 004243e0 f i server1.obj
 0001:000233e0       ??0?$vector@E@@QAE@XZ      004243e0 f i assaultcubeloader.obj
 0001:000233e0       ??0?$vector@PAUvtxarray@@@@QAE@XZ 004243e0 f i octarender.obj
 0001:000233e0       ??0?$vector@D@@QAE@XZ      004243e0 f i octaedit.obj
 0001:000233e0       ??0?$vector@G@@QAE@XZ      004243e0 f i octaedit.obj
 0001:000233e0       ??0?$vector@Umergedface@@@@QAE@XZ 004243e0 f i octarender.obj
 0001:000233e0       ??0?$vector@Uvec@@@@QAE@XZ 004243e0 f i worldio.obj
 0001:00023400       ?strrchr@@YAPADQADH@Z      00424400 f i assaultcubeloader.obj
 0001:00023410       ?newstring@@YAPADPBD@Z     00424410 f i assaultcubeloader.obj
 0001:00023460       ?gentex@BlendBrush@@QAEXXZ 00424460 f i blend.obj
 0001:000236d0       ?shrink@?$vector@UBlendTexture@@@@QAEXH@Z 004246d0 f i blend.obj
 0001:00023740       ??0ImageData@@QAE@XZ       00424740 f i blend.obj
 0001:00023760       ?resolve@GlobalShaderParam@@QAEPAUGlobalShaderParamState@@XZ 00424760 f i blend.obj
 0001:000239b0       ??1ImageData@@QAE@XZ       004249b0 f i blend.obj
 0001:00023a20       ?calcsize@ImageData@@QBEHXZ 00424a20 f i blend.obj
 0001:00023ac0       ?toplane@plane@@QAE_NABUvec@@00@Z 00424ac0 f i light.obj
 0001:00023c00       ??0PackNode@@QAE@GGGG@Z    00424c00 f i light.obj
 0001:00023c50       ??1PackNode@@QAE@XZ        00424c50 f i light.obj
 0001:00023c80       ?discardchildren@PackNode@@QAEXXZ 00424c80 f i light.obj
 0001:00023cd0       ?normalize@vec@@QAEAAU1@XZ 00424cd0 f i light.obj
 0001:00023d40       ??1?$hashbase@U?$hashset@Unormalgroup@@@@Unormalgroup@@U2@U2@@@QAE@XZ 00424d40 f i normal.obj
 0001:00023dc0       ?add@?$vector@I@@QAEAAIABI@Z 00424dc0 f i renderlights.obj
 0001:00023dc0       ?add@?$vector@H@@QAEAAHABH@Z 00424dc0 f i normal.obj
 0001:00023dc0       ?add@?$vector@PAUoctaentities@@@@QAEAAPAUoctaentities@@ABQAU2@@Z 00424dc0 f i octarender.obj
 0001:00023e00       ?deletechunks@?$hashbase@U?$hashset@Unormalgroup@@@@Unormalgroup@@U2@U2@@@QAEXXZ 00424e00 f i normal.obj
 0001:00023e40       ?growbuf@?$vector@PAUskelzoneinfo@@@@QAEXH@Z 00424e40 f i rendermodel.obj
 0001:00023e40       ?growbuf@?$vector@H@@QAEXH@Z 00424e40 f i normal.obj
 0001:00023e40       ?growbuf@?$vector@I@@QAEXH@Z 00424e40 f i renderlights.obj
 0001:00023e40       ?growbuf@?$vector@PAUplink@@@@QAEXH@Z 00424e40 f i octa.obj
 0001:00023e40       ?growbuf@?$vector@PAUTexture@@@@QAEXH@Z 00424e40 f i rendertext.obj
 0001:00023e40       ?growbuf@?$vector@PAUoctaentities@@@@QAEXH@Z 00424e40 f i octarender.obj
 0001:00023ed0       ??$access@Unormalkey@@U1@@?$hashbase@U?$hashset@Unormalgroup@@@@Unormalgroup@@U2@U2@@@QAEAAUnormalgroup@@ABUnormalkey@@0@Z 00424ed0 f i normal.obj
 0001:00023fb0       ??$access@Unormalkey@@@?$hashbase@U?$hashset@Unormalgroup@@@@Unormalgroup@@U2@U2@@@QAEPAUnormalgroup@@ABUnormalkey@@@Z 00424fb0 f i normal.obj
 0001:00024040       ?insert@?$hashbase@U?$hashset@Unormalgroup@@@@Unormalgroup@@U2@U2@@@QAEPAUchain@1@I@Z 00425040 f i normal.obj
 0001:00024210       ?cross@vec@@QAEAAU1@ABU1@00@Z 00425210 f i normal.obj
 0001:000242d0       ??8vec@@QBE_NABU0@@Z       004252d0 f i normal.obj
 0001:00024310       ??1?$hashset@Uplink@@@@QAE@XZ 00425310 f i octa.obj
 0001:00024310       ??1?$hashtable@Uivec@@H@@QAE@XZ 00425310 f i rendermodel.obj
 0001:00024310       ??1?$hashtable@Uvec@@H@@QAE@XZ 00425310 f i worldio.obj
 0001:00024350       ??1?$hashbase@U?$hashtable@Ucfkey@@Ucfpolys@@@@U?$hashtableentry@Ucfkey@@Ucfpolys@@@@Ucfkey@@Ucfpolys@@@@QAE@XZ 00425350 f i octa.obj
 0001:000243a0       ??1?$hashbase@U?$hashtable@Uivec@@H@@U?$hashtableentry@Uivec@@H@@Uivec@@H@@QAE@XZ 004253a0 f i rendermodel.obj
 0001:000243a0       ??1?$hashbase@U?$hashtable@Uvec@@H@@U?$hashtableentry@Uvec@@H@@Uvec@@H@@QAE@XZ 004253a0 f i worldio.obj
 0001:000243a0       ??1?$hashbase@U?$hashtable@Ufileskey@@PAUfilesval@@@@U?$hashtableentry@Ufileskey@@PAUfilesval@@@@Ufileskey@@PAUfilesval@@@@QAE@XZ 004253a0 f i console.obj
 0001:000243a0       ??1?$hashbase@U?$hashset@Uplink@@@@Uplink@@U2@U2@@@QAE@XZ 004253a0 f i octa.obj
 0001:00024420       ?deletechunks@?$hashbase@U?$hashtable@Ucfkey@@Ucfpolys@@@@U?$hashtableentry@Ucfkey@@Ucfpolys@@@@Ucfkey@@Ucfpolys@@@@QAEXXZ 00425420 f i octa.obj
 0001:000244a0       ??1chain@?$hashbase@U?$hashtable@Ucfkey@@Ucfpolys@@@@U?$hashtableentry@Ucfkey@@Ucfpolys@@@@Ucfkey@@Ucfpolys@@@@QAE@XZ 004254a0 f i octa.obj
 0001:00024510       ??1?$hashtableentry@Ucfkey@@Ucfpolys@@@@QAE@XZ 00425510 f i octa.obj
 0001:00024580       ??1wpcache@ai@@QAE@XZ      00425580 f i waypoint.obj
 0001:00024580       ??1cfpolys@@QAE@XZ         00425580 f i octa.obj
 0001:000245e0       ?insert@?$hashbase@U?$hashtable@Ucfkey@@Ucfpolys@@@@U?$hashtableentry@Ucfkey@@Ucfpolys@@@@Ucfkey@@Ucfpolys@@@@QAEPAUchain@1@I@Z 004255e0 f i octa.obj
 0001:00024790       ?insert@?$hashbase@U?$hashset@Uplink@@@@Uplink@@U2@U2@@@QAEPAUchain@1@I@Z 00425790 f i octa.obj
 0001:00024940       ??0chain@?$hashbase@U?$hashtable@Ucfkey@@Ucfpolys@@@@U?$hashtableentry@Ucfkey@@Ucfpolys@@@@Ucfkey@@Ucfpolys@@@@QAE@XZ 00425940 f i octa.obj
 0001:000249a0       ??9vec@@QBE_NABU0@@Z       004259a0 f i octa.obj
 0001:000249e0       ??9ivec2@@QBE_NABU0@@Z     004259e0 f i octa.obj
 0001:00024a00       ?cross@ivec@@QAEAAU1@ABU1@0@Z 00425a00 f i octa.obj
 0001:00024a50       ??1prefab@@QAE@XZ          00425a50 f i octaedit.obj
 0001:00024ae0       ?addvert@prefabmesh@@QAEHABUvertex@1@@Z 00425ae0 f i octaedit.obj
 0001:00024c90       ??1prefabmesh@@QAE@XZ      00425c90 f i octaedit.obj
 0001:00024d40       ??0vslotref@@QAE@AAH@Z     00425d40 f i octaedit.obj
 0001:00024e20       ??1vslotref@@QAE@XZ        00425e20 f i octaedit.obj
 0001:00024e30       ?put@?$vector@D@@QAEXPBDH@Z 00425e30 f i octaedit.obj
 0001:00024e30       ?put@?$vector@E@@QAEXPBEH@Z 00425e30 f i octaedit.obj
 0001:00024e70       ??1?$hashbase@U?$hashnameset@Uprefab@@@@Uprefab@@PBDU2@@@QAE@XZ 00425e70 f i octaedit.obj
 0001:00024f00       ?add@?$vector@Ucrcinfo@server@@@@QAEAAUcrcinfo@server@@ABU23@@Z 00425f00 f i server1.obj
 0001:00024f00       ?add@?$vector@Uteamscore@@@@QAEAAUteamscore@@ABU2@@Z 00425f00 f i client1.obj
 0001:00024f00       ?add@?$vector@Uvslotmap@@@@QAEAAUvslotmap@@ABU2@@Z 00425f00 f i octaedit.obj
 0001:00024fd0       ?remove@?$vector@G@@QAEGH@Z 00425fd0 f i octaedit.obj
 0001:00025020       ?add@?$vector@G@@QAEAAGABG@Z 00426020 f i octaedit.obj
 0001:000250d0       ?add@?$vector@PAUeditinfo@@@@QAEAAPAUeditinfo@@ABQAU2@@Z 004260d0 f i octaedit.obj
 0001:000251b0       ?pad@?$vector@E@@QAEPAEH@Z 004261b0 f i octaedit.obj
 0001:000251f0       ?reserve@?$vector@D@@QAE?AU?$databuf@D@@H@Z 004261f0 f i octaedit.obj
 0001:00025230       ?growbuf@?$vector@USlotShaderParam@@@@QAEXH@Z 00426230 f i octaedit.obj
 0001:000252d0       ??1chain@?$hashbase@U?$hashnameset@Uprefab@@@@Uprefab@@PBDU2@@@QAE@XZ 004262d0 f i octaedit.obj
 0001:00025310       ??$access@PAD@?$hashbase@U?$hashnameset@Uprefab@@@@Uprefab@@PBDU2@@@QAEPAUprefab@@ABQAD@Z 00426310 f i octaedit.obj
 0001:000253a0       ??$find@H@?$vector@H@@QAEHABH@Z 004263a0 f i octaedit.obj
 0001:000253d0       ?insert@?$hashbase@U?$hashnameset@Uprefab@@@@Uprefab@@PBDU2@@@QAEPAUchain@1@I@Z 004263d0 f i octaedit.obj
 0001:000255a0       ?put@?$vector@E@@QAEXABE@Z 004265a0 f i octaedit.obj
 0001:000255d0       ??0chain@?$hashbase@U?$hashnameset@Uprefab@@@@Uprefab@@PBDU2@@@QAE@XZ 004265d0 f i octaedit.obj
 0001:00025630       ?setint@tagval@@QAEXH@Z    00426630 f i octaedit.obj
 0001:00025640       ?newstring@@YAPADPBDI@Z    00426640 f i octaedit.obj
 0001:00025690       ??$mult@Uvec4@@@matrix4@@QAEXABU0@0@Z 00426690 f i octaedit.obj
 0001:00025ae0       ?translate@matrix4@@QAEXABUvec@@@Z 00426ae0 f i octaedit.obj
 0001:00025bf0       ?rotate_around_y@matrix4@@QAEXMM@Z 00426bf0 f i octaedit.obj
 0001:00025d10       ?rotate_around_x@matrix4@@QAEXMM@Z 00426d10 f i octaedit.obj
 0001:00025e30       ?rotate_around_z@matrix4@@QAEXMM@Z 00426e30 f i octaedit.obj
 0001:00025f50       ?identity@matrix4@@QAEXXZ  00426f50 f i octaedit.obj
 0001:00025fa0       ??1VSlot@@QAE@XZ           00426fa0 f i octaedit.obj
 0001:00026000       ?reset@VSlot@@QAEXXZ       00427000 f i octaedit.obj
 0001:000260d0       ??0VSlot@@QAE@PAUSlot@@H@Z 004270d0 f i octaedit.obj
 0001:00026170       ??8selinfo@@QBE_NABU0@@Z   00427170 f i octaedit.obj
 0001:000261c0       ?flush@GlobalShaderParamUse@@QAEXXZ 004271c0 f i octaedit.obj
 0001:00026420       ?flushparams@Shader@@QAEXPAUSlot@@@Z 00427420 f i octaedit.obj
 0001:00026460       ??0selinfo@@QAE@XZ         00427460 f i octaedit.obj
 0001:000264c0       ?addvert@verthash@@QAEHABUvertex@@@Z 004274c0 f i octarender.obj
 0001:000266d0       ?sort@sortkey@@SA_NABU1@0@Z 004276d0 f i octarender.obj
 0001:00026750       ?sort@decalkey@@SA_NABU1@0@Z 00427750 f i octarender.obj
 0001:000267e0       ?optimize@vacollect@@QAEXXZ 004277e0 f i octarender.obj
 0001:00026950       ?gendecal@vacollect@@QAEXABUextentity@@AAUDecalSlot@@ABUdecalkey@@@Z 00427950 f i octarender.obj
 0001:00027bc0       ?gendecals@vacollect@@QAEXXZ 00428bc0 f i octarender.obj
 0001:00027ec0       ?setupdata@vacollect@@QAEXPAUvtxarray@@@Z 00428ec0 f i octarender.obj
 0001:00028a60       ??0vacollect@@QAE@XZ       00429a60 f i octarender.obj
 0001:00028ce0       ??1vacollect@@QAE@XZ       00429ce0 f i octarender.obj
 0001:00028ec0       ??1verthash@@QAE@XZ        00429ec0 f i octarender.obj
 0001:00028f50       ??1?$hashtable@Usortkey@@Usortval@@@@QAE@XZ 00429f50 f i octarender.obj
 0001:00028f50       ??1?$hashtable@Udecalkey@@Usortval@@@@QAE@XZ 00429f50 f i octarender.obj
 0001:00028fb0       ??1?$hashbase@U?$hashnameset@Uident@@@@Uident@@PBDU2@@@QAE@XZ 00429fb0 f i command.obj
 0001:00028fb0       ??1?$hashbase@U?$hashtable@Uedgegroup@@H@@U?$hashtableentry@Uedgegroup@@H@@Uedgegroup@@H@@QAE@XZ 00429fb0 f i octarender.obj
 0001:00029030       ??1?$hashbase@U?$hashtable@Udecalkey@@Usortval@@@@U?$hashtableentry@Udecalkey@@Usortval@@@@Udecalkey@@Usortval@@@@QAE@XZ 0042a030 f i octarender.obj
 0001:00029030       ??1?$hashbase@U?$hashtable@Usortkey@@Usortval@@@@U?$hashtableentry@Usortkey@@Usortval@@@@Usortkey@@Usortval@@@@QAE@XZ 0042a030 f i octarender.obj
 0001:00029080       ??1?$hashbase@U?$hashtable@Upvsdata@@H@@U?$hashtableentry@Upvsdata@@H@@Upvsdata@@H@@QAE@XZ 0042a080 f i pvs.obj
 0001:00029080       ??1?$hashbase@U?$hashtable@IUvboinfo@@@@U?$hashtableentry@IUvboinfo@@@@IUvboinfo@@@@QAE@XZ 0042a080 f i octarender.obj
 0001:00029100       ?removeobj@?$vector@PAUgameent@@@@QAEXABQAUgameent@@@Z 0042a100 f i game.obj
 0001:00029100       ?removeobj@?$vector@PAUoctaentities@@@@QAEXABQAUoctaentities@@@Z 0042a100 f i world.obj
 0001:00029100       ?removeobj@?$vector@PAUmesh@animmodel@@@@QAEXABQAUmesh@animmodel@@@Z 0042a100 f i rendermodel.obj
 0001:00029100       ?removeobj@?$vector@PAUvtxarray@@@@QAEXABQAUvtxarray@@@Z 0042a100 f i octarender.obj
 0001:00029100       ?removeobj@?$vector@PAUclientinfo@server@@@@QAEXABQAUclientinfo@server@@@Z 0042a100 f i server1.obj
 0001:00029100       ?removeobj@?$vector@H@@QAEXABH@Z 0042a100 f i world.obj
 0001:00029150       ?growbuf@?$vector@Unode@wpcache@ai@@@@QAEXH@Z 0042a150 f i waypoint.obj
 0001:00029150       ?growbuf@?$vector@Umergedface@@@@QAEXH@Z 0042a150 f i octarender.obj
 0001:00029150       ?growbuf@?$vector@UFragDataLoc@@@@QAEXH@Z 0042a150 f i shader.obj
 0001:000291e0       ?deletechunks@?$hashbase@U?$hashtable@Udecalkey@@Usortval@@@@U?$hashtableentry@Udecalkey@@Usortval@@@@Udecalkey@@Usortval@@@@QAEXXZ 0042a1e0 f i octarender.obj
 0001:000291e0       ?deletechunks@?$hashbase@U?$hashtable@Usortkey@@Usortval@@@@U?$hashtableentry@Usortkey@@Usortval@@@@Usortkey@@Usortval@@@@QAEXXZ 0042a1e0 f i octarender.obj
 0001:00029260       ?growbuf@?$vector@Ugrasstri@@@@QAEXH@Z 0042a260 f i octarender.obj
 0001:000292f0       ??1chain@?$hashbase@U?$hashtable@Udecalkey@@Usortval@@@@U?$hashtableentry@Udecalkey@@Usortval@@@@Udecalkey@@Usortval@@@@QAE@XZ 0042a2f0 f i octarender.obj
 0001:000292f0       ??1chain@?$hashbase@U?$hashtable@Usortkey@@Usortval@@@@U?$hashtableentry@Usortkey@@Usortval@@@@Usortkey@@Usortval@@@@QAE@XZ 0042a2f0 f i octarender.obj
 0001:00029350       ??1?$hashtableentry@Udecalkey@@Usortval@@@@QAE@XZ 0042a350 f i octarender.obj
 0001:00029350       ??1?$hashtableentry@Usortkey@@Usortval@@@@QAE@XZ 0042a350 f i octarender.obj
 0001:000293b0       ??1sortval@@QAE@XZ         0042a3b0 f i octarender.obj
 0001:00029400       ??$?AUsortkey@@@?$hashbase@U?$hashtable@Usortkey@@Usortval@@@@U?$hashtableentry@Usortkey@@Usortval@@@@Usortkey@@Usortval@@@@QAEAAUsortval@@ABUsortkey@@@Z 0042a400 f i octarender.obj
 0001:00029470       ??$?AUdecalkey@@@?$hashbase@U?$hashtable@Udecalkey@@Usortval@@@@U?$hashtableentry@Udecalkey@@Usortval@@@@Udecalkey@@Usortval@@@@QAEAAUsortval@@ABUdecalkey@@@Z 0042a470 f i octarender.obj
 0001:000294d0       ?insert@?$hashbase@U?$hashtable@Uedgegroup@@H@@U?$hashtableentry@Uedgegroup@@H@@Uedgegroup@@H@@QAEPAUchain@1@I@Z 0042a4d0 f i octarender.obj
 0001:00029680       ?insert@?$hashbase@U?$hashtable@Udecalkey@@Usortval@@@@U?$hashtableentry@Udecalkey@@Usortval@@@@Udecalkey@@Usortval@@@@QAEPAUchain@1@I@Z 0042a680 f i octarender.obj
 0001:00029680       ?insert@?$hashbase@U?$hashtable@Usortkey@@Usortval@@@@U?$hashtableentry@Usortkey@@Usortval@@@@Usortkey@@Usortval@@@@QAEPAUchain@1@I@Z 0042a680 f i octarender.obj
 0001:00029830       ?insert@?$hashbase@U?$hashtable@IUvboinfo@@@@U?$hashtableentry@IUvboinfo@@@@IUvboinfo@@@@QAEPAUchain@1@I@Z 0042a830 f i octarender.obj
 0001:00029990       ??0chain@?$hashbase@U?$hashtable@Usortkey@@Usortval@@@@U?$hashtableentry@Usortkey@@Usortval@@@@Usortkey@@Usortval@@@@QAE@XZ 0042a990 f i octarender.obj
 0001:00029990       ??0chain@?$hashbase@U?$hashtable@Udecalkey@@Usortval@@@@U?$hashtableentry@Udecalkey@@Usortval@@@@Udecalkey@@Usortval@@@@QAE@XZ 0042a990 f i octarender.obj
 0001:000299f0       ?iszero@vec@@QBE_NXZ       0042a9f0 f i octarender.obj
 0001:00029a30       ?dist@vec@@QBEMABU1@@Z     0042aa30 f i octarender.obj
 0001:00029a90       ?transform@matrix3@@QBE?AUvec@@ABU2@@Z 0042aa90 f i octarender.obj
 0001:00029b60       ?rotate_around_y@matrix3@@QAEXMM@Z 0042ab60 f i octarender.obj
 0001:00029b60       ?rotate_around_y@matrix4x3@@QAEXMM@Z 0042ab60 f i world.obj
 0001:00029c70       ?rotate_around_x@matrix3@@QAEXMM@Z 0042ac70 f i octarender.obj
 0001:00029c70       ?rotate_around_x@matrix4x3@@QAEXMM@Z 0042ac70 f i world.obj
 0001:00029d80       ?rotate_around_z@matrix3@@QAEXMM@Z 0042ad80 f i octarender.obj
 0001:00029d80       ?rotate_around_z@matrix4x3@@QAEXMM@Z 0042ad80 f i world.obj
 0001:00029e90       ?supportpoint@CubePlanes@mpr@@QBE?AUvec@@ABU3@@Z 0042ae90 f i physics.obj
 0001:0002a020       ??0EntOBB@mpr@@QAE@PAUphysent@@@Z 0042b020 f i physics.obj
 0001:0002a0a0       ?contactface@EntOBB@mpr@@QBE?AUvec@@ABU3@0@Z 0042b0a0 f i physics.obj
 0001:0002a3a0       ?supportpoint@EntOBB@mpr@@QBE?AUvec@@ABU3@@Z 0042b3a0 f i physics.obj
 0001:0002a520       ?supportpoint@EntCapsule@mpr@@QBE?AUvec@@ABU3@@Z 0042b520 f i physics.obj
 0001:0002a5f0       ??0Model@mpr@@QAE@ABUvec@@00HHH@Z 0042b5f0 f i physics.obj
 0001:0002a790       ?contactface@ModelOBB@mpr@@QBE?AUvec@@ABU3@0@Z 0042b790 f i physics.obj
 0001:0002aa70       ?supportpoint@ModelOBB@mpr@@QBE?AUvec@@ABU3@@Z 0042ba70 f i physics.obj
 0001:0002abe0       ?contactface@ModelEllipse@mpr@@QBE?AUvec@@ABU3@0@Z 0042bbe0 f i physics.obj
 0001:0002aeb0       ?supportpoint@ModelEllipse@mpr@@QBE?AUvec@@ABU3@@Z 0042beb0 f i physics.obj
 0001:0002b070       ??0dynentcacheentry@@QAE@XZ 0042c070 f i physics.obj
 0001:0002b0c0       ??1dynentcacheentry@@QAE@XZ 0042c0c0 f i physics.obj
 0001:0002b110       ??$collide@UEntOBB@mpr@@UEntCylinder@2@@mpr@@YA_NABUEntOBB@0@ABUEntCylinder@0@PAUvec@@22@Z 0042c110 f i physics.obj
 0001:0002c800       ??$collide@UEntOBB@mpr@@U12@@mpr@@YA_NABUEntOBB@0@0PAUvec@@11@Z 0042d800 f i physics.obj
 0001:0002db70       ??$collide@UEntOBB@mpr@@UModelEllipse@2@@mpr@@YA_NABUEntOBB@0@ABUModelEllipse@0@PAUvec@@22@Z 0042eb70 f i physics.obj
 0001:0002efc0       ??$collide@UEntOBB@mpr@@UModelOBB@2@@mpr@@YA_NABUEntOBB@0@ABUModelOBB@0@PAUvec@@22@Z 0042ffc0 f i physics.obj
 0001:00030410       ??$collide@USolidCube@mpr@@UEntOBB@2@@mpr@@YA_NABUSolidCube@0@ABUEntOBB@0@@Z 00431410 f i physics.obj
 0001:00030fa0       ??$collide@UCubePlanes@mpr@@UEntOBB@2@@mpr@@YA_NABUCubePlanes@0@ABUEntOBB@0@@Z 00431fa0 f i physics.obj
 0001:00031a80       __vfprintf_l               00432a80 f i physics.obj
 0001:00031ab0       _printf                    00432ab0 f i physics.obj
 0001:00031ad0       ?reset@physent@@QAEXXZ     00432ad0 f i physics.obj
 0001:00031b30       ??0physent@@QAE@XZ         00432b30 f i physics.obj
 0001:00031c30       ?collisionbox@model@@QAEMAAUvec@@0@Z 00432c30 f i physics.obj
 0001:00031d90       ?setyaw@matrix3@@QAEXM@Z   00432d90 f i physics.obj
 0001:00031e00       ??0shaftbb@@QAE@ABUivec@@HABUbvec@@@Z 00432e00 f i pvs.obj
 0001:00031ec0       ?calcshaft@shaft@@QAEXABUshaftbb@@0@Z 00432ec0 f i pvs.obj
 0001:000321e0       ?inside@shaft@@QBE_NABUshaftbb@@@Z 004331e0 f i pvs.obj
 0001:00032290       ??0<unnamed-type-waterplanes>@@QAE@XZ 00433290 f i pvs.obj
 0001:000322e0       ??1<unnamed-type-waterplanes>@@QAE@XZ 004332e0 f i pvs.obj
 0001:00032330       ??0pvsworker@@QAE@XZ       00433330 f i pvs.obj
 0001:000323f0       ??1pvsworker@@QAE@XZ       004333f0 f i pvs.obj
 0001:00032460       ?hidepvs@pvsworker@@QAEXAAUpvsnode@@@Z 00433460 f i pvs.obj
 0001:000324c0       ?shaftcullpvs@pvsworker@@QAEXAAUshaft@@AAUpvsnode@@ABUivec@@H@Z 004334c0 f i pvs.obj
 0001:000326d0       ?cullpvs@pvsworker@@QAEXAAUpvsnode@@ABUivec@@H@Z 004336d0 f i pvs.obj
 0001:00034d10       ?compresspvs@pvsworker@@QAE_NAAUpvsnode@@HH@Z 00435d10 f i pvs.obj
 0001:00034e80       ?serializepvs@pvsworker@@QAE_NAAUpvsnode@@H@Z 00435e80 f i pvs.obj
 0001:00035090       ?materialoccluded@pvsworker@@QAE_NAAUpvsnode@@ABUivec@@H11@Z 00436090 f i pvs.obj
 0001:00035170       ?materialoccluded@pvsworker@@QAE_NAAU?$vector@PAUmaterialsurface@@@@@Z 00436170 f i pvs.obj
 0001:00035330       ?calcpvs@pvsworker@@QAEXABUivec@@H@Z 00436330 f i pvs.obj
 0001:000354c0       ?genviewcell@pvsworker@@QAEHABUivec@@H@Z 004364c0 f i pvs.obj
 0001:00035750       ?run@pvsworker@@SAHPAX@Z   00436750 f i pvs.obj
 0001:00035a70       ??_Gviewcellnode@@QAEPAXI@Z 00436a70 f i pvs.obj
 0001:00035ab0       ?add@?$vector@PAUpvsworker@@@@QAEAAPAUpvsworker@@ABQAU2@@Z 00436ab0 f i pvs.obj
 0001:00035b90       ?add@?$vector@Upvsdata@@@@QAEAAUpvsdata@@ABU2@@Z 00436b90 f i pvs.obj
 0001:00035c80       ?add@?$vector@Upvsnode@@@@QAEAAUpvsnode@@XZ 00436c80 f i pvs.obj
 0001:00035d60       ??$getlil@G@stream@@QAEGXZ 00436d60 f i pvs.obj
 0001:00035d80       ?insert@?$hashbase@U?$hashtable@Upvsdata@@H@@U?$hashtableentry@Upvsdata@@H@@Upvsdata@@H@@QAEPAUchain@1@I@Z 00436d80 f i pvs.obj
 0001:00035f10       ?add@?$vector@Uentity@@@@QAEAAUentity@@ABU2@@Z 00436f10 f i world.obj
 0001:00035f70       ?growbuf@?$vector@Umaterialsurface@@@@QAEXH@Z 00436f70 f i material.obj
 0001:00035f70       ?growbuf@?$vector@Uentity@@@@QAEXH@Z 00436f70 f i world.obj
 0001:00036000       ??$copystring@$0BAE@@@YAPADAAY0BAE@DPBD@Z 00437000 f i world.obj
 0001:00036040       ?concatstring@@YAPADPADPBDI@Z 00437040 f i world.obj
 0001:000360a0       ?nformatstring@@YAXPADHPBDZZ 004370a0 f i world.obj
 0001:000360e0       ?transform@matrix4x3@@QBE?AUvec@@ABU2@@Z 004370e0 f i world.obj
 0001:000361e0       ?identity@matrix4x3@@QAEXXZ 004371e0 f i world.obj
 0001:00036260       ?orthogonal@vec@@QAEXABU1@@Z 00437260 f i world.obj
 0001:00036300       ??1?$hashtable@HU?$vector@Uivec2@@@@@@QAE@XZ 00437300 f i worldio.obj
 0001:00036340       ??1?$hashbase@U?$hashtable@HU?$vector@Uivec2@@@@@@U?$hashtableentry@HU?$vector@Uivec2@@@@@@HU?$vector@Uivec2@@@@@@QAE@XZ 00437340 f i worldio.obj
 0001:000363d0       ??0?$hashtable@Uivec@@H@@QAE@H@Z 004373d0 f i rendermodel.obj
 0001:000363d0       ??0?$hashtable@Uvec@@H@@QAE@H@Z 004373d0 f i worldio.obj
 0001:00036470       ?add@?$vector@Uvec@@@@QAEAAUvec@@ABU2@@Z 00437470 f i worldio.obj
 0001:00036540       ?add@?$vector@PAUVSlot@@@@QAEAAPAUVSlot@@ABQAU2@@Z 00437540 f i worldio.obj
 0001:00036620       ??1chain@?$hashbase@U?$hashtable@HU?$vector@Uivec2@@@@@@U?$hashtableentry@HU?$vector@Uivec2@@@@@@HU?$vector@Uivec2@@@@@@QAE@XZ 00437620 f i worldio.obj
 0001:00036680       ??1?$hashtableentry@HU?$vector@Uivec2@@@@@@QAE@XZ 00437680 f i worldio.obj
 0001:000366e0       ??$access@Uvec@@H@?$hashbase@U?$hashtable@Uvec@@H@@U?$hashtableentry@Uvec@@H@@Uvec@@H@@QAEAAHABUvec@@ABH@Z 004376e0 f i worldio.obj
 0001:00036790       ?insert@?$hashbase@U?$hashtable@HU?$vector@Uivec2@@@@@@U?$hashtableentry@HU?$vector@Uivec2@@@@@@HU?$vector@Uivec2@@@@@@QAEPAUchain@1@I@Z 00437790 f i worldio.obj
 0001:00036930       ?insert@?$hashbase@U?$hashtable@Uvec@@H@@U?$hashtableentry@Uvec@@H@@Uvec@@H@@QAEPAUchain@1@I@Z 00437930 f i worldio.obj
 0001:00036930       ?insert@?$hashbase@U?$hashtable@Uivec@@H@@U?$hashtableentry@Uivec@@H@@Uivec@@H@@QAEPAUchain@1@I@Z 00437930 f i rendermodel.obj
 0001:00036ab0       ??0chain@?$hashbase@U?$hashtable@HU?$vector@Uivec2@@@@@@U?$hashtableentry@HU?$vector@Uivec2@@@@@@HU?$vector@Uivec2@@@@@@QAE@XZ 00437ab0 f i worldio.obj
 0001:00036b00       ?invert@matrix4x3@@QAEXABU1@@Z 00437b00 f i worldio.obj
 0001:00036d30       ?mul@matrix4x3@@QAEXABUmatrix3@@ABU1@@Z 00437d30 f i worldio.obj
 0001:00037070       ?getstr@tagval@@QBEPBDXZ   00438070 f i worldio.obj
 0001:000370c0       ?getfloat@tagval@@QBEMXZ   004380c0 f i worldio.obj
 0001:00037170       ?getint@tagval@@QBEHXZ     00438170 f i worldio.obj
 0001:000371c0       ?setstr@tagval@@QAEXPAD@Z  004381c0 f i worldio.obj
 0001:000371d0       ?setfloat@tagval@@QAEXM@Z  004381d0 f i worldio.obj
 0001:000371e0       ??1packetbuf@@QAE@XZ       004381e0 f i client.obj
 0001:00037250       ?getbuf@?$vector@PAD@@QAEPAPADXZ 00438250 f i server.obj
 0001:00037260       ?length@?$vector@PAD@@QBEHXZ 00438260 f i server.obj
 0001:00037270       ??$vformatstring@$0BAE@@@YAXAAY0BAE@DPBDPAD@Z 00438270 f i server.obj
 0001:000372a0       ?subbuf@packetbuf@@QAE?AU?$databuf@E@@H@Z 004382a0 f i server.obj
 0001:00037320       ?put@packetbuf@@QAEXPBEH@Z 00438320 f i server.obj
 0001:000373a0       ??0packetbuf@@QAE@HH@Z     004383a0 f i server.obj
 0001:000373f0       ?status@serverinfo@@QBEPBDXZ 004383f0 f i serverbrowser.obj
 0001:00037440       ?valid@serverinfo@@QBE_NXZ 00438440 f i serverbrowser.obj
 0001:000374a0       ?compare@serverinfo@@SA_NPAU1@0@Z 004384a0 f i serverbrowser.obj
 0001:00037550       ??1servinfo@@QAE@XZ        00438550 f i serverbrowser.obj
 0001:000375a0       ??_Gserverinfo@@QAEPAXI@Z  004385a0 f i serverbrowser.obj
 0001:00037630       ___local_stdio_scanf_options 00438630 f i serverbrowser.obj
 0001:00037640       __vsscanf_l                00438640 f i serverbrowser.obj
 0001:00037670       _sscanf                    00438670 f i serverbrowser.obj
 0001:00037690       ?setf@LocalShaderParam@@QAEXMMMM@Z 00438690 f i aa.obj
 0001:00037940       ??$mult@Udvec4@@@matrix4@@QAEXABU0@0@Z 00438940 f i aa.obj
 0001:00037e50       ?traverse@BIH@@QAE_NABUmesh@1@ABUvec@@11MAAMHPAUnode@1@MM@Z 00438e50 f i bih.obj
 0001:000382a0       ?traverse@BIH@@QAE_NABUvec@@0MAAMH@Z 004392a0 f i bih.obj
 0001:000384b0       ??$tricollide@$00@BIH@@QAEXABUmesh@0@HPAUphysent@@ABUvec@@M22ABUmatrix4x3@@AAMABUivec@@5@Z 004394b0 f i bih.obj
 0001:00038a30       ??$tricollide@$01@BIH@@QAEXABUmesh@0@HPAUphysent@@ABUvec@@M22ABUmatrix4x3@@AAMABUivec@@5@Z 00439a30 f i bih.obj
 0001:00038df0       ?genstaintris@BIH@@QAEXPAUstainrenderer@@ABUmesh@1@HABUvec@@MABUmatrix4x3@@ABUivec@@4@Z 00439df0 f i bih.obj
 0001:00038ee0       ??$collide@$00@BIH@@QAEXABUmesh@0@PAUphysent@@ABUvec@@M22ABUmatrix4x3@@AAMPAUnode@0@ABUivec@@6@Z 00439ee0 f i bih.obj
 0001:000391b0       ??$collide@$01@BIH@@QAEXABUmesh@0@PAUphysent@@ABUvec@@M22ABUmatrix4x3@@AAMPAUnode@0@ABUivec@@6@Z 0043a1b0 f i bih.obj
 0001:00039470       ?mul@matrix3@@QAEXABU1@0@Z 0043a470 f i bih.obj
 0001:000396e0       ?outside@tribb@BIH@@QBE_NABUivec@@0@Z 0043a6e0 f i bih.obj
 0001:00039750       ?ceil@ivec@@SA?AU1@ABUvec@@@Z 0043a750 f i bih.obj
 0001:000397e0       ?floor@ivec@@SA?AU1@ABUvec@@@Z 0043a7e0 f i bih.obj
 0001:000398e0       ?add@?$vector@Ugrassvert@@@@QAEAAUgrassvert@@XZ 0043a8e0 f i grass.obj
 0001:000399c0       ?setvariant_@Shader@@QAEXHH@Z 0043a9c0 f i grass.obj
 0001:00039a30       ??0QuadNode@@QAE@HHH@Z     0043aa30 f i material.obj
 0001:00039a70       ??1QuadNode@@QAE@XZ        0043aa70 f i material.obj
 0001:00039a70       ?clear@QuadNode@@QAEXXZ    0043aa70 f i material.obj
 0001:00039ab0       ?insert@QuadNode@@QAEXHHH@Z 0043aab0 f i material.obj
 0001:00039c00       ?genmatsurfs@QuadNode@@QAEXGEEHAAPAUmaterialsurface@@@Z 0043ac00 f i material.obj
 0001:00039d80       ??0?$hashset@PBD@@QAE@H@Z  0043ad80 f i rendergl.obj
 0001:00039e20       ??1?$hashbase@U?$hashnameset@PAUskeleton@skelmodel@@@@PAUskeleton@skelmodel@@PBDPAU23@@@QAE@XZ 0043ae20 f i rendermodel.obj
 0001:00039e20       ??1?$hashbase@U?$hashset@PAD@@PADPADPAD@@QAE@XZ 0043ae20 f i rendermodel.obj
 0001:00039e20       ??1?$hashbase@U?$hashnameset@PAUmodel@@@@PAUmodel@@PBDPAU2@@@QAE@XZ 0043ae20 f i rendermodel.obj
 0001:00039e20       ??1?$hashbase@U?$hashnameset@PAUWindow@UI@@@@PAUWindow@UI@@PBDPAU23@@@QAE@XZ 0043ae20 f i ui.obj
 0001:00039e20       ??1?$hashbase@U?$hashnameset@PAUmeshgroup@animmodel@@@@PAUmeshgroup@animmodel@@PBDPAU23@@@QAE@XZ 0043ae20 f i rendermodel.obj
 0001:00039e20       ??1?$hashbase@U?$hashset@H@@HHH@@QAE@XZ 0043ae20 f i rendermodel.obj
 0001:00039e20       ??1?$hashbase@U?$hashset@PBD@@PBDPBDPBD@@QAE@XZ 0043ae20 f i rendergl.obj
 0001:00039ea0       ??$add@PAD@?$hashset@PBD@@QAEAAPBDABQAD@Z 0043aea0 f i rendergl.obj
 0001:00039f40       ?insert@?$hashbase@U?$hashset@H@@HHH@@QAEPAUchain@1@I@Z 0043af40 f i rendermodel.obj
 0001:00039f40       ?insert@?$hashbase@U?$hashset@PBD@@PBDPBDPBD@@QAEPAUchain@1@I@Z 0043af40 f i rendergl.obj
 0001:0003a090       ?ortho@matrix4@@QAEXMMMMMM@Z 0043b090 f i rendergl.obj
 0001:0003a1c0       ?transform@matrix4@@QBEXABUvec@@AAUvec4@@@Z 0043b1c0 f i rendergl.obj
 0001:0003a2c0       ?perspective@matrix4@@QAEXMMMM@Z 0043b2c0 f i rendergl.obj
 0001:0003a400       ??0lightinfo@@QAE@HABUextentity@@@Z 0043b400 f i renderlights.obj
 0001:0003a670       ?calcspot@lightinfo@@QAEXXZ 0043b670 f i renderlights.obj
 0001:0003a7c0       ?calcscissor@lightinfo@@QAEXXZ 0043b7c0 f i renderlights.obj
 0001:0003a850       ?calcbb@lightinfo@@QAEXAAUvec@@0@Z 0043b850 f i renderlights.obj
 0001:0003aac0       ??1?$hashtable@Ushadowcachekey@@Ushadowcacheval@@@@QAE@XZ 0043bac0 f i renderlights.obj
 0001:0003ab00       ??1?$hashbase@U?$hashset@Ulightbatch@@@@Ulightbatch@@U2@U2@@@QAE@XZ 0043bb00 f i renderlights.obj
 0001:0003ab90       ?add@?$vector@Ulightinfo@@@@QAEAAUlightinfo@@ABU2@@Z 0043bb90 f i renderlights.obj
 0001:0003ac70       ??1?$hashbase@U?$hashtable@Ushadowcachekey@@Ushadowcacheval@@@@U?$hashtableentry@Ushadowcachekey@@Ushadowcacheval@@@@Ushadowcachekey@@Ushadowcacheval@@@@QAE@XZ 0043bc70 f i renderlights.obj
 0001:0003acf0       ?deletechunks@?$hashbase@U?$hashtable@Ushadowcachekey@@Ushadowcacheval@@@@U?$hashtableentry@Ushadowcachekey@@Ushadowcacheval@@@@Ushadowcachekey@@Ushadowcacheval@@@@QAEXXZ 0043bcf0 f i renderlights.obj
 0001:0003ad30       ??1chain@?$hashbase@U?$hashset@Ulightbatch@@@@Ulightbatch@@U2@U2@@@QAE@XZ 0043bd30 f i renderlights.obj
 0001:0003ad90       ??1lightbatch@@QAE@XZ      0043bd90 f i renderlights.obj
 0001:0003adf0       ?insert@?$hashbase@U?$hashset@Ulightbatch@@@@Ulightbatch@@U2@U2@@@QAEPAUchain@1@I@Z 0043bdf0 f i renderlights.obj
 0001:0003afc0       ?insert@?$hashbase@U?$hashtable@Ushadowcachekey@@Ushadowcacheval@@@@U?$hashtableentry@Ushadowcachekey@@Ushadowcacheval@@@@Ushadowcachekey@@Ushadowcacheval@@@@QAEPAUchain@1@I@Z 0043bfc0 f i renderlights.obj
 0001:0003b170       ??0chain@?$hashbase@U?$hashset@Ulightbatch@@@@Ulightbatch@@U2@U2@@@QAE@XZ 0043c170 f i renderlights.obj
 0001:0003b1c0       ?muld@matrix4@@QAEXABU1@@Z 0043c1c0 f i renderlights.obj
 0001:0003b700       ?setv@LocalShaderParam@@QAEXPBUvec4@@H@Z 0043c700 f i renderlights.obj
 0001:0003b760       ??0ragdollskel@@QAE@XZ     0043c760 f i rendermodel.obj
 0001:0003b850       ?setupjoints@ragdollskel@@QAEXXZ 0043c850 f i rendermodel.obj
 0001:0003bd10       ?setuprotfrictions@ragdollskel@@QAEXXZ 0043cd10 f i rendermodel.obj
 0001:0003be80       ??0ragdolldata@@QAE@PAUragdollskel@@M@Z 0043ce80 f i rendermodel.obj
 0001:0003c070       ?calcanimjoint@ragdolldata@@QAEXHABUmatrix4x3@@@Z 0043d070 f i rendermodel.obj
 0001:0003c3a0       ?calctris@ragdolldata@@QAEXXZ 0043d3a0 f i rendermodel.obj
 0001:0003c5c0       ?calcboundsphere@ragdolldata@@QAEXXZ 0043d5c0 f i rendermodel.obj
 0001:0003c6f0       ?applyrotlimit@ragdolldata@@QAEXAAUtri@ragdollskel@@0MABUvec@@@Z 0043d6f0 f i rendermodel.obj
 0001:0003d2a0       ??_Gragdolldata@@QAEPAXI@Z 0043e2a0 f i rendermodel.obj
 0001:0003d320       ?setframes@animpos@animmodel@@QAEXABUaniminfo@@@Z 0043e320 f i rendermodel.obj
 0001:0003d400       ??9animstate@animmodel@@QBE_NABU01@@Z 0043e400 f i rendermodel.obj
 0001:0003d490       ??0shaderparams@animmodel@@QAE@XZ 0043e490 f i rendermodel.obj
 0001:0003d500       ?setshaderparams@skin@animmodel@@QAEXAAUmesh@2@PBUanimstate@2@_N@Z 0043e500 f i rendermodel.obj
 0001:0003dab0       ?loadshader@skin@animmodel@@QAEPAUShader@@XZ 0043eab0 f i rendermodel.obj
 0001:0003dc40       ?bind@skin@animmodel@@QAEXAAUmesh@2@PBUanimstate@2@@Z 0043ec40 f i rendermodel.obj
 0001:0003df00       ??1mesh@animmodel@@UAE@XZ  0043ef00 f i rendermodel.obj
 0001:0003df50       ?changeteam@servmode@server@@UAEXPAUclientinfo@2@HH@Z 0043ef50 f i server1.obj
 0001:0003df50       ?drawhud@clientmode@game@@UAEXPAUgameent@@HH@Z 0043ef50 f i client1.obj
 0001:0003df50       ?aifind@clientmode@game@@UAEXPAUgameent@@AAUaistate@ai@@AAU?$vector@Uinterest@ai@@@@@Z 0043ef50 f i client1.obj
 0001:0003df50       ?setenvmap@model@@UAEXMMPAUTexture@@@Z 0043ef50 f i rendermodel.obj
 0001:0003df50       ?calcbb@mesh@animmodel@@UAEXAAUvec@@0ABUmatrix4x3@@@Z 0043ef50 f i rendermodel.obj
 0001:0003df50       ?setglow@model@@UAEXMMM@Z  0043ef50 f i rendermodel.obj
 0001:0003df50       ?initclient@servmode@server@@UAEXPAUclientinfo@2@AAUpacketbuf@@_N@Z 0043ef50 f i server1.obj
 0001:0003df60       ?setcullface@model@@UAEXH@Z 0043ef60 f i rendermodel.obj
 0001:0003df60       ?process@gameevent@server@@UAEXPAUclientinfo@2@@Z 0043ef60 f i server1.obj
 0001:0003df60       ?entergame@servmode@server@@UAEXPAUclientinfo@2@@Z 0043ef60 f i server1.obj
 0001:0003df60       ?setdither@model@@UAEX_N@Z 0043ef60 f i rendermodel.obj
 0001:0003df60       ?getteamscores@clientmode@game@@UAEXAAU?$vector@Uteamscore@@@@@Z 0043ef60 f i client1.obj
 0001:0003df60       ?respawned@clientmode@game@@UAEXPAUgameent@@@Z 0043ef60 f i client1.obj
 0001:0003df60       ?getteamscores@servmode@server@@UAEXAAU?$vector@Uteamscore@@@@@Z 0043ef60 f i server1.obj
 0001:0003df60       ?preload@meshgroup@animmodel@@UAEXPAUpart@2@@Z 0043ef60 f i rendermodel.obj
 0001:0003df60       ?killpart@listrenderer@@UAEXPAUlistparticle@@@Z 0043ef60 f i renderparticles.obj
 0001:0003df60       ?genBIH@mesh@animmodel@@UAEXAAU1BIH@@@Z 0043ef60 f i rendermodel.obj
 0001:0003df60       ?setshader@model@@UAEXPAUShader@@@Z 0043ef60 f i rendermodel.obj
 0001:0003df60       ?removeplayer@clientmode@game@@UAEXPAUgameent@@@Z 0043ef60 f i client1.obj
 0001:0003df60       ?setcolor@model@@UAEXABUvec@@@Z 0043ef60 f i rendermodel.obj
 0001:0003df60       ?setgloss@model@@UAEXH@Z   0043ef60 f i rendermodel.obj
 0001:0003df60       ?init@partrenderer@@UAEXH@Z 0043ef60 f i renderparticles.obj
 0001:0003df60       ?setspec@model@@UAEXM@Z    0043ef60 f i rendermodel.obj
 0001:0003df60       ?resettracked@partrenderer@@UAEXPAUphysent@@@Z 0043ef60 f i renderparticles.obj
 0001:0003df60       ?senditems@clientmode@game@@UAEXAAUpacketbuf@@@Z 0043ef60 f i client1.obj
 0001:0003df60       ?setfullbright@model@@UAEXM@Z 0043ef60 f i rendermodel.obj
 0001:0003df60       ?setalphatest@model@@UAEXM@Z 0043ef60 f i rendermodel.obj
 0001:0003df60       ?spawned@servmode@server@@UAEXPAUclientinfo@2@@Z 0043ef60 f i server1.obj
 0001:0003df60       ?checkitems@clientmode@game@@UAEXPAUgameent@@@Z 0043ef60 f i client1.obj
 0001:0003df70       ?hover@Object@UI@@UAEXMM@Z 0043ef70 f i ui.obj
 0001:0003df70       ?press@Object@UI@@UAEXMM@Z 0043ef70 f i ui.obj
 0001:0003df70       ?altrelease@Object@UI@@UAEXMM@Z 0043ef70 f i ui.obj
 0001:0003df70       ?leavegame@servmode@server@@UAEXPAUclientinfo@2@_N@Z 0043ef70 f i server1.obj
 0001:0003df70       ?died@servmode@server@@UAEXPAUclientinfo@2@0@Z 0043ef70 f i server1.obj
 0001:0003df70       ?escrelease@Object@UI@@UAEXMM@Z 0043ef70 f i ui.obj
 0001:0003df70       ?scrolldown@Object@UI@@UAEXMM@Z 0043ef70 f i ui.obj
 0001:0003df70       ?altpress@Object@UI@@UAEXMM@Z 0043ef70 f i ui.obj
 0001:0003df70       ?althold@Object@UI@@UAEXMM@Z 0043ef70 f i ui.obj
 0001:0003df70       ?draw@World@UI@@UAEXMM@Z   0043ef70 f i ui.obj
 0001:0003df70       ?genshadowmesh@mesh@animmodel@@UAEXAAU?$vector@Utriangle@@@@ABUmatrix4x3@@@Z 0043ef70 f i rendermodel.obj
 0001:0003df70       ?eschold@Object@UI@@UAEXMM@Z 0043ef70 f i ui.obj
 0001:0003df70       ?hold@Object@UI@@UAEXMM@Z  0043ef70 f i ui.obj
 0001:0003df70       ?escpress@Object@UI@@UAEXMM@Z 0043ef70 f i ui.obj
 0001:0003df70       ?genshadowmesh@model@@UAEXAAU?$vector@Utriangle@@@@ABUmatrix4x3@@@Z 0043ef70 f i rendermodel.obj
 0001:0003df70       ?release@Object@UI@@UAEXMM@Z 0043ef70 f i ui.obj
 0001:0003df70       ?scrollup@Object@UI@@UAEXMM@Z 0043ef70 f i ui.obj
 0001:0003df80       ?setshader@mesh@animmodel@@UAEXPAUShader@@H@Z 0043ef80 f i rendermodel.obj
 0001:0003dfe0       ?fixqtangent@mesh@animmodel@@SAXAAUquat@@M@Z 0043efe0 f i rendermodel.obj
 0001:0003e100       ??1meshgroup@animmodel@@UAE@XZ 0043f100 f i rendermodel.obj
 0001:0003e1b0       ?findtag@meshgroup@animmodel@@UAEHPBD@Z 0043f1b0 f i rendermodel.obj
 0001:0003e1b0       ?cancombine@MatSlot@@UBEHH@Z 0043f1b0 f i texture.obj
 0001:0003e1c0       ?concattagtransform@meshgroup@animmodel@@UAEXPAUpart@2@HABUmatrix4x3@@AAU4@@Z 0043f1c0 f i rendermodel.obj
 0001:0003e1d0       ?genBIH@meshgroup@animmodel@@QAEXAAU?$vector@Uskin@animmodel@@@@AAU?$vector@Umesh@BIH@@@@ABUmatrix4x3@@@Z 0043f1d0 f i rendermodel.obj
 0001:0003e390       ?animkey@meshgroup@animmodel@@UAEPAXXZ 0043f390 f i rendermodel.obj
 0001:0003e3a0       ?wheelscrolldirection@Slider@UI@@UBEHXZ 0043f3a0 f i ui.obj
 0001:0003e3a0       ?type@md3@@UBEHXZ          0043f3a0 f i rendermodel.obj
 0001:0003e3a0       ?wheelscrolldirection@ScrollBar@UI@@UBEHXZ 0043f3a0 f i ui.obj
 0001:0003e3a0       ?totalframes@meshgroup@animmodel@@UBEHXZ 0043f3a0 f i rendermodel.obj
 0001:0003e3a0       ?type@MatSlot@@UBEHXZ      0043f3a0 f i texture.obj
 0001:0003e3b0       ?hasframes@meshgroup@animmodel@@QBE_NHH@Z 0043f3b0 f i rendermodel.obj
 0001:0003e3e0       ?preloadshaders@model@@UAEXXZ 0043f3e0 f i rendermodel.obj
 0001:0003e3e0       ?cleanup@meshgroup@animmodel@@UAEXXZ 0043f3e0 f i rendermodel.obj
 0001:0003e3e0       ?cleanup@servmode@server@@UAEXXZ 0043f3e0 f i server1.obj
 0001:0003e3e0       ?rendergame@clientmode@game@@UAEXXZ 0043f3e0 f i client1.obj
 0001:0003e3e0       ?gameover@clientmode@game@@UAEXXZ 0043f3e0 f i client1.obj
 0001:0003e3e0       ?setup@clientmode@game@@UAEXXZ 0043f3e0 f i client1.obj
 0001:0003e3e0       __initialize_denormal_control 0043f3e0 f i LIBCMT:denormal_control.obj
 0001:0003e3e0       @_guard_check_icall_nop@4  0043f3e0 f i LIBCMT:guard_support.obj
 0001:0003e3e0       ?cleanup@model@@UAEXXZ     0043f3e0 f i rendermodel.obj
 0001:0003e3e0       ?preloadmeshes@model@@UAEXXZ 0043f3e0 f i rendermodel.obj
 0001:0003e3e0       __initialize_invalid_parameter_handler 0043f3e0 f i LIBCMT:invalid_parameter_handler.obj
 0001:0003e3e0       ?intermission@servmode@server@@UAEXXZ 0043f3e0 f i server1.obj
 0001:0003e3e0       ?startload@animmodel@@UAEXXZ 0043f3e0 f i rendermodel.obj
 0001:0003e3e0       ?preload@clientmode@game@@UAEXXZ 0043f3e0 f i client1.obj
 0001:0003e3e0       ?endload@animmodel@@UAEXXZ 0043f3e0 f i rendermodel.obj
 0001:0003e3e0       ?startdraw@Object@UI@@UAEXXZ 0043f3e0 f i ui.obj
 0001:0003e3e0       ?update@partrenderer@@UAEXXZ 0043f3e0 f i renderparticles.obj
 0001:0003e3e0       ?cleanup@partrenderer@@UAEXXZ 0043f3e0 f i renderparticles.obj
 0001:0003e3e0       ?endrender@model@@UAEXXZ   0043f3e0 f i rendermodel.obj
 0001:0003e3e0       ?update@servmode@server@@UAEXXZ 0043f3e0 f i server1.obj
 0001:0003e3e0       ?flushpart@animmodel@@UAEXXZ 0043f3e0 f i rendermodel.obj
 0001:0003e3e0       ?enddraw@Object@UI@@UAEXXZ 0043f3e0 f i ui.obj
 0001:0003e3e0       ?startrender@model@@UAEXXZ 0043f3e0 f i rendermodel.obj
 0001:0003e3e0       ?newmap@servmode@server@@UAEXXZ 0043f3e0 f i server1.obj
 0001:0003e3e0       ?setup@servmode@server@@UAEXXZ 0043f3e0 f i server1.obj
 0001:0003e3f0       ?render@meshgroup@animmodel@@UAEXPBUanimstate@2@MABUvec@@1PAUdynent@@PAUpart@2@@Z 0043f3f0 f i rendermodel.obj
 0001:0003e3f0       ?seedemitter@partrenderer@@UAEXAAUparticleemitter@@ABUvec@@1HMH@Z 0043f3f0 f i renderparticles.obj
 0001:0003e400       ?intersect@meshgroup@animmodel@@UAEXPBUanimstate@2@MABUvec@@1PAUdynent@@PAUpart@2@11@Z 0043f400 f i rendermodel.obj
 0001:0003e410       ?bindpos@meshgroup@animmodel@@QAEXIIPAXHHH@Z 0043f410 f i rendermodel.obj
 0001:0003e4c0       ?bindtc@meshgroup@animmodel@@QAEXPAXH@Z 0043f4c0 f i rendermodel.obj
 0001:0003e510       ??0part@animmodel@@QAE@PAU1@H@Z 0043f510 f i rendermodel.obj
 0001:0003e5d0       ??1part@animmodel@@UAE@XZ  0043f5d0 f i rendermodel.obj
 0001:0003e6a0       ?cleanup@part@animmodel@@UAEXXZ 0043f6a0 f i rendermodel.obj
 0001:0003e6f0       ?calcbb@part@animmodel@@QAEXAAUvec@@0ABUmatrix4x3@@@Z 0043f6f0 f i rendermodel.obj
 0001:0003e930       ?genBIH@part@animmodel@@QAEXAAU?$vector@Umesh@BIH@@@@ABUmatrix4x3@@@Z 0043f930 f i rendermodel.obj
 0001:0003eb00       ?genshadowmesh@part@animmodel@@QAEXAAU?$vector@Utriangle@@@@ABUmatrix4x3@@@Z 0043fb00 f i rendermodel.obj
 0001:0003ed10       ?link@part@animmodel@@QAE_NPAU12@PBDABUvec@@HHPAU3@@Z 0043fd10 f i rendermodel.obj
 0001:0003eea0       ?unlink@part@animmodel@@QAE_NPAU12@@Z 0043fea0 f i rendermodel.obj
 0001:0003ef80       ?initskins@part@animmodel@@QAEXPAUTexture@@0H@Z 0043ff80 f i rendermodel.obj
 0001:0003f0d0       ?alphatested@part@animmodel@@QBE_NXZ 004400d0 f i rendermodel.obj
 0001:0003f110       ?getdefaultanim@part@animmodel@@UAEXAAUaniminfo@@HIPAUdynent@@@Z 00440110 f i rendermodel.obj
 0001:0003f130       ?calcanim@part@animmodel@@QAE_NHHHHPAUdynent@@HAAUaniminfo@@AAH@Z 00440130 f i rendermodel.obj
 0001:0003f550       ?intersect@part@animmodel@@QAEXHHHMABUvec@@0PAUdynent@@00PAUanimstate@2@@Z 00440550 f i rendermodel.obj
 0001:0003fd60       ?render@part@animmodel@@QAEXHHHMABUvec@@0PAUdynent@@@Z 00440d60 f i rendermodel.obj
 0001:0003fda0       ?render@part@animmodel@@QAEXHHHMABUvec@@0PAUdynent@@PAUanimstate@2@@Z 00440da0 f i rendermodel.obj
 0001:00040820       ?setanim@part@animmodel@@QAEXHHHHMH@Z 00441820 f i rendermodel.obj
 0001:000409e0       ?loaded@part@animmodel@@UAEXXZ 004419e0 f i rendermodel.obj
 0001:00040b00       ?respawnwait@clientmode@game@@UAEHPAUgameent@@H@Z 00441b00 f i client1.obj
 0001:00040b00       ?write@stream@@UAEIPBXI@Z  00441b00 f i stream.obj
 0001:00040b00       ?linktype@animmodel@@UBEHPAU1@PAUpart@1@@Z 00441b00 f i rendermodel.obj
 0001:00040b00       ?read@stream@@UAEIPAXI@Z   00441b00 f i stream.obj
 0001:00040b10       ?intersect@animmodel@@QAEXHHHMABUvec@@0PAUdynent@@PAUmodelattach@@00@Z 00441b10 f i rendermodel.obj
 0001:00040de0       ?intersect@animmodel@@UAEHHHHABUvec@@MMMPAUdynent@@PAUmodelattach@@M00AAMH@Z 00441de0 f i rendermodel.obj
 0001:00041220       ?render@animmodel@@QAEXHHHMABUvec@@0PAUdynent@@PAUmodelattach@@@Z 00442220 f i rendermodel.obj
 0001:00041530       ?render@animmodel@@UAEXHHHABUvec@@MMMPAUdynent@@PAUmodelattach@@MABUvec4@@@Z 00442530 f i rendermodel.obj
 0001:00041b20       ??0animmodel@@QAE@PBD@Z    00442b20 f i rendermodel.obj
 0001:00041ce0       ??1animmodel@@UAE@XZ       00442ce0 f i rendermodel.obj
 0001:00041d90       ?cleanup@animmodel@@UAEXXZ 00442d90 f i rendermodel.obj
 0001:00041dc0       ?addpart@animmodel@@QAEAAUpart@1@XZ 00442dc0 f i rendermodel.obj
 0001:00041e40       ?initmatrix@animmodel@@QAEXAAUmatrix4x3@@@Z 00442e40 f i rendermodel.obj
 0001:00041f10       ?genBIH@animmodel@@QAEXAAU?$vector@Umesh@BIH@@@@@Z 00442f10 f i rendermodel.obj
 0001:000421a0       ?genshadowmesh@animmodel@@UAEXAAU?$vector@Utriangle@@@@ABUmatrix4x3@@@Z 004431a0 f i rendermodel.obj
 0001:00042480       ?preloadBIH@animmodel@@UAEXXZ 00443480 f i rendermodel.obj
 0001:00042510       ?setBIH@animmodel@@UAEPAUBIH@@XZ 00443510 f i rendermodel.obj
 0001:000425c0       ?envmapped@animmodel@@UBE_NXZ 004435c0 f i rendermodel.obj
 0001:00042620       ?animated@animmodel@@UBE_NXZ 00443620 f i rendermodel.obj
 0001:00042690       ?pitched@animmodel@@UBE_NXZ 00443690 f i rendermodel.obj
 0001:000426b0       ?alphatested@animmodel@@UBE_NXZ 004436b0 f i rendermodel.obj
 0001:00042720       ?hidefrags@servmode@server@@UAE_NXZ 00443720 f i server1.obj
 0001:00042720       ?envmapped@model@@UBE_NXZ  00443720 f i rendermodel.obj
 0001:00042720       ?flipy@animmodel@@UBE_NXZ  00443720 f i rendermodel.obj
 0001:00042720       ?hidefrags@clientmode@game@@UAE_NXZ 00443720 f i client1.obj
 0001:00042720       ?loaddefaultparts@animmodel@@UAE_NXZ 00443720 f i rendermodel.obj
 0001:00042720       ?animated@model@@UBE_NXZ   00443720 f i rendermodel.obj
 0001:00042720       ?alphatested@model@@UBE_NXZ 00443720 f i rendermodel.obj
 0001:00042720       ?allowtextinput@KeyField@UI@@UBE_NXZ 00443720 f i ui.obj
 0001:00042720       ?loadconfig@animmodel@@UAE_NXZ 00443720 f i rendermodel.obj
 0001:00042720       ?childalign@Grid@UI@@UBEEXZ 00443720 f i ui.obj
 0001:00042720       ?skeletal@model@@UBE_NXZ   00443720 f i rendermodel.obj
 0001:00042720       ?loadconfig@md2@@UAE_NXZ   00443720 f i rendermodel.obj
 0001:00042720       ?childalign@Table@UI@@UBEEXZ 00443720 f i ui.obj
 0001:00042720       ?keepable@gameevent@server@@UBE_NXZ 00443720 f i server1.obj
 0001:00042730       ?load@animmodel@@UAE_NXZ   00443730 f i rendermodel.obj
 0001:000427e0       ?preloadshaders@animmodel@@UAEXXZ 004437e0 f i rendermodel.obj
 0001:00042960       ?preloadmeshes@animmodel@@UAEXXZ 00443960 f i rendermodel.obj
 0001:000429a0       ?setshader@animmodel@@UAEXPAUShader@@@Z 004439a0 f i rendermodel.obj
 0001:00042a10       ?setenvmap@animmodel@@UAEXMMPAUTexture@@@Z 00443a10 f i rendermodel.obj
 0001:00042ab0       ?setspec@animmodel@@UAEXM@Z 00443ab0 f i rendermodel.obj
 0001:00042b20       ?setgloss@animmodel@@UAEXH@Z 00443b20 f i rendermodel.obj
 0001:00042b90       ?setglow@animmodel@@UAEXMMM@Z 00443b90 f i rendermodel.obj
 0001:00042c20       ?setalphatest@animmodel@@UAEXM@Z 00443c20 f i rendermodel.obj
 0001:00042c90       ?setdither@animmodel@@UAEX_N@Z 00443c90 f i rendermodel.obj
 0001:00042d10       ?setfullbright@animmodel@@UAEXM@Z 00443d10 f i rendermodel.obj
 0001:00042d80       ?setcullface@animmodel@@UAEXH@Z 00443d80 f i rendermodel.obj
 0001:00042e10       ?setcolor@animmodel@@UAEXABUvec@@@Z 00443e10 f i rendermodel.obj
 0001:00042e90       ?calcbb@animmodel@@UAEXAAUvec@@0@Z 00443e90 f i rendermodel.obj
 0001:00042ff0       ?calctransform@animmodel@@UAEXAAUmatrix4x3@@@Z 00443ff0 f i rendermodel.obj
 0001:00043030       ?loaded@animmodel@@UAEXXZ  00444030 f i rendermodel.obj
 0001:00043060       ?startrender@animmodel@@UAEXXZ 00444060 f i rendermodel.obj
 0001:00043100       ?disablevbo@animmodel@@SAXXZ 00444100 f i rendermodel.obj
 0001:000431c0       ?endrender@animmodel@@UAEXXZ 004441c0 f i rendermodel.obj
 0001:00043200       ??_Emesh@animmodel@@UAEPAXI@Z 00444200 f i * CIL library *:* CIL module *
 0001:00043200       ??_Gmesh@animmodel@@UAEPAXI@Z 00444200 f i rendermodel.obj
 0001:00043270       ??_Gmeshgroup@animmodel@@UAEPAXI@Z 00444270 f i rendermodel.obj
 0001:00043270       ??_Emeshgroup@animmodel@@UAEPAXI@Z 00444270 f i * CIL library *:* CIL module *
 0001:00043290       ??_Gpart@animmodel@@UAEPAXI@Z 00444290 f i rendermodel.obj
 0001:00043290       ??_Epart@animmodel@@UAEPAXI@Z 00444290 f i * CIL library *:* CIL module *
 0001:000432b0       ??_Ganimmodel@@UAEPAXI@Z   004442b0 f i rendermodel.obj
 0001:000432b0       ??_Eanimmodel@@UAEPAXI@Z   004442b0 f i * CIL library *:* CIL module *
 0001:000432e0       ??0vertmesh@vertmodel@@QAE@XZ 004442e0 f i rendermodel.obj
 0001:00043360       ?calctangents@vertmesh@vertmodel@@QAEX_N@Z 00444360 f i rendermodel.obj
 0001:00043380       ?calcbb@vertmesh@vertmodel@@UAEXAAUvec@@0ABUmatrix4x3@@@Z 00444380 f i rendermodel.obj
 0001:00043500       ?genBIH@vertmesh@vertmodel@@UAEXAAUmesh@BIH@@@Z 00444500 f i rendermodel.obj
 0001:00043540       ?genshadowmesh@vertmesh@vertmodel@@UAEXAAU?$vector@Utriangle@@@@ABUmatrix4x3@@@Z 00444540 f i rendermodel.obj
 0001:000439a0       ??0videobuffer@recorder@@QAE@XZ 004449a0 f i movie.obj
 0001:000439a0       ??0tag@vertmodel@@QAE@XZ   004449a0 f i rendermodel.obj
 0001:000439b0       ??1stainbuffer@@QAE@XZ     004449b0 f i stain.obj
 0001:000439b0       ??1soundsample@@QAE@XZ     004449b0 f i sound.obj
 0001:000439b0       ??1boneinfo@skelmodel@@QAE@XZ 004449b0 f i rendermodel.obj
 0001:000439b0       ??1videobuffer@recorder@@QAE@XZ 004449b0 f i movie.obj
 0001:000439b0       ??1tag@vertmodel@@QAE@XZ   004449b0 f i rendermodel.obj
 0001:000439b0       ??1zipfile@@QAE@XZ         004449b0 f i zip.obj
 0001:00043a00       ??0vertmeshgroup@vertmodel@@QAE@XZ 00444a00 f i rendermodel.obj
 0001:00043ae0       ??1vertmeshgroup@vertmodel@@UAE@XZ 00444ae0 f i rendermodel.obj
 0001:00043bc0       ?findtag@vertmeshgroup@vertmodel@@UAEHPBD@Z 00444bc0 f i rendermodel.obj
 0001:00043c20       ?addtag@vertmeshgroup@vertmodel@@QAE_NPBDABUmatrix4x3@@@Z 00444c20 f i rendermodel.obj
 0001:00043ea0       ?animkey@skelmeshgroup@skelmodel@@UAEPAXXZ 00444ea0 f i rendermodel.obj
 0001:00043ea0       ?totalframes@vertmeshgroup@vertmodel@@UBEHXZ 00444ea0 f i rendermodel.obj
 0001:00043eb0       ?concattagtransform@vertmeshgroup@vertmodel@@UAEXPAUpart@animmodel@@HABUmatrix4x3@@AAU5@@Z 00444eb0 f i rendermodel.obj
 0001:00043ed0       ?calctagmatrix@vertmeshgroup@vertmodel@@QAEXPAUpart@animmodel@@HABUanimstate@4@AAUmatrix4@@@Z 00444ed0 f i rendermodel.obj
 0001:000443a0       ?genvbo@vertmeshgroup@vertmodel@@QAEXAAUvbocacheentry@2@@Z 004453a0 f i rendermodel.obj
 0001:00044850       ?bindvbo@vertmeshgroup@vertmodel@@QAEXPBUanimstate@animmodel@@PAUpart@4@AAUvbocacheentry@2@@Z 00445850 f i rendermodel.obj
 0001:00044a70       ?cleanup@vertmeshgroup@vertmodel@@UAEXXZ 00445a70 f i rendermodel.obj
 0001:00044ac0       ?preload@vertmeshgroup@vertmodel@@UAEXPAUpart@animmodel@@@Z 00445ac0 f i rendermodel.obj
 0001:00044ae0       ?render@vertmeshgroup@vertmodel@@UAEXPBUanimstate@animmodel@@MABUvec@@1PAUdynent@@PAUpart@4@@Z 00445ae0 f i rendermodel.obj
 0001:00045610       ?sharemeshes@vertmodel@@QAEPAUmeshgroup@animmodel@@PBDM@Z 00446610 f i rendermodel.obj
 0001:00045680       ??_Evertmesh@vertmodel@@UAEPAXI@Z 00446680 f i * CIL library *:* CIL module *
 0001:00045680       ??_Gvertmesh@vertmodel@@UAEPAXI@Z 00446680 f i rendermodel.obj
 0001:00045740       ??_Gvertmeshgroup@vertmodel@@UAEPAXI@Z 00446740 f i rendermodel.obj
 0001:00045740       ??_Evertmeshgroup@vertmodel@@UAEPAXI@Z 00446740 f i * CIL library *:* CIL module *
 0001:00045770       ??1vertmodel@@UAE@XZ       00446770 f i rendermodel.obj
 0001:00045770       ??1skelmodel@@UAE@XZ       00446770 f i rendermodel.obj
 0001:000457b0       ?sortcmp@blendcombo@skelmodel@@SA_NABU12@0@Z 004467b0 f i rendermodel.obj
 0001:000457f0       ??8animcacheentry@skelmodel@@QBE_NABU01@@Z 004467f0 f i rendermodel.obj
 0001:000458e0       ?nextversion@skelcacheentry@skelmodel@@QAEXXZ 004468e0 f i rendermodel.obj
 0001:00045970       ??1skelmesh@skelmodel@@UAE@XZ 00446970 f i rendermodel.obj
 0001:00045a00       ?calcbb@skelmesh@skelmodel@@UAEXAAUvec@@0ABUmatrix4x3@@@Z 00446a00 f i rendermodel.obj
 0001:00045b80       ?genBIH@skelmesh@skelmodel@@UAEXAAUmesh@BIH@@@Z 00446b80 f i rendermodel.obj
 0001:00045bd0       ?genshadowmesh@skelmesh@skelmodel@@UAEXAAU?$vector@Utriangle@@@@ABUmatrix4x3@@@Z 00446bd0 f i rendermodel.obj
 0001:00046040       ?setshader@skelmesh@skelmodel@@UAEXPAUShader@@H@Z 00447040 f i rendermodel.obj
 0001:000460f0       ??0boneinfo@skelmodel@@QAE@XZ 004470f0 f i rendermodel.obj
 0001:00046160       ??0skeleton@skelmodel@@QAE@XZ 00447160 f i rendermodel.obj
 0001:00046300       ??1skeleton@skelmodel@@QAE@XZ 00447300 f i rendermodel.obj
 0001:00046520       ?findskelanim@skeleton@skelmodel@@QAEPAUskelanimspec@2@PBDD@Z 00447520 f i rendermodel.obj
 0001:00046680       ?addskelanim@skeleton@skelmodel@@QAEAAUskelanimspec@2@PBD@Z 00447680 f i rendermodel.obj
 0001:000467a0       ?findbone@skeleton@skelmodel@@QAEHPBD@Z 004477a0 f i rendermodel.obj
 0001:00046810       ?findtag@skeleton@skelmodel@@QAEHPBD@Z 00447810 f i rendermodel.obj
 0001:00046870       ?addtag@skeleton@skelmodel@@QAE_NPBDHABUmatrix4x3@@@Z 00447870 f i rendermodel.obj
 0001:00046a00       ?calcantipodes@skeleton@skelmodel@@QAEXXZ 00447a00 f i rendermodel.obj
 0001:00046ea0       ?remapbones@skeleton@skelmodel@@QAEXXZ 00447ea0 f i rendermodel.obj
 0001:00047310       ?addpitchdep@skeleton@skelmodel@@QAEXHH@Z 00448310 f i rendermodel.obj
 0001:000474d0       ?findpitchcorrect@skeleton@skelmodel@@QAEHH@Z 004484d0 f i rendermodel.obj
 0001:00047510       ?initpitchdeps@skeleton@skelmodel@@QAEXXZ 00448510 f i rendermodel.obj
 0001:00047ae0       ?expandbonemask@skeleton@skelmodel@@QAEXPAEHH@Z 00448ae0 f i rendermodel.obj
 0001:00047b30       ?applybonemask@skeleton@skelmodel@@QAEXPAGPAEH@Z 00448b30 f i rendermodel.obj
 0001:00047c30       ?linkchildren@skeleton@skelmodel@@QAEXXZ 00448c30 f i rendermodel.obj
 0001:00047c90       ?calcpitchcorrects@skeleton@skelmodel@@QAEXMABUvec@@0@Z 00448c90 f i rendermodel.obj
 0001:00048250       ?interpbones@skeleton@skelmodel@@QAEXPBUanimstate@animmodel@@MABUvec@@1HPBEAAUskelcacheentry@2@@Z 00449250 f i rendermodel.obj
 0001:000492c0       ?initragdoll@skeleton@skelmodel@@QAEXAAUragdolldata@@AAUskelcacheentry@2@PAUpart@animmodel@@@Z 0044a2c0 f i rendermodel.obj
 0001:00049d60       ?genragdollbones@skeleton@skelmodel@@QAEXAAUragdolldata@@AAUskelcacheentry@2@PAUpart@animmodel@@@Z 0044ad60 f i rendermodel.obj
 0001:0004a4c0       ?calctags@skeleton@skelmodel@@QAEXPAUpart@animmodel@@PAUskelcacheentry@2@@Z 0044b4c0 f i rendermodel.obj
 0001:0004ae70       ?cleanup@skeleton@skelmodel@@QAEX_N@Z 0044be70 f i rendermodel.obj
 0001:0004af60       ?checkskelcache@skeleton@skelmodel@@QAEAAUskelcacheentry@2@PAUpart@animmodel@@PBUanimstate@5@MABUvec@@2PAUragdolldata@@@Z 0044bf60 f i rendermodel.obj
 0001:0004b2d0       ?shouldcleanup@skeleton@skelmodel@@QBE_NXZ 0044c2d0 f i rendermodel.obj
 0001:0004b320       ??0skelmeshgroup@skelmodel@@QAE@XZ 0044c320 f i rendermodel.obj
 0001:0004b4b0       ??1skelmeshgroup@skelmodel@@UAE@XZ 0044c4b0 f i rendermodel.obj
 0001:0004b6c0       ?shareskeleton@skelmeshgroup@skelmodel@@QAEXPBD@Z 0044c6c0 f i rendermodel.obj
 0001:0004b930       ?findtag@skelmeshgroup@skelmodel@@UAEHPBD@Z 0044c930 f i rendermodel.obj
 0001:0004b940       ?totalframes@skelmeshgroup@skelmodel@@UBEHXZ 0044c940 f i rendermodel.obj
 0001:0004b960       ?loadanim@skelmeshgroup@skelmodel@@UAEPAUskelanimspec@2@PBD@Z 0044c960 f i rendermodel.obj
 0001:0004b960       ?getteamscore@clientmode@game@@UAEHH@Z 0044c960 f i client1.obj
 0001:0004b960       ?getteamscore@servmode@server@@UAEHH@Z 0044c960 f i server1.obj
 0001:0004b970       ?genvbo@skelmeshgroup@skelmodel@@QAEXAAUvbocacheentry@2@@Z 0044c970 f i rendermodel.obj
 0001:0004c0c0       ?bindvbo@skelmeshgroup@skelmodel@@QAEXPBUanimstate@animmodel@@PAUpart@4@AAUvbocacheentry@2@PAUskelcacheentry@2@PAUblendcacheentry@2@@Z 0044d0c0 f i rendermodel.obj
 0001:0004c480       ?concattagtransform@skelmeshgroup@skelmodel@@UAEXPAUpart@animmodel@@HABUmatrix4x3@@AAU5@@Z 0044d480 f i rendermodel.obj
 0001:0004c4f0       ?addblendcombo@skelmeshgroup@skelmodel@@QAEHABUblendcombo@2@@Z 0044d4f0 f i rendermodel.obj
 0001:0004c690       ?sortblendcombos@skelmeshgroup@skelmodel@@QAEXXZ 0044d690 f i rendermodel.obj
 0001:0004c770       ?blendbones@skelmeshgroup@skelmodel@@QAEXABUskelcacheentry@2@AAUblendcacheentry@2@@Z 0044d770 f i rendermodel.obj
 0001:0004c960       ?cleanup@skelmeshgroup@skelmodel@@UAEXXZ 0044d960 f i rendermodel.obj
 0001:0004cae0       ?intersect@skelmeshgroup@skelmodel@@UAEXPBUanimstate@animmodel@@MABUvec@@1PAUdynent@@PAUpart@4@11@Z 0044dae0 f i rendermodel.obj
 0001:0004cb80       ?preload@skelmeshgroup@skelmodel@@UAEXPAUpart@animmodel@@@Z 0044db80 f i rendermodel.obj
 0001:0004cc30       ?render@skelmeshgroup@skelmodel@@UAEXPBUanimstate@animmodel@@MABUvec@@1PAUdynent@@PAUpart@4@@Z 0044dc30 f i rendermodel.obj
 0001:0004d410       ?sharemeshes@skelmodel@@QAEPAUmeshgroup@animmodel@@PBD0M@Z 0044e410 f i rendermodel.obj
 0001:0004d490       ?initanimparts@skelpart@skelmodel@@QAEXXZ 0044e490 f i rendermodel.obj
 0001:0004d4f0       ?loaded@skelpart@skelmodel@@UAEXXZ 0044e4f0 f i rendermodel.obj
 0001:0004d6f0       ?linktype@skelmodel@@UBEHPAUanimmodel@@PAUpart@2@@Z 0044e6f0 f i rendermodel.obj
 0001:0004d740       ?allowtextinput@TextEditor@UI@@UBE_NXZ 0044e740 f i ui.obj
 0001:0004d740       ?hidefrags@ctfclientmode@game@@UAE_NXZ 0044e740 f i client1.obj
 0001:0004d740       ?hidefrags@ctfservmode@server@@UAE_NXZ 0044e740 f i server1.obj
 0001:0004d740       ?flipy@obj@@UBE_NXZ        0044e740 f i rendermodel.obj
 0001:0004d740       ___acrt_uninitialize_command_line 0044e740 f i libucrt:argv_data.obj
 0001:0004d740       __should_initialize_environment 0044e740 f i LIBCMT:env_mode.obj
 0001:0004d740       ?flipy@md2@@UBE_NXZ        0044e740 f i rendermodel.obj
 0001:0004d740       ?flipy@md3@@UBE_NXZ        0044e740 f i rendermodel.obj
 0001:0004d740       ?keepable@explodeevent@server@@UBE_NXZ 0044e740 f i server1.obj
 0001:0004d740       ?pitched@model@@UBE_NXZ    0044e740 f i rendermodel.obj
 0001:0004d740       ?skeletal@skelmodel@@UBE_NXZ 0044e740 f i rendermodel.obj
 0001:0004d740       ?flush@stream@@UAE_NXZ     0044e740 f i stream.obj
 0001:0004d750       ?addpart@skelmodel@@QAEAAUskelpart@1@XZ 0044e750 f i rendermodel.obj
 0001:0004d7f0       ??_Eskelmesh@skelmodel@@UAEPAXI@Z 0044e7f0 f i * CIL library *:* CIL module *
 0001:0004d7f0       ??_Gskelmesh@skelmodel@@UAEPAXI@Z 0044e7f0 f i rendermodel.obj
 0001:0004d810       ??1?$hashtable@IH@@QAE@XZ  0044e810 f i rendermodel.obj
 0001:0004d850       ??_Eskelmeshgroup@skelmodel@@UAEPAXI@Z 0044e850 f i * CIL library *:* CIL module *
 0001:0004d850       ??_Gskelmeshgroup@skelmodel@@UAEPAXI@Z 0044e850 f i rendermodel.obj
 0001:0004d880       ??_Eskelpart@skelmodel@@UAEPAXI@Z 0044e880 f i * CIL library *:* CIL module *
 0001:0004d880       ??_Gskelpart@skelmodel@@UAEPAXI@Z 0044e880 f i rendermodel.obj
 0001:0004d900       ??1ragdollskel@@QAE@XZ     0044e900 f i rendermodel.obj
 0001:0004da40       ?adjust@skeladjustment@@QAEXAAUdualquat@@@Z 0044ea40 f i rendermodel.obj
 0001:0004dc60       ?intersect@skelbih@@QAEXPAUskelmeshgroup@skelmodel@@PAUskin@animmodel@@ABUvec@@22PAUnode@1@MM@Z 0044ec60 f i rendermodel.obj
 0001:0004e080       ??0skelhitzone@@QAE@XZ     0044f080 f i rendermodel.obj
 0001:0004e0f0       ??1skelhitzone@@QAE@XZ     0044f0f0 f i rendermodel.obj
 0001:0004e170       ?intersect@skelhitzone@@QAEXPAUskelmeshgroup@skelmodel@@PAUskin@animmodel@@PBUdualquat@@2HABUvec@@3@Z 0044f170 f i rendermodel.obj
 0001:0004e5b0       ?addbones@skelzonekey@@QAEXPAUskelmesh@skelmodel@@ABUtri@3@@Z 0044f5b0 f i rendermodel.obj
 0001:0004e790       ?propagate@skelhitdata@@QAEXPAUskelmeshgroup@skelmodel@@PBUdualquat@@PAU4@@Z 0044f790 f i rendermodel.obj
 0001:0004eac0       ?intersect@skelhitdata@@QAEXPAUskelmeshgroup@skelmodel@@PAUskin@animmodel@@PBUdualquat@@PAU6@ABUvec@@4@Z 0044fac0 f i rendermodel.obj
 0001:0004ef70       ??1?$hashset@Uskelzoneinfo@@@@QAE@XZ 0044ff70 f i rendermodel.obj
 0001:0004efb0       __matherr                  0044ffb0 f i LIBCMT:matherr.obj
 0001:0004efb0       ?getcrc@stream@@UAEIXZ     0044ffb0 f i stream.obj
 0001:0004efb0       __get_startup_new_mode     0044ffb0 f i LIBCMT:new_mode.obj
 0001:0004efb0       ___scrt_initialize_winrt   0044ffb0 f i LIBCMT:utility_desktop.obj
 0001:0004efb0       ?setBIH@model@@UAEPAUBIH@@XZ 0044ffb0 f i rendermodel.obj
 0001:0004efb0       ?type@md2@@UBEHXZ          0044ffb0 f i rendermodel.obj
 0001:0004efb0       ___scrt_stub_for_initialize_mta 0044ffb0 f i LIBCMT:utility_desktop.obj
 0001:0004efb0       __get_startup_thread_locale_mode 0044ffb0 f i LIBCMT:thread_locale.obj
 0001:0004efb0       ?type@Slot@@UBEHXZ         0044ffb0 f i texture.obj
 0001:0004efb0       ___scrt_exe_initialize_mta 0044ffb0 f i LIBCMT:utility_desktop.obj
 0001:0004efb0       __get_startup_commit_mode  0044ffb0 f i LIBCMT:commit_mode.obj
 0001:0004efc0       ?linktype@md2@@UBEHPAUanimmodel@@PAUpart@2@@Z 0044ffc0 f i rendermodel.obj
 0001:0004efd0       ?genverts@md2meshgroup@md2@@QAEXPAHAAU?$vector@Utcvert@vertmodel@@@@AAU?$vector@G@@AAU?$vector@Utri@vertmodel@@@@@Z 0044ffd0 f i rendermodel.obj
 0001:0004f4e0       ?load@md2meshgroup@md2@@UAE_NPBDM@Z 004504e0 f i rendermodel.obj
 0001:0004f9c0       ?newmeshes@md2@@UAEPAUvertmeshgroup@vertmodel@@XZ 004509c0 f i rendermodel.obj
 0001:0004fa30       ?loaddefaultparts@md2@@UAE_NXZ 00450a30 f i rendermodel.obj
 0001:0004fbd0       ??_Gmd5@@UAEPAXI@Z         00450bd0 f i rendermodel.obj
 0001:0004fbd0       ??_Eobj@@UAEPAXI@Z         00450bd0 f i * CIL library *:* CIL module *
 0001:0004fbd0       ??_Eiqm@@UAEPAXI@Z         00450bd0 f i * CIL library *:* CIL module *
 0001:0004fbd0       ??_Gmd3@@UAEPAXI@Z         00450bd0 f i rendermodel.obj
 0001:0004fbd0       ??_Giqm@@UAEPAXI@Z         00450bd0 f i rendermodel.obj
 0001:0004fbd0       ??_Gobj@@UAEPAXI@Z         00450bd0 f i rendermodel.obj
 0001:0004fbd0       ??_Gmd2@@UAEPAXI@Z         00450bd0 f i rendermodel.obj
 0001:0004fbd0       ??_Esmd@@UAEPAXI@Z         00450bd0 f i * CIL library *:* CIL module *
 0001:0004fbd0       ??_Emd3@@UAEPAXI@Z         00450bd0 f i * CIL library *:* CIL module *
 0001:0004fbd0       ??_Emd2@@UAEPAXI@Z         00450bd0 f i * CIL library *:* CIL module *
 0001:0004fbd0       ??_Gsmd@@UAEPAXI@Z         00450bd0 f i rendermodel.obj
 0001:0004fbd0       ??_Emd5@@UAEPAXI@Z         00450bd0 f i * CIL library *:* CIL module *
 0001:0004fc30       ??1?$skelloader@Usmd@@@@UAE@XZ 00450c30 f i rendermodel.obj
 0001:0004fc30       ??1?$skelloader@Uiqm@@@@UAE@XZ 00450c30 f i rendermodel.obj
 0001:0004fc30       ??1?$vertloader@Umd2@@@@UAE@XZ 00450c30 f i rendermodel.obj
 0001:0004fc30       ??1?$vertloader@Umd3@@@@UAE@XZ 00450c30 f i rendermodel.obj
 0001:0004fc30       ??1?$skelloader@Umd5@@@@UAE@XZ 00450c30 f i rendermodel.obj
 0001:0004fc30       ??1?$vertloader@Uobj@@@@UAE@XZ 00450c30 f i rendermodel.obj
 0001:0004fc70       ??1?$modelloader@Umd2@@Uvertmodel@@@@UAE@XZ 00450c70 f i rendermodel.obj
 0001:0004fc70       ??1?$modelloader@Umd5@@Uskelmodel@@@@UAE@XZ 00450c70 f i rendermodel.obj
 0001:0004fc70       ??1?$modelloader@Usmd@@Uskelmodel@@@@UAE@XZ 00450c70 f i rendermodel.obj
 0001:0004fc70       ??1?$modelloader@Uiqm@@Uskelmodel@@@@UAE@XZ 00450c70 f i rendermodel.obj
 0001:0004fc70       ??1?$modelloader@Umd3@@Uvertmodel@@@@UAE@XZ 00450c70 f i rendermodel.obj
 0001:0004fc70       ??1?$modelloader@Uobj@@Uvertmodel@@@@UAE@XZ 00450c70 f i rendermodel.obj
 0001:0004fcb0       ??_Emd2meshgroup@md2@@UAEPAXI@Z 00450cb0 f i * CIL library *:* CIL module *
 0001:0004fcb0       ??_Eobjmeshgroup@obj@@UAEPAXI@Z 00450cb0 f i * CIL library *:* CIL module *
 0001:0004fcb0       ??_Gobjmeshgroup@obj@@UAEPAXI@Z 00450cb0 f i rendermodel.obj
 0001:0004fcb0       ??_Gmd2meshgroup@md2@@UAEPAXI@Z 00450cb0 f i rendermodel.obj
 0001:0004fcb0       ??_Emd3meshgroup@md3@@UAEPAXI@Z 00450cb0 f i * CIL library *:* CIL module *
 0001:0004fcb0       ??_Gmd3meshgroup@md3@@UAEPAXI@Z 00450cb0 f i rendermodel.obj
 0001:0004fd10       ?load@md3meshgroup@md3@@UAE_NPBDM@Z 00450d10 f i rendermodel.obj
 0001:000503f0       ?newmeshes@md3@@UAEPAUvertmeshgroup@vertmodel@@XZ 004513f0 f i rendermodel.obj
 0001:00050460       ?loaddefaultparts@md3@@UAE_NXZ 00451460 f i rendermodel.obj
 0001:000505a0       ?type@md5@@UBEHXZ          004515a0 f i rendermodel.obj
 0001:000505a0       ?type@DecalSlot@@UBEHXZ    004515a0 f i texture.obj
 0001:000505b0       ?buildverts@md5mesh@md5@@QAEXAAU?$vector@Umd5joint@@@@@Z 004515b0 f i rendermodel.obj
 0001:00050a50       ?load@md5mesh@md5@@QAEXPAUstream@@PADI@Z 00451a50 f i rendermodel.obj
 0001:00050ec0       ?loadmesh@md5meshgroup@md5@@QAE_NPBDM@Z 00451ec0 f i rendermodel.obj
 0001:00051810       ?loadanim@md5meshgroup@md5@@UAEPAUskelanimspec@skelmodel@@PBD@Z 00452810 f i rendermodel.obj
 0001:000523d0       ?load@md5meshgroup@md5@@UAE_NPBDM@Z 004533d0 f i rendermodel.obj
 0001:00052430       ?newmeshes@md5@@UAEPAUskelmeshgroup@skelmodel@@XZ 00453430 f i rendermodel.obj
 0001:000524a0       ?loaddefaultparts@md5@@UAE_NXZ 004534a0 f i rendermodel.obj
 0001:00052580       ??_Emd5mesh@md5@@UAEPAXI@Z 00453580 f i * CIL library *:* CIL module *
 0001:00052580       ??_Gmd5mesh@md5@@UAEPAXI@Z 00453580 f i rendermodel.obj
 0001:00052610       ??_Giqmmeshgroup@iqm@@UAEPAXI@Z 00453610 f i rendermodel.obj
 0001:00052610       ??_Emd5meshgroup@md5@@UAEPAXI@Z 00453610 f i * CIL library *:* CIL module *
 0001:00052610       ??_Gsmdmeshgroup@smd@@UAEPAXI@Z 00453610 f i rendermodel.obj
 0001:00052610       ??_Esmdmeshgroup@smd@@UAEPAXI@Z 00453610 f i * CIL library *:* CIL module *
 0001:00052610       ??_Eiqmmeshgroup@iqm@@UAEPAXI@Z 00453610 f i * CIL library *:* CIL module *
 0001:00052610       ??_Gmd5meshgroup@md5@@UAEPAXI@Z 00453610 f i rendermodel.obj
 0001:00052670       ?type@obj@@UBEHXZ          00453670 f i rendermodel.obj
 0001:00052680       ?parsevert@objmeshgroup@obj@@QAEXPADAAU?$vector@Uvec@@@@@Z 00453680 f i rendermodel.obj
 0001:00052740       ?load@objmeshgroup@obj@@UAE_NPBDM@Z 00453740 f i rendermodel.obj
 0001:000533e0       ?newmeshes@obj@@UAEPAUvertmeshgroup@vertmodel@@XZ 004543e0 f i rendermodel.obj
 0001:00053450       ?loaddefaultparts@obj@@UAE_NXZ 00454450 f i rendermodel.obj
 0001:00053590       ?type@smd@@UBEHXZ          00454590 f i rendermodel.obj
 0001:000535a0       ?skipsection@smdmeshgroup@smd@@QAEXPAUstream@@PADI@Z 004545a0 f i rendermodel.obj
 0001:00053680       ?readnodes@smdmeshgroup@smd@@QAEXPAUstream@@PADIAAU?$vector@Usmdbone@@@@@Z 00454680 f i rendermodel.obj
 0001:00053970       ?readtriangles@smdmeshgroup@smd@@QAEXPAUstream@@PADI@Z 00454970 f i rendermodel.obj
 0001:00054880       ?readskeleton@smdmeshgroup@smd@@QAEXPAUstream@@PADI@Z 00455880 f i rendermodel.obj
 0001:00054d80       ?loadmesh@smdmeshgroup@smd@@QAE_NPBD@Z 00455d80 f i rendermodel.obj
 0001:00055150       ?readframes@smdmeshgroup@smd@@QAEHPAUstream@@PADIAAU?$vector@Usmdbone@@@@AAU?$vector@Udualquat@@@@@Z 00456150 f i rendermodel.obj
 0001:00055900       ?loadanim@smdmeshgroup@smd@@UAEPAUskelanimspec@skelmodel@@PBD@Z 00456900 f i rendermodel.obj
 0001:00055c90       ?load@smdmeshgroup@smd@@UAE_NPBDM@Z 00456c90 f i rendermodel.obj
 0001:00055ce0       ?newmeshes@smd@@UAEPAUskelmeshgroup@skelmodel@@XZ 00456ce0 f i rendermodel.obj
 0001:00055d50       ?loaddefaultparts@smd@@UAE_NXZ 00456d50 f i rendermodel.obj
 0001:00055e00       ??1?$hashtable@PBDUsmdmeshdata@smdmeshgroup@smd@@@@QAE@XZ 00456e00 f i rendermodel.obj
 0001:00055e40       ??1?$hashset@H@@QAE@XZ     00456e40 f i rendermodel.obj
 0001:00055e80       ??_Esmdmesh@smd@@UAEPAXI@Z 00456e80 f i * CIL library *:* CIL module *
 0001:00055e80       ??_Gsmdmesh@smd@@UAEPAXI@Z 00456e80 f i rendermodel.obj
 0001:00055ed0       ?type@iqm@@UBEHXZ          00456ed0 f i rendermodel.obj
 0001:00055ee0       ?loadiqmmeshes@iqmmeshgroup@iqm@@QAE_NPBDABUiqmheader@@PAE@Z 00456ee0 f i rendermodel.obj
 0001:00056d70       ?loadiqmanims@iqmmeshgroup@iqm@@QAE_NPBDABUiqmheader@@PAE@Z 00457d70 f i rendermodel.obj
 0001:000578b0       ?loadiqm@iqmmeshgroup@iqm@@QAE_NPBD_N1@Z 004588b0 f i rendermodel.obj
 0001:000579e0       ?load@iqmmeshgroup@iqm@@UAE_NPBDM@Z 004589e0 f i rendermodel.obj
 0001:00057a40       ?loadanim@iqmmeshgroup@iqm@@UAEPAUskelanimspec@skelmodel@@PBD@Z 00458a40 f i rendermodel.obj
 0001:00057b00       ?newmeshes@iqm@@UAEPAUskelmeshgroup@skelmodel@@XZ 00458b00 f i rendermodel.obj
 0001:00057b70       ?loaddefaultparts@iqm@@UAE_NXZ 00458b70 f i rendermodel.obj
 0001:00057c20       ?add@?$vector@Ubatchedmodel@@@@QAEAAUbatchedmodel@@XZ 00458c20 f i rendermodel.obj
 0001:00057cf0       ??0?$skelcommands@Uiqm@@@@QAE@XZ 00458cf0 f i rendermodel.obj
 0001:00058060       ?flushpart@?$skelloader@Uiqm@@@@UAEXXZ 00459060 f i rendermodel.obj
 0001:000580b0       ?loadconfig@?$modelloader@Uiqm@@Uskelmodel@@@@UAE_NXZ 004590b0 f i rendermodel.obj
 0001:00058110       ?endload@?$modelloader@Uiqm@@Uskelmodel@@@@UAEXXZ 00459110 f i rendermodel.obj
 0001:00058120       ?startload@?$modelloader@Uiqm@@Uskelmodel@@@@UAEXXZ 00459120 f i rendermodel.obj
 0001:00058130       ??0?$skelcommands@Usmd@@@@QAE@XZ 00459130 f i rendermodel.obj
 0001:000584a0       ??1?$hashbase@U?$hashtable@PBDUsmdmeshdata@smdmeshgroup@smd@@@@U?$hashtableentry@PBDUsmdmeshdata@smdmeshgroup@smd@@@@PBDUsmdmeshdata@smdmeshgroup@smd@@@@QAE@XZ 004594a0 f i rendermodel.obj
 0001:00058530       ?inrange@?$vector@Usmdbone@@@@QBE_NH@Z 00459530 f i rendermodel.obj
 0001:00058550       ?flushpart@?$skelloader@Usmd@@@@UAEXXZ 00459550 f i rendermodel.obj
 0001:000585a0       ?loadconfig@?$modelloader@Usmd@@Uskelmodel@@@@UAE_NXZ 004595a0 f i rendermodel.obj
 0001:00058600       ?endload@?$modelloader@Usmd@@Uskelmodel@@@@UAEXXZ 00459600 f i rendermodel.obj
 0001:00058610       ?startload@?$modelloader@Usmd@@Uskelmodel@@@@UAEXXZ 00459610 f i rendermodel.obj
 0001:00058620       ?loadconfig@?$modelloader@Uobj@@Uvertmodel@@@@UAE_NXZ 00459620 f i rendermodel.obj
 0001:00058680       ?endload@?$modelloader@Uobj@@Uvertmodel@@@@UAEXXZ 00459680 f i rendermodel.obj
 0001:00058690       ?startload@?$modelloader@Uobj@@Uvertmodel@@@@UAEXXZ 00459690 f i rendermodel.obj
 0001:000586a0       ??0?$skelcommands@Umd5@@@@QAE@XZ 004596a0 f i rendermodel.obj
 0001:00058a10       ?flushpart@?$skelloader@Umd5@@@@UAEXXZ 00459a10 f i rendermodel.obj
 0001:00058a60       ?loadconfig@?$modelloader@Umd5@@Uskelmodel@@@@UAE_NXZ 00459a60 f i rendermodel.obj
 0001:00058ac0       ?endload@?$modelloader@Umd5@@Uskelmodel@@@@UAEXXZ 00459ac0 f i rendermodel.obj
 0001:00058ad0       ?startload@?$modelloader@Umd5@@Uskelmodel@@@@UAEXXZ 00459ad0 f i rendermodel.obj
 0001:00058ae0       ?loadconfig@?$modelloader@Umd3@@Uvertmodel@@@@UAE_NXZ 00459ae0 f i rendermodel.obj
 0001:00058b40       ?endload@?$modelloader@Umd3@@Uvertmodel@@@@UAEXXZ 00459b40 f i rendermodel.obj
 0001:00058b50       ?startload@?$modelloader@Umd3@@Uvertmodel@@@@UAEXXZ 00459b50 f i rendermodel.obj
 0001:00058b60       ?add@?$vector@Utri@vertmodel@@@@QAEAAUtri@vertmodel@@XZ 00459b60 f i rendermodel.obj
 0001:00058c10       ?endload@?$modelloader@Umd2@@Uvertmodel@@@@UAEXXZ 00459c10 f i rendermodel.obj
 0001:00058c20       ?startload@?$modelloader@Umd2@@Uvertmodel@@@@UAEXXZ 00459c20 f i rendermodel.obj
 0001:00058c30       ??1?$hashbase@U?$hashset@Uskelzoneinfo@@@@Uskelzoneinfo@@U2@U2@@@QAE@XZ 00459c30 f i rendermodel.obj
 0001:00058cc0       ??1?$hashbase@U?$hashtable@PBDH@@U?$hashtableentry@PBDH@@PBDH@@QAE@XZ 00459cc0 f i shader.obj
 0001:00058cc0       ??1?$hashbase@U?$hashtable@IH@@U?$hashtableentry@IH@@IH@@QAE@XZ 00459cc0 f i rendermodel.obj
 0001:00058cc0       ??1?$hashbase@U?$hashtable@PADPAUfilesval@@@@U?$hashtableentry@PADPAUfilesval@@@@PADPAUfilesval@@@@QAE@XZ 00459cc0 f i console.obj
 0001:00058d40       ??1?$vector@Utag@skelmodel@@@@QAE@XZ 00459d40 f i rendermodel.obj
 0001:00058dc0       ??1?$vector@Uskelanimspec@skelmodel@@@@QAE@XZ 00459dc0 f i rendermodel.obj
 0001:00058e30       ??1?$hashbase@U?$hashtable@Ushaderparams@animmodel@@Ushaderparamskey@2@@@U?$hashtableentry@Ushaderparams@animmodel@@Ushaderparamskey@2@@@Ushaderparams@animmodel@@Ushaderparamskey@4@@@QAE@XZ 00459e30 f i rendermodel.obj
 0001:00058eb0       ?sethitzone@?$skelcommands@Uiqm@@@@SAXPAHPAD@Z 00459eb0 f i rendermodel.obj
 0001:00059150       ?setadjust@?$skelcommands@Uiqm@@@@SAXPADPAM11111@Z 0045a150 f i rendermodel.obj
 0001:00059290       ?setanimpart@?$skelcommands@Uiqm@@@@SAXPAD@Z 0045a290 f i rendermodel.obj
 0001:000594b0       ?setanim@?$skelcommands@Uiqm@@@@SAXPAD0PAMPAH22@Z 0045a4b0 f i rendermodel.obj
 0001:000596b0       ?setpitchcorrect@?$skelcommands@Uiqm@@@@SAXPAD0PAM11@Z 0045a6b0 f i rendermodel.obj
 0001:00059830       ?setpitchtarget@?$skelcommands@Uiqm@@@@SAXPAD0PAHPAM2@Z 0045a830 f i rendermodel.obj
 0001:00059990       ?setpitch@?$skelcommands@Uiqm@@@@SAXPADPAM111@Z 0045a990 f i rendermodel.obj
 0001:00059b40       ?settag@?$skelcommands@Uiqm@@@@SAXPAD0PAM11111@Z 0045ab40 f i rendermodel.obj
 0001:00059dc0       ?loadpart@?$skelcommands@Uiqm@@@@SAXPAD0PAM@Z 0045adc0 f i rendermodel.obj
 0001:00059ef0       ??0?$modelcommands@Uiqm@@Uskelmesh@skelmodel@@@@QAE@XZ 0045aef0 f i rendermodel.obj
 0001:0005a140       ?sethitzone@?$skelcommands@Usmd@@@@SAXPAHPAD@Z 0045b140 f i rendermodel.obj
 0001:0005a3e0       ?setadjust@?$skelcommands@Usmd@@@@SAXPADPAM11111@Z 0045b3e0 f i rendermodel.obj
 0001:0005a520       ?setanimpart@?$skelcommands@Usmd@@@@SAXPAD@Z 0045b520 f i rendermodel.obj
 0001:0005a740       ?setanim@?$skelcommands@Usmd@@@@SAXPAD0PAMPAH22@Z 0045b740 f i rendermodel.obj
 0001:0005a940       ?setpitchcorrect@?$skelcommands@Usmd@@@@SAXPAD0PAM11@Z 0045b940 f i rendermodel.obj
 0001:0005aac0       ?setpitchtarget@?$skelcommands@Usmd@@@@SAXPAD0PAHPAM2@Z 0045bac0 f i rendermodel.obj
 0001:0005ac20       ?setpitch@?$skelcommands@Usmd@@@@SAXPADPAM111@Z 0045bc20 f i rendermodel.obj
 0001:0005add0       ?settag@?$skelcommands@Usmd@@@@SAXPAD0PAM11111@Z 0045bdd0 f i rendermodel.obj
 0001:0005b050       ?loadpart@?$skelcommands@Usmd@@@@SAXPAD0PAM@Z 0045c050 f i rendermodel.obj
 0001:0005b180       ??0?$modelcommands@Usmd@@Uskelmesh@skelmodel@@@@QAE@XZ 0045c180 f i rendermodel.obj
 0001:0005b3d0       ?setpitch@?$vertcommands@Uobj@@@@SAXPAM000@Z 0045c3d0 f i rendermodel.obj
 0001:0005b490       ?settag@?$vertcommands@Uobj@@@@SAXPADPAM11111@Z 0045c490 f i rendermodel.obj
 0001:0005b700       ?loadpart@?$vertcommands@Uobj@@@@SAXPADPAM@Z 0045c700 f i rendermodel.obj
 0001:0005b810       ??0?$modelcommands@Uobj@@Uvertmesh@vertmodel@@@@QAE@XZ 0045c810 f i rendermodel.obj
 0001:0005ba60       ?sethitzone@?$skelcommands@Umd5@@@@SAXPAHPAD@Z 0045ca60 f i rendermodel.obj
 0001:0005bd00       ?setadjust@?$skelcommands@Umd5@@@@SAXPADPAM11111@Z 0045cd00 f i rendermodel.obj
 0001:0005be40       ?setanimpart@?$skelcommands@Umd5@@@@SAXPAD@Z 0045ce40 f i rendermodel.obj
 0001:0005c060       ?setanim@?$skelcommands@Umd5@@@@SAXPAD0PAMPAH22@Z 0045d060 f i rendermodel.obj
 0001:0005c260       ?setpitchcorrect@?$skelcommands@Umd5@@@@SAXPAD0PAM11@Z 0045d260 f i rendermodel.obj
 0001:0005c3e0       ?setpitchtarget@?$skelcommands@Umd5@@@@SAXPAD0PAHPAM2@Z 0045d3e0 f i rendermodel.obj
 0001:0005c540       ?setpitch@?$skelcommands@Umd5@@@@SAXPADPAM111@Z 0045d540 f i rendermodel.obj
 0001:0005c6f0       ?settag@?$skelcommands@Umd5@@@@SAXPAD0PAM11111@Z 0045d6f0 f i rendermodel.obj
 0001:0005c970       ?loadpart@?$skelcommands@Umd5@@@@SAXPAD0PAM@Z 0045d970 f i rendermodel.obj
 0001:0005caa0       ??0?$modelcommands@Umd5@@Uskelmesh@skelmodel@@@@QAE@XZ 0045daa0 f i rendermodel.obj
 0001:0005ccf0       ?setanim@?$vertcommands@Umd3@@@@SAXPADPAH1PAM1@Z 0045dcf0 f i rendermodel.obj
 0001:0005ce10       ?setpitch@?$vertcommands@Umd3@@@@SAXPAM000@Z 0045de10 f i rendermodel.obj
 0001:0005ced0       ?settag@?$vertcommands@Umd3@@@@SAXPADPAM11111@Z 0045ded0 f i rendermodel.obj
 0001:0005d140       ?loadpart@?$vertcommands@Umd3@@@@SAXPADPAM@Z 0045e140 f i rendermodel.obj
 0001:0005d250       ??0?$modelcommands@Umd3@@Uvertmesh@vertmodel@@@@QAE@XZ 0045e250 f i rendermodel.obj
 0001:0005d4a0       ?setanim@?$vertcommands@Umd2@@@@SAXPADPAH1PAM1@Z 0045e4a0 f i rendermodel.obj
 0001:0005d5c0       ?setpitch@?$vertcommands@Umd2@@@@SAXPAM000@Z 0045e5c0 f i rendermodel.obj
 0001:0005d680       ?settag@?$vertcommands@Umd2@@@@SAXPADPAM11111@Z 0045e680 f i rendermodel.obj
 0001:0005d8f0       ?deletechunks@?$hashbase@U?$hashtable@Uivec@@H@@U?$hashtableentry@Uivec@@H@@Uivec@@H@@QAEXXZ 0045e8f0 f i rendermodel.obj
 0001:0005d930       ?growbuf@?$vector@UAttribLoc@@@@QAEXH@Z 0045e930 f i shader.obj
 0001:0005d930       ?growbuf@?$vector@Utri@skelbih@@@@QAEXH@Z 0045e930 f i rendermodel.obj
 0001:0005d9c0       ?growbuf@?$vector@Umesh@BIH@@@@QAEXH@Z 0045e9c0 f i rendermodel.obj
 0001:0005da50       ??1chain@?$hashbase@U?$hashtable@PBDUsmdmeshdata@smdmeshgroup@smd@@@@U?$hashtableentry@PBDUsmdmeshdata@smdmeshgroup@smd@@@@PBDUsmdmeshdata@smdmeshgroup@smd@@@@QAE@XZ 0045ea50 f i rendermodel.obj
 0001:0005daa0       ??1chain@?$hashbase@U?$hashset@Uskelzoneinfo@@@@Uskelzoneinfo@@U2@U2@@@QAE@XZ 0045eaa0 f i rendermodel.obj
 0001:0005dae0       ??1?$hashtableentry@PBDUsmdmeshdata@smdmeshgroup@smd@@@@QAE@XZ 0045eae0 f i rendermodel.obj
 0001:0005db20       ??1skelzoneinfo@@QAE@XZ    0045eb20 f i rendermodel.obj
 0001:0005dba0       ??1smdmeshdata@smdmeshgroup@smd@@QAE@XZ 0045eba0 f i rendermodel.obj
 0001:0005dc20       ?deletearrays@?$vector@PAD@@QAEXH@Z 0045ec20 f i rendermodel.obj
 0001:0005dc60       ?setlink@?$modelcommands@Uiqm@@Uskelmesh@skelmodel@@@@SAXPAH0PADPAM22@Z 0045ec60 f i rendermodel.obj
 0001:0005dd30       ?settricollide@?$modelcommands@Uiqm@@Uskelmesh@skelmodel@@@@SAXPAD@Z 0045ed30 f i rendermodel.obj
 0001:0005dec0       ?setnoclip@?$modelcommands@Uiqm@@Uskelmesh@skelmodel@@@@SAXPADPAH@Z 0045eec0 f i rendermodel.obj
 0001:0005dfc0       ?setscroll@?$modelcommands@Uiqm@@Uskelmesh@skelmodel@@@@SAXPADPAM1@Z 0045efc0 f i rendermodel.obj
 0001:0005e0d0       ?setshader@?$modelcommands@Uiqm@@Uskelmesh@skelmodel@@@@SAXPAD0@Z 0045f0d0 f i rendermodel.obj
 0001:0005e1d0       ?setfullbright@?$modelcommands@Uiqm@@Uskelmesh@skelmodel@@@@SAXPADPAM@Z 0045f1d0 f i rendermodel.obj
 0001:0005e2e0       ?setdecal@?$modelcommands@Uiqm@@Uskelmesh@skelmodel@@@@SAXPAD0@Z 0045f2e0 f i rendermodel.obj
 0001:0005e410       ?setbumpmap@?$modelcommands@Uiqm@@Uskelmesh@skelmodel@@@@SAXPAD0@Z 0045f410 f i rendermodel.obj
 0001:0005e540       ?setenvmap@?$modelcommands@Uiqm@@Uskelmesh@skelmodel@@@@SAXPAD0@Z 0045f540 f i rendermodel.obj
 0001:0005e660       ?setcolor@?$modelcommands@Uiqm@@Uskelmesh@skelmodel@@@@SAXPADPAM11@Z 0045f660 f i rendermodel.obj
 0001:0005e790       ?setcullface@?$modelcommands@Uiqm@@Uskelmesh@skelmodel@@@@SAXPADPAH@Z 0045f790 f i rendermodel.obj
 0001:0005e8b0       ?setdither@?$modelcommands@Uiqm@@Uskelmesh@skelmodel@@@@SAXPADPAH@Z 0045f8b0 f i rendermodel.obj
 0001:0005e9c0       ?setalphatest@?$modelcommands@Uiqm@@Uskelmesh@skelmodel@@@@SAXPADPAM@Z 0045f9c0 f i rendermodel.obj
 0001:0005ead0       ?setglow@?$modelcommands@Uiqm@@Uskelmesh@skelmodel@@@@SAXPADPAM11@Z 0045fad0 f i rendermodel.obj
 0001:0005ec30       ?setgloss@?$modelcommands@Uiqm@@Uskelmesh@skelmodel@@@@SAXPADPAH@Z 0045fc30 f i rendermodel.obj
 0001:0005ed50       ?setspec@?$modelcommands@Uiqm@@Uskelmesh@skelmodel@@@@SAXPADPAM@Z 0045fd50 f i rendermodel.obj
 0001:0005ee60       ?setskin@?$modelcommands@Uiqm@@Uskelmesh@skelmodel@@@@SAXPAD00PAM1@Z 0045fe60 f i rendermodel.obj
 0001:0005efc0       ?setdir@?$modelcommands@Uiqm@@Uskelmesh@skelmodel@@@@SAXPAD@Z 0045ffc0 f i rendermodel.obj
 0001:0005f000       ?setlink@?$modelcommands@Usmd@@Uskelmesh@skelmodel@@@@SAXPAH0PADPAM22@Z 00460000 f i rendermodel.obj
 0001:0005f0d0       ?settricollide@?$modelcommands@Usmd@@Uskelmesh@skelmodel@@@@SAXPAD@Z 004600d0 f i rendermodel.obj
 0001:0005f260       ?setnoclip@?$modelcommands@Usmd@@Uskelmesh@skelmodel@@@@SAXPADPAH@Z 00460260 f i rendermodel.obj
 0001:0005f360       ?setscroll@?$modelcommands@Usmd@@Uskelmesh@skelmodel@@@@SAXPADPAM1@Z 00460360 f i rendermodel.obj
 0001:0005f470       ?setshader@?$modelcommands@Usmd@@Uskelmesh@skelmodel@@@@SAXPAD0@Z 00460470 f i rendermodel.obj
 0001:0005f570       ?setfullbright@?$modelcommands@Usmd@@Uskelmesh@skelmodel@@@@SAXPADPAM@Z 00460570 f i rendermodel.obj
 0001:0005f680       ?setdecal@?$modelcommands@Usmd@@Uskelmesh@skelmodel@@@@SAXPAD0@Z 00460680 f i rendermodel.obj
 0001:0005f7b0       ?setbumpmap@?$modelcommands@Usmd@@Uskelmesh@skelmodel@@@@SAXPAD0@Z 004607b0 f i rendermodel.obj
 0001:0005f8e0       ?setenvmap@?$modelcommands@Usmd@@Uskelmesh@skelmodel@@@@SAXPAD0@Z 004608e0 f i rendermodel.obj
 0001:0005fa00       ?setcolor@?$modelcommands@Usmd@@Uskelmesh@skelmodel@@@@SAXPADPAM11@Z 00460a00 f i rendermodel.obj
 0001:0005fb30       ?setcullface@?$modelcommands@Usmd@@Uskelmesh@skelmodel@@@@SAXPADPAH@Z 00460b30 f i rendermodel.obj
 0001:0005fc50       ?setdither@?$modelcommands@Usmd@@Uskelmesh@skelmodel@@@@SAXPADPAH@Z 00460c50 f i rendermodel.obj
 0001:0005fd60       ?setalphatest@?$modelcommands@Usmd@@Uskelmesh@skelmodel@@@@SAXPADPAM@Z 00460d60 f i rendermodel.obj
 0001:0005fe70       ?setglow@?$modelcommands@Usmd@@Uskelmesh@skelmodel@@@@SAXPADPAM11@Z 00460e70 f i rendermodel.obj
 0001:0005ffd0       ?setgloss@?$modelcommands@Usmd@@Uskelmesh@skelmodel@@@@SAXPADPAH@Z 00460fd0 f i rendermodel.obj
 0001:000600f0       ?setspec@?$modelcommands@Usmd@@Uskelmesh@skelmodel@@@@SAXPADPAM@Z 004610f0 f i rendermodel.obj
 0001:00060200       ?setskin@?$modelcommands@Usmd@@Uskelmesh@skelmodel@@@@SAXPAD00PAM1@Z 00461200 f i rendermodel.obj
 0001:00060360       ?setdir@?$modelcommands@Usmd@@Uskelmesh@skelmodel@@@@SAXPAD@Z 00461360 f i rendermodel.obj
 0001:000603a0       ?setlink@?$modelcommands@Uobj@@Uvertmesh@vertmodel@@@@SAXPAH0PADPAM22@Z 004613a0 f i rendermodel.obj
 0001:00060470       ?settricollide@?$modelcommands@Uobj@@Uvertmesh@vertmodel@@@@SAXPAD@Z 00461470 f i rendermodel.obj
 0001:00060600       ?setnoclip@?$modelcommands@Uobj@@Uvertmesh@vertmodel@@@@SAXPADPAH@Z 00461600 f i rendermodel.obj
 0001:00060700       ?setscroll@?$modelcommands@Uobj@@Uvertmesh@vertmodel@@@@SAXPADPAM1@Z 00461700 f i rendermodel.obj
 0001:00060810       ?setshader@?$modelcommands@Uobj@@Uvertmesh@vertmodel@@@@SAXPAD0@Z 00461810 f i rendermodel.obj
 0001:00060910       ?setfullbright@?$modelcommands@Uobj@@Uvertmesh@vertmodel@@@@SAXPADPAM@Z 00461910 f i rendermodel.obj
 0001:00060a20       ?setdecal@?$modelcommands@Uobj@@Uvertmesh@vertmodel@@@@SAXPAD0@Z 00461a20 f i rendermodel.obj
 0001:00060b50       ?setbumpmap@?$modelcommands@Uobj@@Uvertmesh@vertmodel@@@@SAXPAD0@Z 00461b50 f i rendermodel.obj
 0001:00060c80       ?setenvmap@?$modelcommands@Uobj@@Uvertmesh@vertmodel@@@@SAXPAD0@Z 00461c80 f i rendermodel.obj
 0001:00060da0       ?setcolor@?$modelcommands@Uobj@@Uvertmesh@vertmodel@@@@SAXPADPAM11@Z 00461da0 f i rendermodel.obj
 0001:00060ed0       ?setcullface@?$modelcommands@Uobj@@Uvertmesh@vertmodel@@@@SAXPADPAH@Z 00461ed0 f i rendermodel.obj
 0001:00060ff0       ?setdither@?$modelcommands@Uobj@@Uvertmesh@vertmodel@@@@SAXPADPAH@Z 00461ff0 f i rendermodel.obj
 0001:00061100       ?setalphatest@?$modelcommands@Uobj@@Uvertmesh@vertmodel@@@@SAXPADPAM@Z 00462100 f i rendermodel.obj
 0001:00061210       ?setglow@?$modelcommands@Uobj@@Uvertmesh@vertmodel@@@@SAXPADPAM11@Z 00462210 f i rendermodel.obj
 0001:00061370       ?setgloss@?$modelcommands@Uobj@@Uvertmesh@vertmodel@@@@SAXPADPAH@Z 00462370 f i rendermodel.obj
 0001:00061490       ?setspec@?$modelcommands@Uobj@@Uvertmesh@vertmodel@@@@SAXPADPAM@Z 00462490 f i rendermodel.obj
 0001:000615a0       ?setskin@?$modelcommands@Uobj@@Uvertmesh@vertmodel@@@@SAXPAD00PAM1@Z 004625a0 f i rendermodel.obj
 0001:00061700       ?setdir@?$modelcommands@Uobj@@Uvertmesh@vertmodel@@@@SAXPAD@Z 00462700 f i rendermodel.obj
 0001:00061740       ?setlink@?$modelcommands@Umd5@@Uskelmesh@skelmodel@@@@SAXPAH0PADPAM22@Z 00462740 f i rendermodel.obj
 0001:00061810       ?settricollide@?$modelcommands@Umd5@@Uskelmesh@skelmodel@@@@SAXPAD@Z 00462810 f i rendermodel.obj
 0001:000619a0       ?setnoclip@?$modelcommands@Umd5@@Uskelmesh@skelmodel@@@@SAXPADPAH@Z 004629a0 f i rendermodel.obj
 0001:00061aa0       ?setscroll@?$modelcommands@Umd5@@Uskelmesh@skelmodel@@@@SAXPADPAM1@Z 00462aa0 f i rendermodel.obj
 0001:00061bb0       ?setshader@?$modelcommands@Umd5@@Uskelmesh@skelmodel@@@@SAXPAD0@Z 00462bb0 f i rendermodel.obj
 0001:00061cb0       ?setfullbright@?$modelcommands@Umd5@@Uskelmesh@skelmodel@@@@SAXPADPAM@Z 00462cb0 f i rendermodel.obj
 0001:00061dc0       ?setdecal@?$modelcommands@Umd5@@Uskelmesh@skelmodel@@@@SAXPAD0@Z 00462dc0 f i rendermodel.obj
 0001:00061f00       ?setbumpmap@?$modelcommands@Umd5@@Uskelmesh@skelmodel@@@@SAXPAD0@Z 00462f00 f i rendermodel.obj
 0001:00062030       ?setenvmap@?$modelcommands@Umd5@@Uskelmesh@skelmodel@@@@SAXPAD0@Z 00463030 f i rendermodel.obj
 0001:00062150       ?setcolor@?$modelcommands@Umd5@@Uskelmesh@skelmodel@@@@SAXPADPAM11@Z 00463150 f i rendermodel.obj
 0001:00062280       ?setcullface@?$modelcommands@Umd5@@Uskelmesh@skelmodel@@@@SAXPADPAH@Z 00463280 f i rendermodel.obj
 0001:000623a0       ?setdither@?$modelcommands@Umd5@@Uskelmesh@skelmodel@@@@SAXPADPAH@Z 004633a0 f i rendermodel.obj
 0001:000624b0       ?setalphatest@?$modelcommands@Umd5@@Uskelmesh@skelmodel@@@@SAXPADPAM@Z 004634b0 f i rendermodel.obj
 0001:000625c0       ?setglow@?$modelcommands@Umd5@@Uskelmesh@skelmodel@@@@SAXPADPAM11@Z 004635c0 f i rendermodel.obj
 0001:00062720       ?setgloss@?$modelcommands@Umd5@@Uskelmesh@skelmodel@@@@SAXPADPAH@Z 00463720 f i rendermodel.obj
 0001:00062840       ?setspec@?$modelcommands@Umd5@@Uskelmesh@skelmodel@@@@SAXPADPAM@Z 00463840 f i rendermodel.obj
 0001:00062950       ?setskin@?$modelcommands@Umd5@@Uskelmesh@skelmodel@@@@SAXPAD00PAM1@Z 00463950 f i rendermodel.obj
 0001:00062ab0       ?setdir@?$modelcommands@Umd5@@Uskelmesh@skelmodel@@@@SAXPAD@Z 00463ab0 f i rendermodel.obj
 0001:00062af0       ?setlink@?$modelcommands@Umd3@@Uvertmesh@vertmodel@@@@SAXPAH0PADPAM22@Z 00463af0 f i rendermodel.obj
 0001:00062bc0       ?settricollide@?$modelcommands@Umd3@@Uvertmesh@vertmodel@@@@SAXPAD@Z 00463bc0 f i rendermodel.obj
 0001:00062d50       ?setnoclip@?$modelcommands@Umd3@@Uvertmesh@vertmodel@@@@SAXPADPAH@Z 00463d50 f i rendermodel.obj
 0001:00062e50       ?setscroll@?$modelcommands@Umd3@@Uvertmesh@vertmodel@@@@SAXPADPAM1@Z 00463e50 f i rendermodel.obj
 0001:00062f60       ?setshader@?$modelcommands@Umd3@@Uvertmesh@vertmodel@@@@SAXPAD0@Z 00463f60 f i rendermodel.obj
 0001:00063060       ?setfullbright@?$modelcommands@Umd3@@Uvertmesh@vertmodel@@@@SAXPADPAM@Z 00464060 f i rendermodel.obj
 0001:00063170       ?setdecal@?$modelcommands@Umd3@@Uvertmesh@vertmodel@@@@SAXPAD0@Z 00464170 f i rendermodel.obj
 0001:000632a0       ?setbumpmap@?$modelcommands@Umd3@@Uvertmesh@vertmodel@@@@SAXPAD0@Z 004642a0 f i rendermodel.obj
 0001:000633d0       ?setenvmap@?$modelcommands@Umd3@@Uvertmesh@vertmodel@@@@SAXPAD0@Z 004643d0 f i rendermodel.obj
 0001:000634f0       ?setcolor@?$modelcommands@Umd3@@Uvertmesh@vertmodel@@@@SAXPADPAM11@Z 004644f0 f i rendermodel.obj
 0001:00063620       ?setcullface@?$modelcommands@Umd3@@Uvertmesh@vertmodel@@@@SAXPADPAH@Z 00464620 f i rendermodel.obj
 0001:00063740       ?setdither@?$modelcommands@Umd3@@Uvertmesh@vertmodel@@@@SAXPADPAH@Z 00464740 f i rendermodel.obj
 0001:00063850       ?setalphatest@?$modelcommands@Umd3@@Uvertmesh@vertmodel@@@@SAXPADPAM@Z 00464850 f i rendermodel.obj
 0001:00063960       ?setglow@?$modelcommands@Umd3@@Uvertmesh@vertmodel@@@@SAXPADPAM11@Z 00464960 f i rendermodel.obj
 0001:00063ac0       ?setgloss@?$modelcommands@Umd3@@Uvertmesh@vertmodel@@@@SAXPADPAH@Z 00464ac0 f i rendermodel.obj
 0001:00063be0       ?setspec@?$modelcommands@Umd3@@Uvertmesh@vertmodel@@@@SAXPADPAM@Z 00464be0 f i rendermodel.obj
 0001:00063cf0       ?setskin@?$modelcommands@Umd3@@Uvertmesh@vertmodel@@@@SAXPAD00PAM1@Z 00464cf0 f i rendermodel.obj
 0001:00063e50       ?setdir@?$modelcommands@Umd3@@Uvertmesh@vertmodel@@@@SAXPAD@Z 00464e50 f i rendermodel.obj
 0001:00063e90       ?setdir@?$modelcommands@Umd2@@Uvertmesh@vertmodel@@@@SAXPAD@Z 00464e90 f i rendermodel.obj
 0001:00063ed0       ?add@?$vector@Uskeladjustment@@@@QAEAAUskeladjustment@@ABU2@@Z 00464ed0 f i rendermodel.obj
 0001:00063fa0       ?insert@?$vector@Upitchcorrect@skelmodel@@@@QAEAAUpitchcorrect@skelmodel@@HABU23@@Z 00464fa0 f i rendermodel.obj
 0001:000640c0       ?add@?$vector@Upitchtarget@skelmodel@@@@QAEAAUpitchtarget@skelmodel@@XZ 004650c0 f i rendermodel.obj
 0001:00064180       ??$smoothnorms@Uvert@vertmodel@@Utri@2@@mesh@animmodel@@QAEXPAUvert@vertmodel@@HPAUtri@3@HM_N@Z 00465180 f i rendermodel.obj
 0001:00064670       ??$buildnorms@Uvert@vertmodel@@Utri@2@@mesh@animmodel@@QAEXPAUvert@vertmodel@@HPAUtri@3@H_NH@Z 00465670 f i rendermodel.obj
 0001:000648d0       ??$calctangents@Uvert@vertmodel@@Utcvert@2@Utri@2@@mesh@animmodel@@QAEXPAUvert@vertmodel@@PAUtcvert@3@HPAUtri@3@H_NH@Z 004658d0 f i rendermodel.obj
 0001:00065020       ??$genvbo@Uvvertg@vertmodel@@@vertmesh@vertmodel@@QAEHAAU?$vector@G@@HAAU?$vector@Uvvertg@vertmodel@@@@PAHH@Z 00466020 f i rendermodel.obj
 0001:00065590       ??$access@PBD@?$hashbase@U?$hashnameset@PAUmeshgroup@animmodel@@@@PAUmeshgroup@animmodel@@PBDPAU23@@@QAEPAPAUmeshgroup@animmodel@@ABQBD@Z 00466590 f i rendermodel.obj
 0001:00065620       ??$add@PAUmeshgroup@animmodel@@@?$hashnameset@PAUmeshgroup@animmodel@@@@QAEAAPAUmeshgroup@animmodel@@ABQAU12@@Z 00466620 f i rendermodel.obj
 0001:000656c0       ??$?APBD@?$hashbase@U?$hashnameset@PAUmeshgroup@animmodel@@@@PAUmeshgroup@animmodel@@PBDPAU23@@@QAEAAPAUmeshgroup@animmodel@@ABQBD@Z 004666c0 f i rendermodel.obj
 0001:00065750       ??$smoothnorms@Uvert@skelmodel@@Utri@2@@mesh@animmodel@@QAEXPAUvert@skelmodel@@HPAUtri@3@HM_N@Z 00466750 f i rendermodel.obj
 0001:00065c50       ??$buildnorms@Uvert@skelmodel@@Utri@2@@mesh@animmodel@@QAEXPAUvert@skelmodel@@HPAUtri@3@H_N@Z 00466c50 f i rendermodel.obj
 0001:00065e90       ??$calctangents@Uvert@skelmodel@@U12@Utri@2@@mesh@animmodel@@QAEXPAUvert@skelmodel@@0HPAUtri@3@H_N@Z 00466e90 f i rendermodel.obj
 0001:000665a0       ??$serialize@Uvvertgw@skelmodel@@@blendcombo@skelmodel@@QAEXAAUvvertgw@1@@Z 004675a0 f i rendermodel.obj
 0001:00066710       ??$genvbo@Uvvertgw@skelmodel@@@skelmesh@skelmodel@@QAEHAAU?$vector@G@@HAAU?$vector@Uvvertgw@skelmodel@@@@@Z 00467710 f i rendermodel.obj
 0001:00066ab0       ??$genvbo@Uvvertg@skelmodel@@@skelmesh@skelmodel@@QAEHAAU?$vector@G@@HAAU?$vector@Uvvertg@skelmodel@@@@PAHH@Z 00467ab0 f i rendermodel.obj
 0001:00067020       ??$interpverts@Uvvert@skelmodel@@@skelmesh@skelmodel@@QAEXPIBUdualquat@@0PIAUvvert@1@AAUskin@animmodel@@@Z 00468020 f i rendermodel.obj
 0001:00067490       ??$access@PBD@?$hashbase@U?$hashnameset@PAUmodel@@@@PAUmodel@@PBDPAU2@@@QAEPAPAUmodel@@ABQBD@Z 00468490 f i rendermodel.obj
 0001:00067520       ??$modelcommand@$$A6AXPAD@Z@?$modelcommands@Uiqm@@Uskelmesh@skelmodel@@@@QAEXP6AXPAD@ZPBD2@Z 00468520 f i rendermodel.obj
 0001:000675b0       ??$modelcommand@$$A6AXPAD@Z@?$modelcommands@Usmd@@Uskelmesh@skelmodel@@@@QAEXP6AXPAD@ZPBD2@Z 004685b0 f i rendermodel.obj
 0001:00067640       ??$modelcommand@$$A6AXPADPAM@Z@?$modelcommands@Uobj@@Uvertmesh@vertmodel@@@@QAEXP6AXPADPAM@ZPBD3@Z 00468640 f i rendermodel.obj
 0001:000676d0       ??$modelcommand@$$A6AXPAD@Z@?$modelcommands@Umd5@@Uskelmesh@skelmodel@@@@QAEXP6AXPAD@ZPBD2@Z 004686d0 f i rendermodel.obj
 0001:00067760       ??$modelcommand@$$A6AXPADPAM@Z@?$modelcommands@Umd3@@Uvertmesh@vertmodel@@@@QAEXP6AXPADPAM@ZPBD3@Z 00468760 f i rendermodel.obj
 0001:000677f0       ??$modelcommand@$$A6AXPADPAM@Z@?$modelcommands@Uiqm@@Uskelmesh@skelmodel@@@@QAEXP6AXPADPAM@ZPBD3@Z 004687f0 f i rendermodel.obj
 0001:00067880       ??$modelcommand@$$A6AXPADPAH@Z@?$modelcommands@Uiqm@@Uskelmesh@skelmodel@@@@QAEXP6AXPADPAH@ZPBD3@Z 00468880 f i rendermodel.obj
 0001:00067910       ??$modelcommand@$$A6AXPADPAM11@Z@?$modelcommands@Uiqm@@Uskelmesh@skelmodel@@@@QAEXP6AXPADPAM11@ZPBD3@Z 00468910 f i rendermodel.obj
 0001:000679a0       ??$modelcommand@$$A6AXPAD0@Z@?$modelcommands@Uiqm@@Uskelmesh@skelmodel@@@@QAEXP6AXPAD0@ZPBD2@Z 004689a0 f i rendermodel.obj
 0001:00067a30       ??$modelcommand@$$A6AXPADPAM@Z@?$modelcommands@Usmd@@Uskelmesh@skelmodel@@@@QAEXP6AXPADPAM@ZPBD3@Z 00468a30 f i rendermodel.obj
 0001:00067ac0       ??$modelcommand@$$A6AXPADPAH@Z@?$modelcommands@Usmd@@Uskelmesh@skelmodel@@@@QAEXP6AXPADPAH@ZPBD3@Z 00468ac0 f i rendermodel.obj
 0001:00067b50       ??$modelcommand@$$A6AXPADPAM11@Z@?$modelcommands@Usmd@@Uskelmesh@skelmodel@@@@QAEXP6AXPADPAM11@ZPBD3@Z 00468b50 f i rendermodel.obj
 0001:00067be0       ??$modelcommand@$$A6AXPAD0@Z@?$modelcommands@Usmd@@Uskelmesh@skelmodel@@@@QAEXP6AXPAD0@ZPBD2@Z 00468be0 f i rendermodel.obj
 0001:00067c70       ??$modelcommand@$$A6AXPAD@Z@?$modelcommands@Uobj@@Uvertmesh@vertmodel@@@@QAEXP6AXPAD@ZPBD2@Z 00468c70 f i rendermodel.obj
 0001:00067d00       ??$modelcommand@$$A6AXPADPAH@Z@?$modelcommands@Uobj@@Uvertmesh@vertmodel@@@@QAEXP6AXPADPAH@ZPBD3@Z 00468d00 f i rendermodel.obj
 0001:00067d90       ??$modelcommand@$$A6AXPADPAM11@Z@?$modelcommands@Uobj@@Uvertmesh@vertmodel@@@@QAEXP6AXPADPAM11@ZPBD3@Z 00468d90 f i rendermodel.obj
 0001:00067e20       ??$modelcommand@$$A6AXPAD0@Z@?$modelcommands@Uobj@@Uvertmesh@vertmodel@@@@QAEXP6AXPAD0@ZPBD2@Z 00468e20 f i rendermodel.obj
 0001:00067eb0       ??$modelcommand@$$A6AXPADPAM@Z@?$modelcommands@Umd5@@Uskelmesh@skelmodel@@@@QAEXP6AXPADPAM@ZPBD3@Z 00468eb0 f i rendermodel.obj
 0001:00067f40       ??$modelcommand@$$A6AXPADPAH@Z@?$modelcommands@Umd5@@Uskelmesh@skelmodel@@@@QAEXP6AXPADPAH@ZPBD3@Z 00468f40 f i rendermodel.obj
 0001:00067fd0       ??$modelcommand@$$A6AXPADPAM11@Z@?$modelcommands@Umd5@@Uskelmesh@skelmodel@@@@QAEXP6AXPADPAM11@ZPBD3@Z 00468fd0 f i rendermodel.obj
 0001:00068060       ??$modelcommand@$$A6AXPAD0@Z@?$modelcommands@Umd5@@Uskelmesh@skelmodel@@@@QAEXP6AXPAD0@ZPBD2@Z 00469060 f i rendermodel.obj
 0001:000680f0       ??$modelcommand@$$A6AXPAD@Z@?$modelcommands@Umd3@@Uvertmesh@vertmodel@@@@QAEXP6AXPAD@ZPBD2@Z 004690f0 f i rendermodel.obj
 0001:00068180       ??$modelcommand@$$A6AXPADPAH@Z@?$modelcommands@Umd3@@Uvertmesh@vertmodel@@@@QAEXP6AXPADPAH@ZPBD3@Z 00469180 f i rendermodel.obj
 0001:00068210       ??$modelcommand@$$A6AXPADPAM11@Z@?$modelcommands@Umd3@@Uvertmesh@vertmodel@@@@QAEXP6AXPADPAM11@ZPBD3@Z 00469210 f i rendermodel.obj
 0001:000682a0       ??$modelcommand@$$A6AXPAD0@Z@?$modelcommands@Umd3@@Uvertmesh@vertmodel@@@@QAEXP6AXPAD0@ZPBD2@Z 004692a0 f i rendermodel.obj
 0001:00068330       ??$modelcommand@$$A6AXPAD@Z@?$modelcommands@Umd2@@Uvertmesh@vertmodel@@@@QAEXP6AXPAD@ZPBD2@Z 00469330 f i rendermodel.obj
 0001:000683c0       ??4skelzoneinfo@@QAEAAU0@$$QAU0@@Z 004693c0 f i rendermodel.obj
 0001:00068550       ?insert@?$hashbase@U?$hashnameset@PAUmodel@@@@PAUmodel@@PBDPAU2@@@QAEPAUchain@1@I@Z 00469550 f i rendermodel.obj
 0001:000686b0       ?insert@?$hashbase@U?$hashtable@PBDUsmdmeshdata@smdmeshgroup@smd@@@@U?$hashtableentry@PBDUsmdmeshdata@smdmeshgroup@smd@@@@PBDUsmdmeshdata@smdmeshgroup@smd@@@@QAEPAUchain@1@I@Z 004696b0 f i rendermodel.obj
 0001:00068860       ?insert@?$hashbase@U?$hashset@Uskelzoneinfo@@@@Uskelzoneinfo@@U2@U2@@@QAEPAUchain@1@I@Z 00469860 f i rendermodel.obj
 0001:00068a10       ?insert@?$hashbase@U?$hashnameset@PAUskeleton@skelmodel@@@@PAUskeleton@skelmodel@@PBDPAU23@@@QAEPAUchain@1@I@Z 00469a10 f i rendermodel.obj
 0001:00068b70       ?insert@?$hashbase@U?$hashtable@PADPAUfilesval@@@@U?$hashtableentry@PADPAUfilesval@@@@PADPAUfilesval@@@@QAEPAUchain@1@I@Z 00469b70 f i console.obj
 0001:00068b70       ?insert@?$hashbase@U?$hashtable@IH@@U?$hashtableentry@IH@@IH@@QAEPAUchain@1@I@Z 00469b70 f i rendermodel.obj
 0001:00068cc0       ?insert@?$hashbase@U?$hashnameset@PAUmeshgroup@animmodel@@@@PAUmeshgroup@animmodel@@PBDPAU23@@@QAEPAUchain@1@I@Z 00469cc0 f i rendermodel.obj
 0001:00068e20       ?insert@?$hashbase@U?$hashtable@Ushaderparams@animmodel@@Ushaderparamskey@2@@@U?$hashtableentry@Ushaderparams@animmodel@@Ushaderparamskey@2@@@Ushaderparams@animmodel@@Ushaderparamskey@4@@@QAEPAUchain@1@I@Z 00469e20 f i rendermodel.obj
 0001:00068ff0       ??0chain@?$hashbase@U?$hashtable@PBDUsmdmeshdata@smdmeshgroup@smd@@@@U?$hashtableentry@PBDUsmdmeshdata@smdmeshgroup@smd@@@@PBDUsmdmeshdata@smdmeshgroup@smd@@@@QAE@XZ 00469ff0 f i rendermodel.obj
 0001:00069060       ??0chain@?$hashbase@U?$hashset@Uskelzoneinfo@@@@Uskelzoneinfo@@U2@U2@@@QAE@XZ 0046a060 f i rendermodel.obj
 0001:00069100       ?insert@?$hashbase@U?$hashset@PAD@@PADPADPAD@@QAEPAUchain@1@I@Z 0046a100 f i rendermodel.obj
 0001:00069260       ??$convertmatrix@Umatrix4x3@@@quat@@QAEXABUmatrix4x3@@@Z 0046a260 f i rendermodel.obj
 0001:00069260       ??$convertmatrix@Umatrix3@@@quat@@QAEXABUmatrix3@@@Z 0046a260 f i rendermodel.obj
 0001:00069440       ??0matrix4x3@@QAE@ABUmatrix3@@ABUvec@@@Z 0046a440 f i rendermodel.obj
 0001:00069490       ??_Gmodel@@UAEPAXI@Z       0046a490 f i rendermodel.obj
 0001:00069490       ??_Emodel@@UAEPAXI@Z       0046a490 f i * CIL library *:* CIL module *
 0001:000694c0       ??0matrix3@@QAE@ABUquat@@@Z 0046a4c0 f i rendermodel.obj
 0001:00069610       ?transposedtransform@dualquat@@QBE?AUvec@@ABU2@@Z 0046a610 f i rendermodel.obj
 0001:00069870       ?mulorient@dualquat@@QAEXABUquat@@@Z 0046a870 f i rendermodel.obj
 0001:00069a60       ??0matrix4x3@@QAE@ABUdualquat@@@Z 0046aa60 f i rendermodel.obj
 0001:00069cf0       ?mulorient@dualquat@@QAEXABUquat@@ABU1@@Z 0046acf0 f i rendermodel.obj
 0001:0006a340       ?accumulate@dualquat@@QAEXABU1@M@Z 0046b340 f i rendermodel.obj
 0001:0006a440       ?mul@dualquat@@QAEXABU1@0@Z 0046b440 f i rendermodel.obj
 0001:0006a720       ??0matrix4@@QAE@ABUmatrix4x3@@@Z 0046b720 f i rendermodel.obj
 0001:0006a790       ??0half@@QAE@M@Z           0046b790 f i rendermodel.obj
 0001:0006a820       ?mul@matrix4x3@@QAEXABU1@0@Z 0046b820 f i rendermodel.obj
 0001:0006ab80       ??1model@@UAE@XZ           0046bb80 f i rendermodel.obj
 0001:0006ac20       ?preloadBIH@model@@UAEXXZ  0046bc20 f i rendermodel.obj
 0001:0006ac30       ?mul@matrix4@@QAEXABU1@ABUmatrix3@@@Z 0046bc30 f i rendermodel.obj
 0001:0006aeb0       ?rotate@matrix4@@QAEXMABUvec@@@Z 0046beb0 f i rendermodel.obj
 0001:0006b020       ?translate@matrix4x3@@QAEXABUvec@@M@Z 0046c020 f i rendermodel.obj
 0001:0006b120       ?calcangleaxis@matrix3@@QBE_NMAAMAAUvec@@M@Z 0046c120 f i rendermodel.obj
 0001:0006b350       ?transposemul@matrix4x3@@QAEXABU1@0@Z 0046c350 f i rendermodel.obj
 0001:0006b5f0       ??1partrenderer@@UAE@XZ    0046c5f0 f i renderparticles.obj
 0001:0006b600       ?preload@partrenderer@@UAEXXZ 0046c600 f i renderparticles.obj
 0001:0006b630       ?calc@partrenderer@@QAEXPAUparticle@@AAH1AAUvec@@2_N@Z 0046c630 f i renderparticles.obj
 0001:0006bb30       ?debuginfo@partrenderer@@QAEXXZ 0046cb30 f i renderparticles.obj
 0001:0006bd90       ??_Epartrenderer@@UAEPAXI@Z 0046cd90 f i * CIL library *:* CIL module *
 0001:0006bd90       ??_Gpartrenderer@@UAEPAXI@Z 0046cd90 f i renderparticles.obj
 0001:0006bdc0       ??1listrenderer@@UAE@XZ    0046cdc0 f i renderparticles.obj
 0001:0006be00       ?reset@listrenderer@@UAEXXZ 0046ce00 f i renderparticles.obj
 0001:0006be60       ?resettracked@listrenderer@@UAEXPAUphysent@@@Z 0046ce60 f i renderparticles.obj
 0001:0006bec0       ?addpart@listrenderer@@UAEPAUparticle@@ABUvec@@0HHMH@Z 0046cec0 f i renderparticles.obj
 0001:0006c0c0       ?count@listrenderer@@UAEHXZ 0046d0c0 f i renderparticles.obj
 0001:0006c0e0       ?haswork@listrenderer@@UAE_NXZ 0046d0e0 f i renderparticles.obj
 0001:0006c0f0       ?render@listrenderer@@UAEXXZ 0046d0f0 f i renderparticles.obj
 0001:0006c210       ??_Glistrenderer@@UAEPAXI@Z 0046d210 f i renderparticles.obj
 0001:0006c210       ??_Elistrenderer@@UAEPAXI@Z 0046d210 f i * CIL library *:* CIL module *
 0001:0006c270       ?startrender@meterrenderer@@UAEXXZ 0046d270 f i renderparticles.obj
 0001:0006c290       ?endrender@meterrenderer@@UAEXXZ 0046d290 f i renderparticles.obj
 0001:0006c2b0       ?renderpart@meterrenderer@@UAEXPAUlistparticle@@ABUvec@@1HH@Z 0046d2b0 f i renderparticles.obj
 0001:0006ff10       ??_Elightningrenderer@@UAEPAXI@Z 00470f10 f i * CIL library *:* CIL module *
 0001:0006ff10       ??_Gmeterrenderer@@UAEPAXI@Z 00470f10 f i renderparticles.obj
 0001:0006ff10       ??_Gtextrenderer@@UAEPAXI@Z 00470f10 f i renderparticles.obj
 0001:0006ff10       ??_Glightningrenderer@@UAEPAXI@Z 00470f10 f i renderparticles.obj
 0001:0006ff10       ??_Etextrenderer@@UAEPAXI@Z 00470f10 f i * CIL library *:* CIL module *
 0001:0006ff10       ??_Emeterrenderer@@UAEPAXI@Z 00470f10 f i * CIL library *:* CIL module *
 0001:0006ff10       ??_Efireballrenderer@@UAEPAXI@Z 00470f10 f i * CIL library *:* CIL module *
 0001:0006ff10       ??_Gfireballrenderer@@UAEPAXI@Z 00470f10 f i renderparticles.obj
 0001:0006ff70       ?startrender@textrenderer@@UAEXXZ 00470f70 f i renderparticles.obj
 0001:0006ffb0       ?endrender@textrenderer@@UAEXXZ 00470fb0 f i renderparticles.obj
 0001:0006ffe0       ?killpart@textrenderer@@UAEXPAUlistparticle@@@Z 00470fe0 f i renderparticles.obj
 0001:00070000       ?renderpart@textrenderer@@UAEXPAUlistparticle@@ABUvec@@1HH@Z 00471000 f i renderparticles.obj
 0001:00070290       ?startrender@fireballrenderer@@UAEXXZ 00471290 f i renderparticles.obj
 0001:00070490       ?endrender@fireballrenderer@@UAEXXZ 00471490 f i renderparticles.obj
 0001:000704c0       ?cleanup@fireballrenderer@@UAEXXZ 004714c0 f i renderparticles.obj
 0001:00070510       ?seedemitter@fireballrenderer@@UAEXAAUparticleemitter@@ABUvec@@1HMH@Z 00471510 f i renderparticles.obj
 0001:000705c0       ?renderpart@fireballrenderer@@UAEXPAUlistparticle@@ABUvec@@1HH@Z 004715c0 f i renderparticles.obj
 0001:00070f40       ?reset@flarerenderer@@UAEXXZ 00471f40 f i renderparticles.obj
 0001:00070f60       ?addflare@flarerenderer@@QAEXAAUvec@@EEE_N1@Z 00471f60 f i renderparticles.obj
 0001:000712e0       ?update@flarerenderer@@UAEXXZ 004722e0 f i renderparticles.obj
 0001:00071310       ?count@flarerenderer@@UAEHXZ 00472310 f i renderparticles.obj
 0001:00071320       ?haswork@flarerenderer@@UAE_NXZ 00472320 f i renderparticles.obj
 0001:00071330       ?render@flarerenderer@@UAEXXZ 00472330 f i renderparticles.obj
 0001:00071960       ?addpart@flarerenderer@@UAEPAUparticle@@ABUvec@@0HHMH@Z 00472960 f i renderparticles.obj
 0001:00071970       ??_Eflarerenderer@@UAEPAXI@Z 00472970 f i * CIL library *:* CIL module *
 0001:00071970       ??_Gflarerenderer@@UAEPAXI@Z 00472970 f i renderparticles.obj
 0001:000719f0       ?startrender@lightningrenderer@@UAEXXZ 004729f0 f i renderparticles.obj
 0001:00071a70       ?endrender@lightningrenderer@@UAEXXZ 00472a70 f i renderparticles.obj
 0001:00071a80       ?seedemitter@lightningrenderer@@UAEXAAUparticleemitter@@ABUvec@@1HMH@Z 00472a80 f i renderparticles.obj
 0001:00071b80       ?renderpart@lightningrenderer@@UAEXPAUlistparticle@@ABUvec@@1HH@Z 00472b80 f i renderparticles.obj
 0001:00071c20       ?render@?$varenderer@$00@@UAEXXZ 00472c20 f i renderparticles.obj
 0001:00071e10       ?seedemitter@?$varenderer@$00@@UAEXAAUparticleemitter@@ABUvec@@1HMH@Z 00472e10 f i renderparticles.obj
 0001:00072090       ?addpart@?$varenderer@$0A@@@UAEPAUparticle@@ABUvec@@0HHMH@Z 00473090 f i renderparticles.obj
 0001:00072090       ?addpart@?$varenderer@$01@@UAEPAUparticle@@ABUvec@@0HHMH@Z 00473090 f i renderparticles.obj
 0001:00072090       ?addpart@?$varenderer@$00@@UAEPAUparticle@@ABUvec@@0HHMH@Z 00473090 f i renderparticles.obj
 0001:00072180       ?haswork@?$varenderer@$0A@@@UAE_NXZ 00473180 f i renderparticles.obj
 0001:00072180       ?haswork@?$varenderer@$01@@UAE_NXZ 00473180 f i renderparticles.obj
 0001:00072180       ?haswork@?$varenderer@$00@@UAE_NXZ 00473180 f i renderparticles.obj
 0001:00072190       ?count@?$varenderer@$0A@@@UAEHXZ 00473190 f i renderparticles.obj
 0001:00072190       ?count@?$varenderer@$00@@UAEHXZ 00473190 f i renderparticles.obj
 0001:00072190       ?count@?$varenderer@$01@@UAEHXZ 00473190 f i renderparticles.obj
 0001:000721a0       ?resettracked@?$varenderer@$00@@UAEXPAUphysent@@@Z 004731a0 f i renderparticles.obj
 0001:000721a0       ?resettracked@?$varenderer@$01@@UAEXPAUphysent@@@Z 004731a0 f i renderparticles.obj
 0001:000721a0       ?resettracked@?$varenderer@$0A@@@UAEXPAUphysent@@@Z 004731a0 f i renderparticles.obj
 0001:00072200       ?reset@?$varenderer@$0A@@@UAEXXZ 00473200 f i renderparticles.obj
 0001:00072200       ?reset@?$varenderer@$01@@UAEXXZ 00473200 f i renderparticles.obj
 0001:00072200       ?reset@?$varenderer@$00@@UAEXXZ 00473200 f i renderparticles.obj
 0001:00072220       ?init@?$varenderer@$01@@UAEXH@Z 00473220 f i renderparticles.obj
 0001:00072220       ?init@?$varenderer@$0A@@@UAEXH@Z 00473220 f i renderparticles.obj
 0001:00072220       ?init@?$varenderer@$00@@UAEXH@Z 00473220 f i renderparticles.obj
 0001:00072320       ?cleanup@?$varenderer@$0A@@@UAEXXZ 00473320 f i renderparticles.obj
 0001:00072320       ?cleanup@?$varenderer@$01@@UAEXXZ 00473320 f i renderparticles.obj
 0001:00072320       ?cleanup@?$varenderer@$00@@UAEXXZ 00473320 f i renderparticles.obj
 0001:00072350       ?render@?$varenderer@$01@@UAEXXZ 00473350 f i renderparticles.obj
 0001:00072540       ?seedemitter@?$varenderer@$01@@UAEXAAUparticleemitter@@ABUvec@@1HMH@Z 00473540 f i renderparticles.obj
 0001:00072840       ?render@?$varenderer@$0A@@@UAEXXZ 00473840 f i renderparticles.obj
 0001:00072a30       ?seedemitter@?$varenderer@$0A@@@UAEXAAUparticleemitter@@ABUvec@@1HMH@Z 00473a30 f i renderparticles.obj
 0001:00072da0       ??_E?$varenderer@$00@@UAEPAXI@Z 00473da0 f i * CIL library *:* CIL module *
 0001:00072da0       ??_G?$varenderer@$01@@UAEPAXI@Z 00473da0 f i renderparticles.obj
 0001:00072da0       ??_E?$varenderer@$0A@@@UAEPAXI@Z 00473da0 f i * CIL library *:* CIL module *
 0001:00072da0       ??_E?$varenderer@$01@@UAEPAXI@Z 00473da0 f i * CIL library *:* CIL module *
 0001:00072da0       ??_G?$varenderer@$00@@UAEPAXI@Z 00473da0 f i renderparticles.obj
 0001:00072da0       ??_G?$varenderer@$0A@@@UAEPAXI@Z 00473da0 f i renderparticles.obj
 0001:00072e00       ?genverts@?$varenderer@$00@@QAEXXZ 00473e00 f i renderparticles.obj
 0001:00073500       ?genverts@?$varenderer@$01@@QAEXXZ 00474500 f i renderparticles.obj
 0001:000738b0       ?genverts@?$varenderer@$0A@@@QAEXXZ 004748b0 f i renderparticles.obj
 0001:00073e20       ?genverts@?$varenderer@$00@@QAEXPAUparticle@@PAUpartvert@@_N@Z 00474e20 f i renderparticles.obj
 0001:00074480       ?genverts@?$varenderer@$01@@QAEXPAUparticle@@PAUpartvert@@_N@Z 00475480 f i renderparticles.obj
 0001:000747a0       ?genverts@?$varenderer@$0A@@@QAEXPAUparticle@@PAUpartvert@@_N@Z 004757a0 f i renderparticles.obj
 0001:00074c20       ??$concformatstring@$0BAE@@@YAXAAY0BAE@DPBDZZ 00475c20 f i renderparticles.obj
 0001:00074c70       ??1?$hashbase@U?$hashnameset@Ufont@@@@Ufont@@PBDU2@@@QAE@XZ 00475c70 f i rendertext.obj
 0001:00074d00       ?growbuf@?$vector@Ucharinfo@font@@@@QAEXH@Z 00475d00 f i rendertext.obj
 0001:00074d90       ??1chain@?$hashbase@U?$hashnameset@Ufont@@@@Ufont@@PBDU2@@@QAE@XZ 00475d90 f i rendertext.obj
 0001:00074dd0       ??$access@PBD@?$hashbase@U?$hashnameset@Ufont@@@@Ufont@@PBDU2@@@QAEPAUfont@@ABQBD@Z 00475dd0 f i rendertext.obj
 0001:00074e60       ?insert@?$hashbase@U?$hashnameset@Ufont@@@@Ufont@@PBDU2@@@QAEPAUchain@1@I@Z 00475e60 f i rendertext.obj
 0001:00075020       ??0chain@?$hashbase@U?$hashnameset@Ufont@@@@Ufont@@PBDU2@@@QAE@XZ 00476020 f i rendertext.obj
 0001:00075090       ??1font@@QAE@XZ            00476090 f i rendertext.obj
 0001:00075120       ??0renderstate@@QAE@XZ     00476120 f i renderva.obj
 0001:00075210       ??0geombatch@@QAE@ABUelementset@@HPAUvtxarray@@@Z 00476210 f i renderva.obj
 0001:000752a0       ??0decalbatch@@QAE@ABUelementset@@HPAUvtxarray@@@Z 004762a0 f i renderva.obj
 0001:00075310       ?add@shadowverts@@QAEHABUvec@@@Z 00476310 f i renderva.obj
 0001:00075410       ??1?$hashbase@U?$hashtable@HUshadowmesh@@@@U?$hashtableentry@HUshadowmesh@@@@HUshadowmesh@@@@QAE@XZ 00476410 f i renderva.obj
 0001:00075490       ?add@?$vector@Udecalbatch@@@@QAEAAUdecalbatch@@ABU2@@Z 00476490 f i renderva.obj
 0001:00075580       ?add@?$vector@Ugeombatch@@@@QAEAAUgeombatch@@ABU2@@Z 00476580 f i renderva.obj
 0001:00075670       ?insert@?$hashbase@U?$hashtable@HUshadowmesh@@@@U?$hashtableentry@HUshadowmesh@@@@HUshadowmesh@@@@QAEPAUchain@1@I@Z 00476670 f i renderva.obj
 0001:00075830       ??9vec2@@QBE_NABU0@@Z      00476830 f i renderva.obj
 0001:00075860       ??1?$hashbase@U?$hashnameset@UShader@@@@UShader@@PBDU2@@@QAE@XZ 00476860 f i shader.obj
 0001:000758f0       ??1?$hashbase@U?$hashnameset@UGlobalShaderParamState@@@@UGlobalShaderParamState@@PBDU2@@@QAE@XZ 004768f0 f i shader.obj
 0001:00075970       ?growbuf@?$vector@UUniformLoc@@@@QAEXH@Z 00476970 f i shader.obj
 0001:00075a00       ??1chain@?$hashbase@U?$hashnameset@UShader@@@@UShader@@PBDU2@@@QAE@XZ 00476a00 f i shader.obj
 0001:00075a40       ??$access@PBD@?$hashbase@U?$hashnameset@UShader@@@@UShader@@PBDU2@@@QAEPAUShader@@ABQBD@Z 00476a40 f i shader.obj
 0001:00075ad0       ??$access@PBD@?$hashbase@U?$hashnameset@UGlobalShaderParamState@@@@UGlobalShaderParamState@@PBDU2@@@QAEPAUGlobalShaderParamState@@ABQBD@Z 00476ad0 f i shader.obj
 0001:00075b60       ??$?APAD@?$hashbase@U?$hashnameset@UShader@@@@UShader@@PBDU2@@@QAEAAUShader@@ABQAD@Z 00476b60 f i shader.obj
 0001:00075bf0       ?insert@?$hashbase@U?$hashnameset@UShader@@@@UShader@@PBDU2@@@QAEPAUchain@1@I@Z 00476bf0 f i shader.obj
 0001:00075dd0       ?insert@?$hashbase@U?$hashtable@PBDH@@U?$hashtableentry@PBDH@@PBDH@@QAEPAUchain@1@I@Z 00476dd0 f i shader.obj
 0001:00075f30       ?insert@?$hashbase@U?$hashnameset@UGlobalShaderParamState@@@@UGlobalShaderParamState@@PBDU2@@@QAEPAUchain@1@I@Z 00476f30 f i shader.obj
 0001:000760c0       ??0chain@?$hashbase@U?$hashnameset@UShader@@@@UShader@@PBDU2@@@QAE@XZ 004770c0 f i shader.obj
 0001:00076100       ??0Shader@@QAE@XZ          00477100 f i shader.obj
 0001:00076280       ??1Shader@@QAE@XZ          00477280 f i shader.obj
 0001:00076450       ?addvariant@Shader@@QAEXHPAU1@@Z 00477450 f i shader.obj
 0001:00076650       ?getvariant@Shader@@QBEPAU1@HH@Z 00477650 f i shader.obj
 0001:000766a0       _fprintf                   004776a0 f i shader.obj
 0001:000766c0       ??1MatSlot@@UAE@XZ         004776c0 f i texture.obj
 0001:00076740       ??_EMatSlot@@UAEPAXI@Z     00477740 f i * CIL library *:* CIL module *
 0001:00076740       ??_GMatSlot@@UAEPAXI@Z     00477740 f i texture.obj
 0001:000767d0       ?add@?$vector@Uenvmap@@@@QAEAAUenvmap@@XZ 004777d0 f i texture.obj
 0001:00076910       ?deletecontents@?$vector@PAUDecalSlot@@@@QAEXH@Z 00477910 f i texture.obj
 0001:00076950       ??1?$hashbase@U?$hashnameset@UTexture@@@@UTexture@@PBDU2@@@QAE@XZ 00477950 f i texture.obj
 0001:000769d0       ??$?APAD@?$hashbase@U?$hashnameset@UTexture@@@@UTexture@@PBDU2@@@QAEAAUTexture@@ABQAD@Z 004779d0 f i texture.obj
 0001:00076a60       ??$access@PAD@?$hashbase@U?$hashnameset@UTexture@@@@UTexture@@PBDU2@@@QAEPAUTexture@@ABQAD@Z 00477a60 f i texture.obj
 0001:00076af0       ?insert@?$hashbase@U?$hashnameset@UTexture@@@@UTexture@@PBDU2@@@QAEPAUchain@1@I@Z 00477af0 f i texture.obj
 0001:00076cc0       ?emptyvslot@MatSlot@@UAEAAUVSlot@@XZ 00477cc0 f i texture.obj
 0001:00076cc0       ?emptyvslot@DecalSlot@@UAEAAUVSlot@@XZ 00477cc0 f i texture.obj
 0001:00076cd0       ??_EDecalSlot@@UAEPAXI@Z   00477cd0 f i * CIL library *:* CIL module *
 0001:00076cd0       ??_GDecalSlot@@UAEPAXI@Z   00477cd0 f i texture.obj
 0001:00076d60       ?cleanup@Slot@@QAEXXZ      00477d60 f i texture.obj
 0001:00076db0       ??_ESlot@@UAEPAXI@Z        00477db0 f i * CIL library *:* CIL module *
 0001:00076db0       ??_GSlot@@UAEPAXI@Z        00477db0 f i texture.obj
 0001:00076dd0       ?texturedir@DecalSlot@@UBEPBDXZ 00477dd0 f i texture.obj
 0001:00076de0       ??0DecalSlot@@QAE@H@Z      00477de0 f i texture.obj
 0001:00076eb0       ?reset@Slot@@QAEXXZ        00477eb0 f i texture.obj
 0001:00076f10       ??0Slot@@QAE@H@Z           00477f10 f i texture.obj
 0001:00076fd0       ?shouldpremul@Slot@@UBE_NH@Z 00477fd0 f i texture.obj
 0001:00076fe0       ??1Slot@@UAE@XZ            00477fe0 f i texture.obj
 0001:00077070       ?texturedir@Slot@@UBEPBDXZ 00478070 f i texture.obj
 0001:00077080       ?wrap@ImageData@@QAEXPAUSDL_Surface@@@Z 00478080 f i texture.obj
 0001:00077110       ?replace@ImageData@@QAEXAAU1@@Z 00478110 f i texture.obj
 0001:00077190       ??0editline@@QAE@PBD@Z     00478190 f i ui.obj
 0001:000771f0       ?grow@editline@@QAA_NHPBDZZ 004781f0 f i ui.obj
 0001:00077280       ?append@editline@@QAEXPBD@Z 00478280 f i ui.obj
 0001:000772e0       ?del@editline@@QAEXHH@Z    004782e0 f i ui.obj
 0001:00077340       ?insert@editline@@QAEXPADHH@Z 00478340 f i ui.obj
 0001:000773c0       ?combinelines@editline@@QAEXAAU?$vector@Ueditline@@@@@Z 004783c0 f i ui.obj
 0001:00077560       ??0editor@@QAE@PBDH0@Z     00478560 f i ui.obj
 0001:00077750       ?clear@editor@@QAEXPBD@Z   00478750 f i ui.obj
 0001:000778d0       ?setfile@editor@@QAEXPBD@Z 004788d0 f i ui.obj
 0001:00077930       ?load@editor@@QAEXXZ       00478930 f i ui.obj
 0001:00077b80       ?region@editor@@QAE_NAAH000@Z 00478b80 f i ui.obj
 0001:00077c80       ?currentline@editor@@QAEAAUeditline@@XZ 00478c80 f i ui.obj
 0001:00077cd0       ?copyselectionto@editor@@QAEXPAU1@@Z 00478cd0 f i ui.obj
 0001:00077ed0       ?selectiontostring@editor@@QAEPADXZ 00478ed0 f i ui.obj
 0001:000781c0       ?removelines@editor@@QAEXHH@Z 004791c0 f i ui.obj
 0001:00078260       ?del@editor@@QAE_NXZ       00479260 f i ui.obj
 0001:00078410       ?insert@editor@@QAEXD@Z    00479410 f i ui.obj
 0001:00078540       ?insert@editor@@QAEXPBD@Z  00479540 f i ui.obj
 0001:00078730       ?insertallfrom@editor@@QAEXPAU1@@Z 00479730 f i ui.obj
 0001:00078960       ?key@editor@@QAEXH@Z       00479960 f i ui.obj
 0001:00078e40       ?input@editor@@QAEXPBDH@Z  00479e40 f i ui.obj
 0001:00079030       ?draw@editor@@QAEXHHH_N@Z  0047a030 f i ui.obj
 0001:00079bd0       ??1Object@UI@@UAE@XZ       0047abd0 f i ui.obj
 0001:00079c50       ?childalign@Object@UI@@UBEEXZ 0047ac50 f i ui.obj
 0001:00079c60       ?layout@Object@UI@@UAEXXZ  0047ac60 f i ui.obj
 0001:00079cd0       ?adjustchildrento@Object@UI@@QAEXMMMM@Z 0047acd0 f i ui.obj
 0001:00079e40       ?adjustchildren@Object@UI@@UAEXXZ 0047ae40 f i ui.obj
 0001:00079e60       ?adjustlayout@Object@UI@@QAEXMMMM@Z 0047ae60 f i ui.obj
 0001:00079f70       ?extinfoteam@servmode@server@@UAE_NHAAU?$databuf@E@@@Z 0047af70 f i server1.obj
 0001:00079f70       ?aicheck@clientmode@game@@UAE_NPAUgameent@@AAUaistate@ai@@@Z 0047af70 f i client1.obj
 0001:00079f70       ?target@Object@UI@@UAE_NMM@Z 0047af70 f i ui.obj
 0001:00079f70       ?aipursue@clientmode@game@@UAE_NPAUgameent@@AAUaistate@ai@@@Z 0047af70 f i client1.obj
 0001:00079f70       ?aidefend@clientmode@game@@UAE_NPAUgameent@@AAUaistate@ai@@@Z 0047af70 f i client1.obj
 0001:00079f80       ?rawkey@Object@UI@@UAE_NH_N@Z 0047af80 f i ui.obj
 0001:00079fc0       ?key@Object@UI@@UAE_NH_N@Z 0047afc0 f i ui.obj
 0001:0007a000       ?textinput@Object@UI@@UAE_NPBDH@Z 0047b000 f i ui.obj
 0001:0007a040       ?enddraw@Object@UI@@QAEXH@Z 0047b040 f i ui.obj
 0001:0007a100       ?changedraw@Object@UI@@QAEXH@Z 0047b100 f i ui.obj
 0001:0007a170       ?draw@Object@UI@@UAEXMM@Z  0047b170 f i ui.obj
 0001:0007a240       ?resetchildstate@Object@UI@@QAEXXZ 0047b240 f i ui.obj
 0001:0007a280       ?setstate@Object@UI@@QAE_NHMMH_NH@Z 0047b280 f i ui.obj
 0001:0007a5d0       ?clearstate@Object@UI@@QAEXH@Z 0047b5d0 f i ui.obj
 0001:0007a630       ?hoverchildren@Object@UI@@UAEXMMH_NH@Z 0047b630 f i ui.obj
 0001:0007a770       ?presschildren@Object@UI@@UAEXMMH_NH@Z 0047b770 f i ui.obj
 0001:0007a8b0       ?holdchildren@Object@UI@@UAEXMMH_NH@Z 0047b8b0 f i ui.obj
 0001:0007a9f0       ?releasechildren@Object@UI@@UAEXMMH_NH@Z 0047b9f0 f i ui.obj
 0001:0007ab30       ?altholdchildren@Object@UI@@UAEXMMH_NH@Z 0047bb30 f i ui.obj
 0001:0007ac70       ?altpresschildren@Object@UI@@UAEXMMH_NH@Z 0047bc70 f i ui.obj
 0001:0007adb0       ?altreleasechildren@Object@UI@@UAEXMMH_NH@Z 0047bdb0 f i ui.obj
 0001:0007aef0       ?escholdchildren@Object@UI@@UAEXMMH_NH@Z 0047bef0 f i ui.obj
 0001:0007b030       ?escpresschildren@Object@UI@@UAEXMMH_NH@Z 0047c030 f i ui.obj
 0001:0007b170       ?escreleasechildren@Object@UI@@UAEXMMH_NH@Z 0047c170 f i ui.obj
 0001:0007b2b0       ?scrollupchildren@Object@UI@@UAEXMMH_NH@Z 0047c2b0 f i ui.obj
 0001:0007b3f0       ?scrolldownchildren@Object@UI@@UAEXMMH_NH@Z 0047c3f0 f i ui.obj
 0001:0007b530       ?gettype@Object@UI@@UBEPBDXZ 0047c530 f i ui.obj
 0001:0007b540       ?getname@Object@UI@@UBEPBDXZ 0047c540 f i ui.obj
 0001:0007b540       ?gettypename@Object@UI@@UBEPBDXZ 0047c540 f i ui.obj
 0001:0007b550       ?find@Object@UI@@QBEPAU12@PBD_NPBU12@@Z 0047c550 f i ui.obj
 0001:0007b620       ?findsibling@Object@UI@@QBEPAU12@PBD@Z 0047c620 f i ui.obj
 0001:0007b710       ?buildchildren@Object@UI@@QAEXPAI@Z 0047c710 f i ui.obj
 0001:0007b7c0       ?childcolumns@Object@UI@@UBEHXZ 0047c7c0 f i ui.obj
 0001:0007b7d0       ??_GObject@UI@@UAEPAXI@Z   0047c7d0 f i ui.obj
 0001:0007b7d0       ??_EObject@UI@@UAEPAXI@Z   0047c7d0 f i * CIL library *:* CIL module *
 0001:0007b7f0       ?gettype@Window@UI@@UBEPBDXZ 0047c7f0 f i ui.obj
 0001:0007b800       ?getname@Window@UI@@UBEPBDXZ 0047c800 f i ui.obj
 0001:0007b800       ?childcolumns@TableHeader@UI@@UBEHXZ 0047c800 f i ui.obj
 0001:0007b810       ?layout@Window@UI@@UAEXXZ  0047c810 f i ui.obj
 0001:0007b840       ?draw@Window@UI@@UAEXMM@Z  0047c840 f i ui.obj
 0001:0007ba00       ?adjustchildren@Window@UI@@UAEXXZ 0047ca00 f i ui.obj
 0001:0007ba40       ?hoverchildren@Window@UI@@UAEXMMH_NH@Z 0047ca40 f i ui.obj
 0001:0007bae0       ?presschildren@Window@UI@@UAEXMMH_NH@Z 0047cae0 f i ui.obj
 0001:0007bb80       ?holdchildren@Window@UI@@UAEXMMH_NH@Z 0047cb80 f i ui.obj
 0001:0007bc20       ?releasechildren@Window@UI@@UAEXMMH_NH@Z 0047cc20 f i ui.obj
 0001:0007bcc0       ?altholdchildren@Window@UI@@UAEXMMH_NH@Z 0047ccc0 f i ui.obj
 0001:0007bd60       ?altpresschildren@Window@UI@@UAEXMMH_NH@Z 0047cd60 f i ui.obj
 0001:0007be00       ?altreleasechildren@Window@UI@@UAEXMMH_NH@Z 0047ce00 f i ui.obj
 0001:0007bea0       ?escholdchildren@Window@UI@@UAEXMMH_NH@Z 0047cea0 f i ui.obj
 0001:0007bf40       ?escpresschildren@Window@UI@@UAEXMMH_NH@Z 0047cf40 f i ui.obj
 0001:0007bfe0       ?escreleasechildren@Window@UI@@UAEXMMH_NH@Z 0047cfe0 f i ui.obj
 0001:0007c080       ?scrollupchildren@Window@UI@@UAEXMMH_NH@Z 0047d080 f i ui.obj
 0001:0007c120       ?scrolldownchildren@Window@UI@@UAEXMMH_NH@Z 0047d120 f i ui.obj
 0001:0007c1c0       ?calcscissor@Window@UI@@QAEXMMMMAAH000_N@Z 0047d1c0 f i ui.obj
 0001:0007c420       ??_GWindow@UI@@UAEPAXI@Z   0047d420 f i ui.obj
 0001:0007c420       ??_EWindow@UI@@UAEPAXI@Z   0047d420 f i * CIL library *:* CIL module *
 0001:0007c4b0       ?gettype@World@UI@@UBEPBDXZ 0047d4b0 f i ui.obj
 0001:0007c4c0       ?adjustchildren@World@UI@@UAEXXZ 0047d4c0 f i ui.obj
 0001:0007c540       ?hoverchildren@World@UI@@UAEXMMH_NH@Z 0047d540 f i ui.obj
 0001:0007c5c0       ?presschildren@World@UI@@UAEXMMH_NH@Z 0047d5c0 f i ui.obj
 0001:0007c640       ?holdchildren@World@UI@@UAEXMMH_NH@Z 0047d640 f i ui.obj
 0001:0007c6c0       ?releasechildren@World@UI@@UAEXMMH_NH@Z 0047d6c0 f i ui.obj
 0001:0007c740       ?altholdchildren@World@UI@@UAEXMMH_NH@Z 0047d740 f i ui.obj
 0001:0007c7c0       ?altpresschildren@World@UI@@UAEXMMH_NH@Z 0047d7c0 f i ui.obj
 0001:0007c840       ?altreleasechildren@World@UI@@UAEXMMH_NH@Z 0047d840 f i ui.obj
 0001:0007c8c0       ?escholdchildren@World@UI@@UAEXMMH_NH@Z 0047d8c0 f i ui.obj
 0001:0007c940       ?escpresschildren@World@UI@@UAEXMMH_NH@Z 0047d940 f i ui.obj
 0001:0007c9c0       ?escreleasechildren@World@UI@@UAEXMMH_NH@Z 0047d9c0 f i ui.obj
 0001:0007ca40       ?scrollupchildren@World@UI@@UAEXMMH_NH@Z 0047da40 f i ui.obj
 0001:0007cac0       ?scrolldownchildren@World@UI@@UAEXMMH_NH@Z 0047dac0 f i ui.obj
 0001:0007cb40       ?hide@World@UI@@QAEXPAUWindow@2@H@Z 0047db40 f i ui.obj
 0001:0007cbb0       ?hide@World@UI@@QAE_NPAUWindow@2@@Z 0047dbb0 f i ui.obj
 0001:0007cbf0       ?hideall@World@UI@@QAEHXZ  0047dbf0 f i ui.obj
 0001:0007cca0       ?allowinput@World@UI@@QBE_NXZ 0047dca0 f i ui.obj
 0001:0007cce0       ?gettype@HorizontalList@UI@@UBEPBDXZ 0047dce0 f i ui.obj
 0001:0007ccf0       ?childalign@HorizontalList@UI@@UBEEXZ 0047dcf0 f i ui.obj
 0001:0007cd00       ?layout@HorizontalList@UI@@UAEXXZ 0047dd00 f i ui.obj
 0001:0007cd90       ?adjustchildren@HorizontalList@UI@@UAEXXZ 0047dd90 f i ui.obj
 0001:0007cf60       ?gettype@VerticalList@UI@@UBEPBDXZ 0047df60 f i ui.obj
 0001:0007cf70       ?childalign@VerticalList@UI@@UBEEXZ 0047df70 f i ui.obj
 0001:0007cf80       ?layout@VerticalList@UI@@UAEXXZ 0047df80 f i ui.obj
 0001:0007d010       ?adjustchildren@VerticalList@UI@@UAEXXZ 0047e010 f i ui.obj
 0001:0007d1e0       ?gettype@Grid@UI@@UBEPBDXZ 0047e1e0 f i ui.obj
 0001:0007d1f0       ?layout@Grid@UI@@UAEXXZ    0047e1f0 f i ui.obj
 0001:0007d480       ?adjustchildren@Grid@UI@@UAEXXZ 0047e480 f i ui.obj
 0001:0007d730       ?gettype@TableHeader@UI@@UBEPBDXZ 0047e730 f i ui.obj
 0001:0007d740       ?childalign@TableHeader@UI@@UBEEXZ 0047e740 f i ui.obj
 0001:0007d750       ?adjustchildren@TableHeader@UI@@UAEXXZ 0047e750 f i ui.obj
 0001:0007d880       ?draw@TableHeader@UI@@UAEXMM@Z 0047e880 f i ui.obj
 0001:0007da00       ??_GScrollArrow@UI@@UAEPAXI@Z 0047ea00 f i ui.obj
 0001:0007da00       ??_EScrollArrow@UI@@UAEPAXI@Z 0047ea00 f i * CIL library *:* CIL module *
 0001:0007da00       ??_ETableHeader@UI@@UAEPAXI@Z 0047ea00 f i * CIL library *:* CIL module *
 0001:0007da00       ??_GFont@UI@@UAEPAXI@Z     0047ea00 f i ui.obj
 0001:0007da00       ??_GTableHeader@UI@@UAEPAXI@Z 0047ea00 f i ui.obj
 0001:0007da00       ??_EFont@UI@@UAEPAXI@Z     0047ea00 f i * CIL library *:* CIL module *
 0001:0007da50       ??1Filler@UI@@UAE@XZ       0047ea50 f i ui.obj
 0001:0007da50       ??1Text@UI@@UAE@XZ         0047ea50 f i ui.obj
 0001:0007da50       ??1Clipper@UI@@UAE@XZ      0047ea50 f i ui.obj
 0001:0007da50       ??1ScrollBar@UI@@UAE@XZ    0047ea50 f i ui.obj
 0001:0007da50       ??1Slider@UI@@UAE@XZ       0047ea50 f i ui.obj
 0001:0007da50       ??1TableHeader@UI@@UAE@XZ  0047ea50 f i ui.obj
 0001:0007da90       ?gettype@TableRow@UI@@UBEPBDXZ 0047ea90 f i ui.obj
 0001:0007daa0       ?target@ScrollBar@UI@@UAE_NMM@Z 0047eaa0 f i ui.obj
 0001:0007daa0       ?target@TextEditor@UI@@UAE_NMM@Z 0047eaa0 f i ui.obj
 0001:0007daa0       ?target@TableRow@UI@@UAE_NMM@Z 0047eaa0 f i ui.obj
 0001:0007daa0       ?canspawn@servmode@server@@UAE_NPAUclientinfo@2@_N@Z 0047eaa0 f i server1.obj
 0001:0007daa0       ?target@Slider@UI@@UAE_NMM@Z 0047eaa0 f i ui.obj
 0001:0007daa0       ?target@Target@UI@@UAE_NMM@Z 0047eaa0 f i ui.obj
 0001:0007dab0       ?gettype@Table@UI@@UBEPBDXZ 0047eab0 f i ui.obj
 0001:0007dac0       ?layout@Table@UI@@UAEXXZ   0047eac0 f i ui.obj
 0001:0007dcb0       ?adjustchildren@Table@UI@@UAEXXZ 0047ecb0 f i ui.obj
 0001:0007e050       ?gettype@Spacer@UI@@UBEPBDXZ 0047f050 f i ui.obj
 0001:0007e060       ?layout@Spacer@UI@@UAEXXZ  0047f060 f i ui.obj
 0001:0007e0f0       ?adjustchildren@Spacer@UI@@UAEXXZ 0047f0f0 f i ui.obj
 0001:0007e130       ?gettype@Offsetter@UI@@UBEPBDXZ 0047f130 f i ui.obj
 0001:0007e140       ?layout@Offsetter@UI@@UAEXXZ 0047f140 f i ui.obj
 0001:0007e1a0       ?adjustchildren@Offsetter@UI@@UAEXXZ 0047f1a0 f i ui.obj
 0001:0007e1d0       ?gettype@Filler@UI@@UBEPBDXZ 0047f1d0 f i ui.obj
 0001:0007e1e0       ?layout@Filler@UI@@UAEXXZ  0047f1e0 f i ui.obj
 0001:0007e210       ?gettype@Target@UI@@UBEPBDXZ 0047f210 f i ui.obj
 0001:0007e220       ?gettype@FillColor@UI@@UBEPBDXZ 0047f220 f i ui.obj
 0001:0007e230       ?startdraw@Line@UI@@UAEXXZ 0047f230 f i ui.obj
 0001:0007e230       ?startdraw@Shape@UI@@UAEXXZ 0047f230 f i ui.obj
 0001:0007e230       ?startdraw@FillColor@UI@@UAEXXZ 0047f230 f i ui.obj
 0001:0007e230       ?startdraw@Outline@UI@@UAEXXZ 0047f230 f i ui.obj
 0001:0007e280       ?draw@FillColor@UI@@UAEXMM@Z 0047f280 f i ui.obj
 0001:0007e430       ?gettype@Gradient@UI@@UBEPBDXZ 0047f430 f i ui.obj
 0001:0007e440       ?startdraw@Gradient@UI@@UAEXXZ 0047f440 f i ui.obj
 0001:0007e4a0       ?draw@Gradient@UI@@UAEXMM@Z 0047f4a0 f i ui.obj
 0001:0007e7b0       ?gettype@Line@UI@@UBEPBDXZ 0047f7b0 f i ui.obj
 0001:0007e7c0       ?draw@Line@UI@@UAEXMM@Z    0047f7c0 f i ui.obj
 0001:0007e8b0       ?gettype@Outline@UI@@UBEPBDXZ 0047f8b0 f i ui.obj
 0001:0007e8c0       ?draw@Outline@UI@@UAEXMM@Z 0047f8c0 f i ui.obj
 0001:0007ea30       ?gettype@Image@UI@@UBEPBDXZ 0047fa30 f i ui.obj
 0001:0007ea40       ?target@Image@UI@@UAE_NMM@Z 0047fa40 f i ui.obj
 0001:0007ea80       ?startdraw@Image@UI@@UAEXXZ 0047fa80 f i ui.obj
 0001:0007eac0       ?enddraw@Image@UI@@UAEXXZ  0047fac0 f i ui.obj
 0001:0007ead0       ?draw@Image@UI@@UAEXMM@Z   0047fad0 f i ui.obj
 0001:0007eb80       ?gettype@CroppedImage@UI@@UBEPBDXZ 0047fb80 f i ui.obj
 0001:0007eb90       ?target@CroppedImage@UI@@UAE_NMM@Z 0047fb90 f i ui.obj
 0001:0007ebe0       ?draw@CroppedImage@UI@@UAEXMM@Z 0047fbe0 f i ui.obj
 0001:0007ec70       ?gettype@StretchedImage@UI@@UBEPBDXZ 0047fc70 f i ui.obj
 0001:0007ec80       ?target@StretchedImage@UI@@UAE_NMM@Z 0047fc80 f i ui.obj
 0001:0007ed70       ?draw@StretchedImage@UI@@UAEXMM@Z 0047fd70 f i ui.obj
 0001:0007f060       ?gettype@BorderedImage@UI@@UBEPBDXZ 00480060 f i ui.obj
 0001:0007f070       ?target@BorderedImage@UI@@UAE_NMM@Z 00480070 f i ui.obj
 0001:0007f180       ?draw@BorderedImage@UI@@UAEXMM@Z 00480180 f i ui.obj
 0001:0007f3a0       ?gettype@TiledImage@UI@@UBEPBDXZ 004803a0 f i ui.obj
 0001:0007f3b0       ?target@TiledImage@UI@@UAE_NMM@Z 004803b0 f i ui.obj
 0001:0007f440       ?draw@TiledImage@UI@@UAEXMM@Z 00480440 f i ui.obj
 0001:0007f620       ?gettype@Triangle@UI@@UBEPBDXZ 00480620 f i ui.obj
 0001:0007f630       ?target@Triangle@UI@@UAE_NMM@Z 00480630 f i ui.obj
 0001:0007f750       ?draw@Triangle@UI@@UAEXMM@Z 00480750 f i ui.obj
 0001:0007f8e0       ?gettype@Circle@UI@@UBEPBDXZ 004808e0 f i ui.obj
 0001:0007f8f0       ?target@Circle@UI@@UAE_NMM@Z 004808f0 f i ui.obj
 0001:0007f950       ?draw@Circle@UI@@UAEXMM@Z  00480950 f i ui.obj
 0001:0007fc60       ?gettype@Text@UI@@UBEPBDXZ 00480c60 f i ui.obj
 0001:0007fc70       ?getstr@Text@UI@@UBEPBDXZ  00480c70 f i ui.obj
 0001:0007fc80       ?draw@Text@UI@@UAEXMM@Z    00480c80 f i ui.obj
 0001:0007fd60       ?layout@Text@UI@@UAEXXZ    00480d60 f i ui.obj
 0001:0007fe00       ??0TextString@UI@@QAE@XZ   00480e00 f i ui.obj
 0001:0007fe70       ?gettype@TextString@UI@@UBEPBDXZ 00480e70 f i ui.obj
 0001:0007fe80       ?getstr@TextString@UI@@UBEPBDXZ 00480e80 f i ui.obj
 0001:0007fe90       ??_GTextString@UI@@UAEPAXI@Z 00480e90 f i ui.obj
 0001:0007fe90       ??_ETextString@UI@@UAEPAXI@Z 00480e90 f i * CIL library *:* CIL module *
 0001:0007ff00       ??_GText@UI@@UAEPAXI@Z     00480f00 f i ui.obj
 0001:0007ff00       ??_EText@UI@@UAEPAXI@Z     00480f00 f i * CIL library *:* CIL module *
 0001:0007ff50       ??0TextInt@UI@@QAE@XZ      00480f50 f i ui.obj
 0001:0007ffc0       ?gettype@TextInt@UI@@UBEPBDXZ 00480fc0 f i ui.obj
 0001:0007ffd0       ?getstr@TextFloat@UI@@UBEPBDXZ 00480fd0 f i ui.obj
 0001:0007ffd0       ?getstr@TextInt@UI@@UBEPBDXZ 00480fd0 f i ui.obj
 0001:0007ffe0       ??_GTextFloat@UI@@UAEPAXI@Z 00480fe0 f i ui.obj
 0001:0007ffe0       ??_ETextFloat@UI@@UAEPAXI@Z 00480fe0 f i * CIL library *:* CIL module *
 0001:0007ffe0       ??_GTextInt@UI@@UAEPAXI@Z  00480fe0 f i ui.obj
 0001:0007ffe0       ??_ETextInt@UI@@UAEPAXI@Z  00480fe0 f i * CIL library *:* CIL module *
 0001:00080030       ??0TextFloat@UI@@QAE@XZ    00481030 f i ui.obj
 0001:000800a0       ?gettype@TextFloat@UI@@UBEPBDXZ 004810a0 f i ui.obj
 0001:000800b0       ?layout@Font@UI@@UAEXXZ    004810b0 f i ui.obj
 0001:00080100       ?draw@Font@UI@@UAEXMM@Z    00481100 f i ui.obj
 0001:00080160       ?hoverchildren@Font@UI@@UAEXMMH_NH@Z 00481160 f i ui.obj
 0001:000801d0       ?presschildren@Font@UI@@UAEXMMH_NH@Z 004811d0 f i ui.obj
 0001:00080240       ?holdchildren@Font@UI@@UAEXMMH_NH@Z 00481240 f i ui.obj
 0001:000802b0       ?releasechildren@Font@UI@@UAEXMMH_NH@Z 004812b0 f i ui.obj
 0001:00080320       ?altholdchildren@Font@UI@@UAEXMMH_NH@Z 00481320 f i ui.obj
 0001:00080390       ?altpresschildren@Font@UI@@UAEXMMH_NH@Z 00481390 f i ui.obj
 0001:00080400       ?altreleasechildren@Font@UI@@UAEXMMH_NH@Z 00481400 f i ui.obj
 0001:00080470       ?escholdchildren@Font@UI@@UAEXMMH_NH@Z 00481470 f i ui.obj
 0001:000804e0       ?escpresschildren@Font@UI@@UAEXMMH_NH@Z 004814e0 f i ui.obj
 0001:00080550       ?escreleasechildren@Font@UI@@UAEXMMH_NH@Z 00481550 f i ui.obj
 0001:000805c0       ?scrollupchildren@Font@UI@@UAEXMMH_NH@Z 004815c0 f i ui.obj
 0001:00080630       ?scrolldownchildren@Font@UI@@UAEXMMH_NH@Z 00481630 f i ui.obj
 0001:000806a0       ?rawkey@Font@UI@@UAE_NH_N@Z 004816a0 f i ui.obj
 0001:000806f0       ?key@Font@UI@@UAE_NH_N@Z   004816f0 f i ui.obj
 0001:00080740       ?textinput@Font@UI@@UAE_NPBDH@Z 00481740 f i ui.obj
 0001:00080790       ?gettype@Console@UI@@UBEPBDXZ 00481790 f i ui.obj
 0001:000807a0       ?draw@Console@UI@@UAEXMM@Z 004817a0 f i ui.obj
 0001:000808b0       ?gettype@Clipper@UI@@UBEPBDXZ 004818b0 f i ui.obj
 0001:000808c0       ?layout@Clipper@UI@@UAEXXZ 004818c0 f i ui.obj
 0001:00080910       ?adjustchildren@Clipper@UI@@UAEXXZ 00481910 f i ui.obj
 0001:00080930       ?draw@Clipper@UI@@UAEXMM@Z 00481930 f i ui.obj
 0001:00080a10       ?gettype@Scroller@UI@@UBEPBDXZ 00481a10 f i ui.obj
 0001:00080a20       ?layout@Scroller@UI@@UAEXXZ 00481a20 f i ui.obj
 0001:00080aa0       ?hoverchildren@Scroller@UI@@UAEXMMH_NH@Z 00481aa0 f i ui.obj
 0001:00080af0       ?presschildren@Scroller@UI@@UAEXMMH_NH@Z 00481af0 f i ui.obj
 0001:00080b40       ?holdchildren@Scroller@UI@@UAEXMMH_NH@Z 00481b40 f i ui.obj
 0001:00080b90       ?releasechildren@Scroller@UI@@UAEXMMH_NH@Z 00481b90 f i ui.obj
 0001:00080be0       ?altholdchildren@Scroller@UI@@UAEXMMH_NH@Z 00481be0 f i ui.obj
 0001:00080c30       ?altpresschildren@Scroller@UI@@UAEXMMH_NH@Z 00481c30 f i ui.obj
 0001:00080c80       ?altreleasechildren@Scroller@UI@@UAEXMMH_NH@Z 00481c80 f i ui.obj
 0001:00080cd0       ?escholdchildren@Scroller@UI@@UAEXMMH_NH@Z 00481cd0 f i ui.obj
 0001:00080d20       ?escpresschildren@Scroller@UI@@UAEXMMH_NH@Z 00481d20 f i ui.obj
 0001:00080d70       ?escreleasechildren@Scroller@UI@@UAEXMMH_NH@Z 00481d70 f i ui.obj
 0001:00080dc0       ?scrollupchildren@Scroller@UI@@UAEXMMH_NH@Z 00481dc0 f i ui.obj
 0001:00080e10       ?scrolldownchildren@Scroller@UI@@UAEXMMH_NH@Z 00481e10 f i ui.obj
 0001:00080e60       ?draw@Scroller@UI@@UAEXMM@Z 00481e60 f i ui.obj
 0001:00080f50       ??_GScroller@UI@@UAEPAXI@Z 00481f50 f i ui.obj
 0001:00080f50       ??_EScroller@UI@@UAEPAXI@Z 00481f50 f i * CIL library *:* CIL module *
 0001:00080fa0       ??_GClipper@UI@@UAEPAXI@Z  00481fa0 f i ui.obj
 0001:00080fa0       ??_EClipper@UI@@UAEPAXI@Z  00481fa0 f i * CIL library *:* CIL module *
 0001:00080ff0       ?gettype@ScrollButton@UI@@UBEPBDXZ 00481ff0 f i ui.obj
 0001:00081000       ?gettypename@ScrollBar@UI@@UBEPBDXZ 00482000 f i ui.obj
 0001:00081010       ?hold@ScrollBar@UI@@UAEXMM@Z 00482010 f i ui.obj
 0001:000810b0       ?press@ScrollBar@UI@@UAEXMM@Z 004820b0 f i ui.obj
 0001:00081150       ?scrollup@ScrollBar@UI@@UAEXMM@Z 00482150 f i ui.obj
 0001:000811d0       ?scrolldown@ScrollBar@UI@@UAEXMM@Z 004821d0 f i ui.obj
 0001:00081250       ?gettype@ScrollArrow@UI@@UBEPBDXZ 00482250 f i ui.obj
 0001:00081260       ?hold@ScrollArrow@UI@@UAEXMM@Z 00482260 f i ui.obj
 0001:000812c0       ?gettype@HorizontalScrollBar@UI@@UBEPBDXZ 004822c0 f i ui.obj
 0001:000812d0       ?addscroll@HorizontalScrollBar@UI@@UAEXPAUScroller@2@M@Z 004822d0 f i ui.obj
 0001:00081300       ?scrollto@HorizontalScrollBar@UI@@UAEXMM_N@Z 00482300 f i ui.obj
 0001:000813e0       ?adjustchildren@HorizontalScrollBar@UI@@UAEXXZ 004823e0 f i ui.obj
 0001:000814c0       ?movebutton@HorizontalScrollBar@UI@@UAEXPAUObject@2@MMMM@Z 004824c0 f i ui.obj
 0001:00081500       ?gettype@VerticalScrollBar@UI@@UBEPBDXZ 00482500 f i ui.obj
 0001:00081510       ?addscroll@VerticalScrollBar@UI@@UAEXPAUScroller@2@M@Z 00482510 f i ui.obj
 0001:00081540       ?scrollto@VerticalScrollBar@UI@@UAEXMM_N@Z 00482540 f i ui.obj
 0001:00081620       ?adjustchildren@VerticalScrollBar@UI@@UAEXXZ 00482620 f i ui.obj
 0001:00081700       ?movebutton@VerticalScrollBar@UI@@UAEXPAUObject@2@MMMM@Z 00482700 f i ui.obj
 0001:00081740       ?wheelscrolldirection@VerticalScrollBar@UI@@UBEHXZ 00482740 f i ui.obj
 0001:00081740       ?wheelscrolldirection@VerticalSlider@UI@@UBEHXZ 00482740 f i ui.obj
 0001:00081750       ?gettype@SliderButton@UI@@UBEPBDXZ 00482750 f i ui.obj
 0001:00081760       ?setup@Slider@UI@@QAEXPAUident@@NNNPAI@Z 00482760 f i ui.obj
 0001:00081a70       ?gettypename@Slider@UI@@UBEPBDXZ 00482a70 f i ui.obj
 0001:00081a80       ?arrowscroll@Slider@UI@@QAEXN@Z 00482a80 f i ui.obj
 0001:00081b30       ?scrollup@Slider@UI@@UAEXMM@Z 00482b30 f i ui.obj
 0001:00081c20       ?scrolldown@Slider@UI@@UAEXMM@Z 00482c20 f i ui.obj
 0001:00081d00       ?hold@Slider@UI@@UAEXMM@Z  00482d00 f i ui.obj
 0001:00081d30       ?gettype@SliderArrow@UI@@UBEPBDXZ 00482d30 f i ui.obj
 0001:00081d40       ?press@SliderArrow@UI@@UAEXMM@Z 00482d40 f i ui.obj
 0001:00081e10       ?hold@SliderArrow@UI@@UAEXMM@Z 00482e10 f i ui.obj
 0001:00081e60       ??_GSliderArrow@UI@@UAEPAXI@Z 00482e60 f i ui.obj
 0001:00081e60       ??_ESliderArrow@UI@@UAEPAXI@Z 00482e60 f i * CIL library *:* CIL module *
 0001:00081eb0       ?gettype@HorizontalSlider@UI@@UBEPBDXZ 00482eb0 f i ui.obj
 0001:00081ec0       ?scrollto@HorizontalSlider@UI@@UAEXMM@Z 00482ec0 f i ui.obj
 0001:00081fa0       ?adjustchildren@HorizontalSlider@UI@@UAEXXZ 00482fa0 f i ui.obj
 0001:00082070       ?gettype@VerticalSlider@UI@@UBEPBDXZ 00483070 f i ui.obj
 0001:00082080       ?scrollto@VerticalSlider@UI@@UAEXMM@Z 00483080 f i ui.obj
 0001:00082160       ?adjustchildren@VerticalSlider@UI@@UAEXXZ 00483160 f i ui.obj
 0001:00082230       ?setup@TextEditor@UI@@QAEXPBDHHM0H0@Z 00483230 f i ui.obj
 0001:00082400       ??1TextEditor@UI@@UAE@XZ   00483400 f i ui.obj
 0001:000824a0       ?gettype@TextEditor@UI@@UBEPBDXZ 004834a0 f i ui.obj
 0001:000824b0       ?draw@TextEditor@UI@@UAEXMM@Z 004834b0 f i ui.obj
 0001:00082590       ?layout@TextEditor@UI@@UAEXXZ 00483590 f i ui.obj
 0001:000825f0       ?resetmark@TextEditor@UI@@UAEXMM@Z 004835f0 f i ui.obj
 0001:00082620       ?press@TextEditor@UI@@UAEXMM@Z 00483620 f i ui.obj
 0001:000826c0       ?hold@TextEditor@UI@@UAEXMM@Z 004836c0 f i ui.obj
 0001:00082900       ?scrollup@TextEditor@UI@@UAEXMM@Z 00483900 f i ui.obj
 0001:00082910       ?scrolldown@TextEditor@UI@@UAEXMM@Z 00483910 f i ui.obj
 0001:00082920       ?commit@TextEditor@UI@@UAEXXZ 00483920 f i ui.obj
 0001:00082920       ?cancel@TextEditor@UI@@UAEXXZ 00483920 f i ui.obj
 0001:00082960       ?key@TextEditor@UI@@UAE_NH_N@Z 00483960 f i ui.obj
 0001:000829f0       ?textinput@TextEditor@UI@@UAE_NPBDH@Z 004839f0 f i ui.obj
 0001:00082a90       ??_GTextEditor@UI@@UAEPAXI@Z 00483a90 f i ui.obj
 0001:00082a90       ??_ETextEditor@UI@@UAEPAXI@Z 00483a90 f i * CIL library *:* CIL module *
 0001:00082ab0       ?setup@Field@UI@@QAEXPAUident@@HPAIMPBD@Z 00483ab0 f i ui.obj
 0001:00082cc0       ?gettype@Field@UI@@UBEPBDXZ 00483cc0 f i ui.obj
 0001:00082cd0       ?commit@Field@UI@@UAEXXZ   00483cd0 f i ui.obj
 0001:00082d10       ?cancel@Field@UI@@UAEXXZ   00483d10 f i ui.obj
 0001:00082d50       ??_GField@UI@@UAEPAXI@Z    00483d50 f i ui.obj
 0001:00082d50       ??_EField@UI@@UAEPAXI@Z    00483d50 f i * CIL library *:* CIL module *
 0001:00082da0       ??1Field@UI@@UAE@XZ        00483da0 f i ui.obj
 0001:00082de0       ?gettype@KeyField@UI@@UBEPBDXZ 00483de0 f i ui.obj
 0001:00082df0       ?resetmark@KeyField@UI@@UAEXMM@Z 00483df0 f i ui.obj
 0001:00082e30       ?rawkey@KeyField@UI@@UAE_NH_N@Z 00483e30 f i ui.obj
 0001:00082ee0       ?startdraw@Preview@UI@@UAEXXZ 00483ee0 f i ui.obj
 0001:00082f00       ?enddraw@Preview@UI@@UAEXXZ 00483f00 f i ui.obj
 0001:00082f20       ??0ModelPreview@UI@@QAE@XZ 00483f20 f i ui.obj
 0001:00082fb0       ?gettype@ModelPreview@UI@@UBEPBDXZ 00483fb0 f i ui.obj
 0001:00082fc0       ?draw@ModelPreview@UI@@UAEXMM@Z 00483fc0 f i ui.obj
 0001:000831f0       ??_GModelPreview@UI@@UAEPAXI@Z 004841f0 f i ui.obj
 0001:000831f0       ??_EModelPreview@UI@@UAEPAXI@Z 004841f0 f i * CIL library *:* CIL module *
 0001:00083260       ??1FillColor@UI@@UAE@XZ    00484260 f i ui.obj
 0001:00083260       ??1SlotViewer@UI@@UAE@XZ   00484260 f i ui.obj
 0001:00083260       ??1Preview@UI@@UAE@XZ      00484260 f i ui.obj
 0001:000832a0       ??_EPreview@UI@@UAEPAXI@Z  004842a0 f i * CIL library *:* CIL module *
 0001:000832a0       ??_GPreview@UI@@UAEPAXI@Z  004842a0 f i ui.obj
 0001:000832f0       ??1Target@UI@@UAE@XZ       004842f0 f i ui.obj
 0001:000832f0       ??1Shape@UI@@UAE@XZ        004842f0 f i ui.obj
 0001:000832f0       ??1Image@UI@@UAE@XZ        004842f0 f i ui.obj
 0001:00083330       ??_EVerticalScrollBar@UI@@UAEPAXI@Z 00484330 f i * CIL library *:* CIL module *
 0001:00083330       ??_GConsole@UI@@UAEPAXI@Z  00484330 f i ui.obj
 0001:00083330       ??_EConsole@UI@@UAEPAXI@Z  00484330 f i * CIL library *:* CIL module *
 0001:00083330       ??_GHorizontalScrollBar@UI@@UAEPAXI@Z 00484330 f i ui.obj
 0001:00083330       ??_GVerticalScrollBar@UI@@UAEPAXI@Z 00484330 f i ui.obj
 0001:00083330       ??_ETarget@UI@@UAEPAXI@Z   00484330 f i * CIL library *:* CIL module *
 0001:00083330       ??_EHorizontalScrollBar@UI@@UAEPAXI@Z 00484330 f i * CIL library *:* CIL module *
 0001:00083330       ??_GTarget@UI@@UAEPAXI@Z   00484330 f i ui.obj
 0001:00083380       ??_EFiller@UI@@UAEPAXI@Z   00484380 f i * CIL library *:* CIL module *
 0001:00083380       ??_ESpacer@UI@@UAEPAXI@Z   00484380 f i * CIL library *:* CIL module *
 0001:00083380       ??_GFiller@UI@@UAEPAXI@Z   00484380 f i ui.obj
 0001:00083380       ??_GHorizontalList@UI@@UAEPAXI@Z 00484380 f i ui.obj
 0001:00083380       ??_GVerticalList@UI@@UAEPAXI@Z 00484380 f i ui.obj
 0001:00083380       ??_EVerticalList@UI@@UAEPAXI@Z 00484380 f i * CIL library *:* CIL module *
 0001:00083380       ??_GSpacer@UI@@UAEPAXI@Z   00484380 f i ui.obj
 0001:00083380       ??_EOffsetter@UI@@UAEPAXI@Z 00484380 f i * CIL library *:* CIL module *
 0001:00083380       ??_EHorizontalList@UI@@UAEPAXI@Z 00484380 f i * CIL library *:* CIL module *
 0001:00083380       ??_GOffsetter@UI@@UAEPAXI@Z 00484380 f i ui.obj
 0001:000833d0       ?gettype@PlayerPreview@UI@@UBEPBDXZ 004843d0 f i ui.obj
 0001:000833e0       ?draw@PlayerPreview@UI@@UAEXMM@Z 004843e0 f i ui.obj
 0001:00083510       ??0PrefabPreview@UI@@QAE@XZ 00484510 f i ui.obj
 0001:000835a0       ?gettype@PrefabPreview@UI@@UBEPBDXZ 004845a0 f i ui.obj
 0001:000835b0       ?draw@PrefabPreview@UI@@UAEXMM@Z 004845b0 f i ui.obj
 0001:00083750       ??_GPrefabPreview@UI@@UAEPAXI@Z 00484750 f i ui.obj
 0001:00083750       ??_EPrefabPreview@UI@@UAEPAXI@Z 00484750 f i * CIL library *:* CIL module *
 0001:000837c0       ?gettype@SlotViewer@UI@@UBEPBDXZ 004847c0 f i ui.obj
 0001:000837d0       ?previewslot@SlotViewer@UI@@QAEXAAUSlot@@AAUVSlot@@MM@Z 004847d0 f i ui.obj
 0001:00083ee0       ?draw@SlotViewer@UI@@UAEXMM@Z 00484ee0 f i ui.obj
 0001:00083f60       ?gettype@VSlotViewer@UI@@UBEPBDXZ 00484f60 f i ui.obj
 0001:00083f70       ?draw@VSlotViewer@UI@@UAEXMM@Z 00484f70 f i ui.obj
 0001:00083ff0       ??_ESliderButton@UI@@UAEPAXI@Z 00484ff0 f i * CIL library *:* CIL module *
 0001:00083ff0       ??_GScrollButton@UI@@UAEPAXI@Z 00484ff0 f i ui.obj
 0001:00083ff0       ??_GSliderButton@UI@@UAEPAXI@Z 00484ff0 f i ui.obj
 0001:00083ff0       ??_EScrollButton@UI@@UAEPAXI@Z 00484ff0 f i * CIL library *:* CIL module *
 0001:00083ff0       ??_EWorld@UI@@UAEPAXI@Z    00484ff0 f i * CIL library *:* CIL module *
 0001:00083ff0       ??_GWorld@UI@@UAEPAXI@Z    00484ff0 f i ui.obj
 0001:00084040       ?deletecontents@?$vector@PAUObject@UI@@@@QAEXH@Z 00485040 f i ui.obj
 0001:00084070       ?add@?$vector@PAUeditor@@@@QAEAAPAUeditor@@ABQAU2@@Z 00485070 f i ui.obj
 0001:00084150       ?insert@?$vector@Ueditline@@@@QAEAAUeditline@@HABU2@@Z 00485150 f i ui.obj
 0001:000841f0       ?add@?$vector@Ueditline@@@@QAEAAUeditline@@XZ 004851f0 f i ui.obj
 0001:00084240       ?growbuf@?$vector@Ueditline@@@@QAEXH@Z 00485240 f i ui.obj
 0001:000842d0       ??$find@PBD@?$hashbase@U?$hashnameset@PAUWindow@UI@@@@PAUWindow@UI@@PBDPAU23@@@QAEABQAUWindow@UI@@ABQBDABQAU12@@Z 004852d0 f i ui.obj
 0001:00084360       ??0Gradient@UI@@QAE@XZ     00485360 f i ui.obj
 0001:000843e0       ??0KeyField@UI@@QAE@XZ     004853e0 f i ui.obj
 0001:00084460       ??0PlayerPreview@UI@@QAE@XZ 00485460 f i ui.obj
 0001:000844e0       ??0VSlotViewer@UI@@QAE@XZ  004854e0 f i ui.obj
 0001:00084560       ??_GGrid@UI@@UAEPAXI@Z     00485560 f i ui.obj
 0001:00084560       ??_EGrid@UI@@UAEPAXI@Z     00485560 f i * CIL library *:* CIL module *
 0001:000845f0       ??_ETableRow@UI@@UAEPAXI@Z 004855f0 f i * CIL library *:* CIL module *
 0001:000845f0       ??_GTableRow@UI@@UAEPAXI@Z 004855f0 f i ui.obj
 0001:00084640       ??_ETable@UI@@UAEPAXI@Z    00485640 f i * CIL library *:* CIL module *
 0001:00084640       ??_GTable@UI@@UAEPAXI@Z    00485640 f i ui.obj
 0001:000846b0       ??_EVerticalSlider@UI@@UAEPAXI@Z 004856b0 f i * CIL library *:* CIL module *
 0001:000846b0       ??_GVerticalSlider@UI@@UAEPAXI@Z 004856b0 f i ui.obj
 0001:000846b0       ??_EHorizontalSlider@UI@@UAEPAXI@Z 004856b0 f i * CIL library *:* CIL module *
 0001:000846b0       ??_GHorizontalSlider@UI@@UAEPAXI@Z 004856b0 f i ui.obj
 0001:00084700       ??_EFillColor@UI@@UAEPAXI@Z 00485700 f i * CIL library *:* CIL module *
 0001:00084700       ??_GFillColor@UI@@UAEPAXI@Z 00485700 f i ui.obj
 0001:00084750       ??_GGradient@UI@@UAEPAXI@Z 00485750 f i ui.obj
 0001:00084750       ??_GPlayerPreview@UI@@UAEPAXI@Z 00485750 f i ui.obj
 0001:00084750       ??_EPlayerPreview@UI@@UAEPAXI@Z 00485750 f i * CIL library *:* CIL module *
 0001:00084750       ??_EGradient@UI@@UAEPAXI@Z 00485750 f i * CIL library *:* CIL module *
 0001:000847a0       ??_GLine@UI@@UAEPAXI@Z     004857a0 f i ui.obj
 0001:000847a0       ??_EImage@UI@@UAEPAXI@Z    004857a0 f i * CIL library *:* CIL module *
 0001:000847a0       ??_GImage@UI@@UAEPAXI@Z    004857a0 f i ui.obj
 0001:000847a0       ??_EOutline@UI@@UAEPAXI@Z  004857a0 f i * CIL library *:* CIL module *
 0001:000847a0       ??_GOutline@UI@@UAEPAXI@Z  004857a0 f i ui.obj
 0001:000847a0       ??_ELine@UI@@UAEPAXI@Z     004857a0 f i * CIL library *:* CIL module *
 0001:000847f0       ??_GTriangle@UI@@UAEPAXI@Z 004857f0 f i ui.obj
 0001:000847f0       ??_ETriangle@UI@@UAEPAXI@Z 004857f0 f i * CIL library *:* CIL module *
 0001:00084840       ??_GBorderedImage@UI@@UAEPAXI@Z 00485840 f i ui.obj
 0001:00084840       ??_GCircle@UI@@UAEPAXI@Z   00485840 f i ui.obj
 0001:00084840       ??_GTiledImage@UI@@UAEPAXI@Z 00485840 f i ui.obj
 0001:00084840       ??_ECircle@UI@@UAEPAXI@Z   00485840 f i * CIL library *:* CIL module *
 0001:00084840       ??_EBorderedImage@UI@@UAEPAXI@Z 00485840 f i * CIL library *:* CIL module *
 0001:00084840       ??_ETiledImage@UI@@UAEPAXI@Z 00485840 f i * CIL library *:* CIL module *
 0001:00084890       ??_GKeyField@UI@@UAEPAXI@Z 00485890 f i ui.obj
 0001:00084890       ??_EKeyField@UI@@UAEPAXI@Z 00485890 f i * CIL library *:* CIL module *
 0001:000848e0       ??_GStretchedImage@UI@@UAEPAXI@Z 004858e0 f i ui.obj
 0001:000848e0       ??_ESlotViewer@UI@@UAEPAXI@Z 004858e0 f i * CIL library *:* CIL module *
 0001:000848e0       ??_EStretchedImage@UI@@UAEPAXI@Z 004858e0 f i * CIL library *:* CIL module *
 0001:000848e0       ??_GSlotViewer@UI@@UAEPAXI@Z 004858e0 f i ui.obj
 0001:00084930       ??_ECroppedImage@UI@@UAEPAXI@Z 00485930 f i * CIL library *:* CIL module *
 0001:00084930       ??_GCroppedImage@UI@@UAEPAXI@Z 00485930 f i ui.obj
 0001:00084980       ??_GVSlotViewer@UI@@UAEPAXI@Z 00485980 f i ui.obj
 0001:00084980       ??_EVSlotViewer@UI@@UAEPAXI@Z 00485980 f i * CIL library *:* CIL module *
 0001:000849d0       ?insert@?$hashbase@U?$hashnameset@PAUWindow@UI@@@@PAUWindow@UI@@PBDPAU23@@@QAEPAUchain@1@I@Z 004859d0 f i ui.obj
 0001:00084b30       ?hexcolor@vec@@SA?AU1@H@Z  00485b30 f i ui.obj
 0001:00084b80       ?getstr@ident@@QBEPBDXZ    00485b80 f i ui.obj
 0001:00084bd0       ??1defvar@@QAE@XZ          00485bd0 f i command.obj
 0001:00084c30       ?changed@defvar@@SAXPAUident@@@Z 00485c30 f i command.obj
 0001:00084c50       ??Rsortfun@@QAE_NABUsortitem@@0@Z 00485c50 f i command.obj
 0001:00084cf0       ?reserve@?$vector@I@@QAE?AU?$databuf@I@@H@Z 00485cf0 f i command.obj
 0001:00084d30       ??1?$hashbase@U?$hashnameset@Udefvar@@@@Udefvar@@PBDU2@@@QAE@XZ 00485d30 f i command.obj
 0001:00084dc0       ??A?$vector@PAUident@@@@QAEAAPAUident@@H@Z 00485dc0 f i command.obj
 0001:00084dd0       ??1chain@?$hashbase@U?$hashnameset@Udefvar@@@@Udefvar@@PBDU2@@@QAE@XZ 00485dd0 f i command.obj
 0001:00084e30       ??$access@PBD@?$hashbase@U?$hashnameset@Uident@@@@Uident@@PBDU2@@@QAEPAUident@@ABQBD@Z 00485e30 f i command.obj
 0001:00084e30       ??$access@PAD@?$hashbase@U?$hashnameset@Uident@@@@Uident@@PBDU2@@@QAEPAUident@@ABQAD@Z 00485e30 f i command.obj
 0001:00084ec0       ??$?APAD@?$hashbase@U?$hashnameset@Udefvar@@@@Udefvar@@PBDU2@@@QAEAAUdefvar@@ABQAD@Z 00485ec0 f i command.obj
 0001:00084f50       ??$access@Ustringslice@@@?$hashbase@U?$hashnameset@Uident@@@@Uident@@PBDU2@@@QAEPAUident@@ABUstringslice@@@Z 00485f50 f i command.obj
 0001:00085020       ?insert@?$hashbase@U?$hashnameset@Udefvar@@@@Udefvar@@PBDU2@@@QAEPAUchain@1@I@Z 00486020 f i command.obj
 0001:000851d0       ?insert@?$hashbase@U?$hashnameset@Uident@@@@Uident@@PBDU2@@@QAEPAUchain@1@I@Z 004861d0 f i command.obj
 0001:00085380       ??0chain@?$hashbase@U?$hashnameset@Udefvar@@@@Udefvar@@PBDU2@@@QAE@XZ 00486380 f i command.obj
 0001:000853d0       ?getcval@ident@@QBEXAAUtagval@@@Z 004863d0 f i command.obj
 0001:00085470       ?getcstr@ident@@QBEXAAUtagval@@@Z 00486470 f i command.obj
 0001:00085510       ?getval@ident@@QBEXAAUtagval@@@Z 00486510 f i command.obj
 0001:00085530       ?getfloat@ident@@QBEMXZ    00486530 f i command.obj
 0001:00085590       ?getint@ident@@QBEHXZ      00486590 f i command.obj
 0001:000855e0       ?setcstr@tagval@@QAEXPBD@Z 004865e0 f i command.obj
 0001:000855f0       ?setnull@tagval@@QAEXXZ    004865f0 f i command.obj
 0001:00085600       ??1keym@@QAE@XZ            00486600 f i console.obj
 0001:00085680       ?restore@hline@@QAEXXZ     00486680 f i console.obj
 0001:000857a0       ?run@hline@@QAEXXZ         004867a0 f i console.obj
 0001:00085800       ?update@filesval@@QAEXXZ   00486800 f i console.obj
 0001:000859a0       ?add@?$vector@Ureleaseaction@@@@QAEAAUreleaseaction@@XZ 004869a0 f i console.obj
 0001:00085a70       ??1?$hashbase@U?$hashtable@HUkeym@@@@U?$hashtableentry@HUkeym@@@@HUkeym@@@@QAE@XZ 00486a70 f i console.obj
 0001:00085ac0       ?deletechunks@?$hashbase@U?$hashtable@HUkeym@@@@U?$hashtableentry@HUkeym@@@@HUkeym@@@@QAEXXZ 00486ac0 f i console.obj
 0001:00085b40       ??1chain@?$hashbase@U?$hashtable@HUkeym@@@@U?$hashtableentry@HUkeym@@@@HUkeym@@@@QAE@XZ 00486b40 f i console.obj
 0001:00085b90       ??1?$hashtableentry@HUkeym@@@@QAE@XZ 00486b90 f i console.obj
 0001:00085bd0       ??$formatstring@$0CAA@@@YAXAAY0CAA@DPBDZZ 00486bd0 f i console.obj
 0001:00085c10       ??$access@H@?$hashbase@U?$hashtable@HUkeym@@@@U?$hashtableentry@HUkeym@@@@HUkeym@@@@QAEPAUkeym@@ABH@Z 00486c10 f i console.obj
 0001:00085c50       ??$access@PAD@?$hashbase@U?$hashtable@PADPAUfilesval@@@@U?$hashtableentry@PADPAUfilesval@@@@PADPAUfilesval@@@@QAEPAPAUfilesval@@ABQAD@Z 00486c50 f i console.obj
 0001:00085ce0       ??$?APAD@?$hashbase@U?$hashtable@PADPAUfilesval@@@@U?$hashtableentry@PADPAUfilesval@@@@PADPAUfilesval@@@@QAEAAPAUfilesval@@ABQAD@Z 00486ce0 f i console.obj
 0001:00085d80       ?insert@?$hashbase@U?$hashtable@Ufileskey@@PAUfilesval@@@@U?$hashtableentry@Ufileskey@@PAUfilesval@@@@Ufileskey@@PAUfilesval@@@@QAEPAUchain@1@I@Z 00486d80 f i console.obj
 0001:00085f20       ?insert@?$hashbase@U?$hashtable@HUkeym@@@@U?$hashtableentry@HUkeym@@@@HUkeym@@@@QAEPAUchain@1@I@Z 00486f20 f i console.obj
 0001:000860e0       ??0chain@?$hashbase@U?$hashtable@HUkeym@@@@U?$hashtableentry@HUkeym@@@@HUkeym@@@@QAE@XZ 004870e0 f i console.obj
 0001:00086160       ??$concformatstring@$0CAA@@@YAXAAY0CAA@DPBDZZ 00487160 f i main.obj
 0001:000861b0       ?addindex@aviwriter@@QAEAAUaviindexentry@@HHH@Z 004871b0 f i movie.obj
 0001:00086350       ?startchunk@aviwriter@@QAEXPBDI@Z 00487350 f i movie.obj
 0001:000863b0       ?listchunk@aviwriter@@QAEXPBD0@Z 004873b0 f i movie.obj
 0001:00086420       ?endlistchunk@aviwriter@@QAEXXZ 00487420 f i movie.obj
 0001:00086490       ?writechunk@aviwriter@@QAEXPBDPBXI@Z 00487490 f i movie.obj
 0001:000864f0       ?close@aviwriter@@QAEXXZ   004874f0 f i movie.obj
 0001:00086860       ??0aviwriter@@QAE@PBDIII_N@Z 00487860 f i movie.obj
 0001:00086ae0       ?open@aviwriter@@QAE_NXZ   00487ae0 f i movie.obj
 0001:00087880       ?boxsample@aviwriter@@SAXPBEIIIIIIIIAAI11@Z 00488880 f i movie.obj
 0001:00087cf0       ?scaleyuv@aviwriter@@QAEXPBEII@Z 00488cf0 f i movie.obj
 0001:00088250       ?encodeyuv@aviwriter@@QAEXPBE@Z 00489250 f i movie.obj
 0001:00088520       ?compressyuv@aviwriter@@QAEXPBE@Z 00489520 f i movie.obj
 0001:000886d0       ?writesound@aviwriter@@QAE_NPAEII@Z 004896d0 f i movie.obj
 0001:000888c0       ?flushsegment@aviwriter@@QAEXXZ 004898c0 f i movie.obj
 0001:00088d60       ?nextsegment@aviwriter@@QAE_NXZ 00489d60 f i movie.obj
 0001:00088ef0       ?writevideoframe@aviwriter@@QAE_NPBEIIHI@Z 00489ef0 f i movie.obj
 0001:00089000       ??0soundbuffer@recorder@@QAE@XZ 0048a000 f i movie.obj
 0001:00089010       ??1soundbuffer@recorder@@QAE@XZ 0048a010 f i movie.obj
 0001:00089060       ?init@videobuffer@recorder@@QAEXHHH@Z 0048a060 f i movie.obj
 0001:000890c0       ??_Gaviwriter@@QAEPAXI@Z   0048a0c0 f i movie.obj
 0001:00089180       ??0soundtype@@QAE@PBD@Z    0048a180 f i sound.obj
 0001:00089250       ?addslot@soundtype@@QAEHPBDH@Z 0048a250 f i sound.obj
 0001:000894e0       ?addsound@soundtype@@QAEHPBDHH@Z 0048a4e0 f i sound.obj
 0001:000895b0       ?reset@soundtype@@QAEXXZ   0048a5b0 f i sound.obj
 0001:00089650       ?cleanupsamples@soundtype@@QAEXXZ 0048a650 f i sound.obj
 0001:000896a0       ?preloadsound@soundtype@@QAEXH@Z 0048a6a0 f i sound.obj
 0001:000896f0       ?playing@soundtype@@QBE_NABUsoundchannel@@ABUsoundconfig@@@Z 0048a6f0 f i sound.obj
 0001:00089740       ??1soundtype@@QAE@XZ       0048a740 f i sound.obj
 0001:000897f0       ??1?$hashnameset@Usoundsample@@@@QAE@XZ 0048a7f0 f i sound.obj
 0001:00089850       ??1?$hashbase@U?$hashnameset@Usoundsample@@@@Usoundsample@@PBDU2@@@QAE@XZ 0048a850 f i sound.obj
 0001:000898a0       ?inrange@?$vector@Usoundchannel@@@@QBE_NH@Z 0048a8a0 f i sound.obj
 0001:000898c0       ?deletechunks@?$hashbase@U?$hashnameset@Usoundsample@@@@Usoundsample@@PBDU2@@@QAEXXZ 0048a8c0 f i sound.obj
 0001:00089940       ??1chain@?$hashbase@U?$hashnameset@Uzipfile@@@@Uzipfile@@PBDU2@@@QAE@XZ 0048a940 f i zip.obj
 0001:00089940       ??1chain@?$hashbase@U?$hashnameset@Usoundsample@@@@Usoundsample@@PBDU2@@@QAE@XZ 0048a940 f i sound.obj
 0001:00089990       ?insert@?$hashbase@U?$hashnameset@Usoundsample@@@@Usoundsample@@PBDU2@@@QAEPAUchain@1@I@Z 0048a990 f i sound.obj
 0001:00089b20       ??0chain@?$hashbase@U?$hashnameset@Usoundsample@@@@Usoundsample@@PBDU2@@@QAE@XZ 0048ab20 f i sound.obj
 0001:00089b60       ??0stainbuffer@@QAE@XZ     0048ab60 f i stain.obj
 0001:00089ba0       ?render@stainbuffer@@QAEXXZ 0048aba0 f i stain.obj
 0001:00089cd0       ??1stainrenderer@@QAE@XZ   0048acd0 f i stain.obj
 0001:00089d40       ?freestain@stainrenderer@@QAEHXZ 0048ad40 f i stain.obj
 0001:00089dc0       ?fadestain@stainrenderer@@QAEXABUstaininfo@@E@Z 0048adc0 f i stain.obj
 0001:00089ec0       ?clearfadedstains@stainrenderer@@QAEXXZ 0048aec0 f i stain.obj
 0001:0008a080       ?fadeinstains@stainrenderer@@QAEXXZ 0048b080 f i stain.obj
 0001:0008a330       ?fadeoutstains@stainrenderer@@QAEXXZ 0048b330 f i stain.obj
 0001:0008a600       ?render@stainrenderer@@QAEXH@Z 0048b600 f i stain.obj
 0001:0008a980       ?addstain@stainrenderer@@QAEXABUvec@@0MABUbvec@@H@Z 0048b980 f i stain.obj
 0001:0008af50       ?gentris@stainrenderer@@QAEXAAUcube@@HABUivec@@HPAUmaterialsurface@@H@Z 0048bf50 f i stain.obj
 0001:0008c4b0       ?findescaped@stainrenderer@@QAEXPAUcube@@ABUivec@@HH@Z 0048d4b0 f i stain.obj
 0001:0008c5a0       ?genmmtri@stainrenderer@@QAEXQBUvec@@@Z 0048d5a0 f i stain.obj
 0001:0008ce10       ?genmmtris@stainrenderer@@QAEXAAUoctaentities@@@Z 0048de10 f i stain.obj
 0001:0008d0d0       ?gentris@stainrenderer@@QAEXPAUcube@@ABUivec@@HH@Z 0048e0d0 f i stain.obj
 0001:0008d4e0       ?invert@gfield@@QAE_NABU1@@Z 0048e4e0 f i crypto.obj
 0001:0008df10       ?sqrt@gfield@@QAE_NABU1@@Z 0048ef10 f i crypto.obj
 0001:0008e190       ?mul2@ecjacobian@@QAEXXZ   0048f190 f i crypto.obj
 0001:0008e470       ?add@ecjacobian@@QAEXABU1@@Z 0048f470 f i crypto.obj
 0001:0008e6f0       ?normalize@ecjacobian@@QAEXXZ 0048f6f0 f i crypto.obj
 0001:0008e760       ?parse@ecjacobian@@QAEXPBD@Z 0048f760 f i crypto.obj
 0001:0008e840       ?rshift@?$bigint@$0N@@@QAEAAU1@H@Z 0048f840 f i crypto.obj
 0001:0008e950       ?printdigits@?$bigint@$0N@@@QBEXAAU?$vector@D@@@Z 0048f950 f i crypto.obj
 0001:0008e9f0       ?parse@?$bigint@$0N@@@QAEXPBD@Z 0048f9f0 f i crypto.obj
 0001:0008eaf0       ??$add@$0N@$0N@@?$bigint@$0N@@@QAEAAU0@ABU0@0@Z 0048faf0 f i crypto.obj
 0001:0008ebb0       ??$?M$0N@@?$bigint@$0N@@@QBE_NABU0@@Z 0048fbb0 f i crypto.obj
 0001:0008ec00       ??$sub@$0N@$0N@@?$bigint@$0N@@@QAEAAU0@ABU0@0@Z 0048fc00 f i crypto.obj
 0001:0008ecc0       ??$pow@$0N@$0N@@gfield@@QAEAAU0@ABU?$bigint@$0N@@@0@Z 0048fcc0 f i crypto.obj
 0001:0008ed70       ??$sub@$0N@$0N@@gfield@@QAEAAU0@ABU?$bigint@$0N@@@0@Z 0048fd70 f i crypto.obj
 0001:0008edd0       ??$sub@$0N@@gfield@@QAEAAU0@ABU?$bigint@$0N@@@@Z 0048fdd0 f i crypto.obj
 0001:0008ee20       ??$mul@$0N@$0N@@gfield@@QAEAAU0@ABU?$bigint@$0N@@@0@Z 0048fe20 f i crypto.obj
 0001:0008ef50       ??$add@$0N@$0N@@gfield@@QAEAAU0@ABU?$bigint@$0N@@@0@Z 0048ff50 f i crypto.obj
 0001:0008efc0       ??$mul@$0N@@ecjacobian@@QAEXABU?$bigint@$0N@@@@Z 0048ffc0 f i crypto.obj
 0001:0008f090       ?numbits@?$bigint@$0N@@@QBEHXZ 00490090 f i crypto.obj
 0001:0008f0e0       ??$reduce@$0BK@@gfield@@QAEXABU?$bigint@$0BK@@@@Z 004900e0 f i crypto.obj
 0001:0008f290       ??$copybits@$0BK@@?$bigint@$0N@@@QAEXHABU?$bigint@$0BK@@@HH@Z 00490290 f i crypto.obj
 0001:0008f320       ?close@filestream@@UAEXXZ  00490320 f i stream.obj
 0001:0008f340       ?end@filestream@@UAE_NXZ   00490340 f i stream.obj
 0001:0008f360       ?tell@filestream@@UAE_JXZ  00490360 f i stream.obj
 0001:0008f390       ?seek@filestream@@UAE_N_JH@Z 00490390 f i stream.obj
 0001:0008f3b0       ?read@filestream@@UAEIPAXI@Z 004903b0 f i stream.obj
 0001:0008f3d0       ?write@filestream@@UAEIPBXI@Z 004903d0 f i stream.obj
 0001:0008f3f0       ?flush@filestream@@UAE_NXZ 004903f0 f i stream.obj
 0001:0008f410       ?getchar@filestream@@UAEHXZ 00490410 f i stream.obj
 0001:0008f420       ?putchar@filestream@@UAE_NH@Z 00490420 f i stream.obj
 0001:0008f440       ?getline@filestream@@UAE_NPADI@Z 00490440 f i stream.obj
 0001:0008f460       ?putstring@filestream@@UAE_NPBD@Z 00490460 f i stream.obj
 0001:0008f480       ?printf@filestream@@UAAIPBDZZ 00490480 f i stream.obj
 0001:0008f4c0       ??_Gfilestream@@UAEPAXI@Z  004904c0 f i stream.obj
 0001:0008f4c0       ??_Efilestream@@UAEPAXI@Z  004904c0 f i * CIL library *:* CIL module *
 0001:0008f540       ?readbyte@gzstream@@QAEEI@Z 00490540 f i stream.obj
 0001:0008f590       ?skipbytes@gzstream@@QAEXI@Z 00490590 f i stream.obj
 0001:0008f5d0       ?checkheader@gzstream@@QAE_NXZ 004905d0 f i stream.obj
 0001:0008f7f0       ?getcrc@gzstream@@UAEIXZ   004907f0 f i stream.obj
 0001:0008f800       ?finishreading@gzstream@@QAEXXZ 00490800 f i stream.obj
 0001:0008f910       ?stopreading@gzstream@@QAEXXZ 00490910 f i stream.obj
 0001:0008f930       ?stopwriting@gzstream@@QAEXXZ 00490930 f i stream.obj
 0001:0008f950       ?close@gzstream@@UAEXXZ    00490950 f i stream.obj
 0001:0008faa0       ?end@gzstream@@UAE_NXZ     00490aa0 f i stream.obj
 0001:0008fac0       ?tell@gzstream@@UAE_JXZ    00490ac0 f i stream.obj
 0001:0008fae0       ?rawtell@gzstream@@UAE_JXZ 00490ae0 f i stream.obj
 0001:0008fb00       ?size@gzstream@@UAE_JXZ    00490b00 f i stream.obj
 0001:0008fb90       ?rawsize@gzstream@@UAE_JXZ 00490b90 f i stream.obj
 0001:0008fbb0       ?seek@gzstream@@UAE_N_JH@Z 00490bb0 f i stream.obj
 0001:0008fd20       ?read@gzstream@@UAEIPAXI@Z 00490d20 f i stream.obj
 0001:0008fe00       ?flush@gzstream@@UAE_NXZ   00490e00 f i stream.obj
 0001:0008fe70       ?write@gzstream@@UAEIPBXI@Z 00490e70 f i stream.obj
 0001:0008ff30       ??_Ggzstream@@UAEPAXI@Z    00490f30 f i stream.obj
 0001:0008ff30       ??_Egzstream@@UAEPAXI@Z    00490f30 f i * CIL library *:* CIL module *
 0001:0008ffa0       ?readbuf@utf8stream@@QAE_NI@Z 00490fa0 f i stream.obj
 0001:00090080       ?checkheader@utf8stream@@QAE_NXZ 00491080 f i stream.obj
 0001:000900c0       ?close@utf8stream@@UAEXXZ  004910c0 f i stream.obj
 0001:00090100       ?end@utf8stream@@UAE_NXZ   00491100 f i stream.obj
 0001:00090120       ?tell@utf8stream@@UAE_JXZ  00491120 f i stream.obj
 0001:00090140       ?seek@utf8stream@@UAE_N_JH@Z 00491140 f i stream.obj
 0001:000902a0       ?read@utf8stream@@UAEIPAXI@Z 004912a0 f i stream.obj
 0001:00090330       ?getline@utf8stream@@UAE_NPADI@Z 00491330 f i stream.obj
 0001:00090400       ?write@utf8stream@@UAEIPBXI@Z 00491400 f i stream.obj
 0001:00090630       ?flush@utf8stream@@UAE_NXZ 00491630 f i stream.obj
 0001:00090640       ??_Gutf8stream@@UAEPAXI@Z  00491640 f i stream.obj
 0001:00090640       ??_Eutf8stream@@UAEPAXI@Z  00491640 f i * CIL library *:* CIL module *
 0001:000906d0       ??_Estream@@UAEPAXI@Z      004916d0 f i * CIL library *:* CIL module *
 0001:000906d0       ??_Gstream@@UAEPAXI@Z      004916d0 f i stream.obj
 0001:00090700       ?rawtell@stream@@UAE_JXZ   00491700 f i stream.obj
 0001:00090710       ?rawsize@stream@@UAE_JXZ   00491710 f i stream.obj
 0001:00090720       ?getchar@stream@@UAEHXZ    00491720 f i stream.obj
 0001:00090740       ?putstring@stream@@UAE_NPBD@Z 00491740 f i stream.obj
 0001:00090770       ?putchar@stream@@UAE_NH@Z  00491770 f i stream.obj
 0001:00090790       ?putline@stream@@UAE_NPBD@Z 00491790 f i stream.obj
 0001:000907c0       ??1stream@@UAE@XZ          004917c0 f i stream.obj
 0001:000907d0       ?tell@stream@@UAE_JXZ      004917d0 f i stream.obj
 0001:000907e0       ?seek@stream@@UAE_N_JH@Z   004917e0 f i stream.obj
 0001:000907f0       ?put@packetbuf@@QAEXABE@Z  004917f0 f i tools.obj
 0001:00090860       ??1?$hashnameset@Uzipfile@@@@QAE@XZ 00491860 f i zip.obj
 0001:000908a0       ?stopreading@zipstream@@QAEXXZ 004918a0 f i zip.obj
 0001:00090910       ?close@zipstream@@UAEXXZ   00491910 f i zip.obj
 0001:00090950       ?size@zipstream@@UAE_JXZ   00491950 f i zip.obj
 0001:00090960       ?end@zipstream@@UAE_NXZ    00491960 f i zip.obj
 0001:00090980       ?tell@zipstream@@UAE_JXZ   00491980 f i zip.obj
 0001:000909b0       ?seek@zipstream@@UAE_N_JH@Z 004919b0 f i zip.obj
 0001:00090bc0       ?read@zipstream@@UAEIPAXI@Z 00491bc0 f i zip.obj
 0001:00090d70       ??_Gzipstream@@UAEPAXI@Z   00491d70 f i zip.obj
 0001:00090d70       ??_Ezipstream@@UAEPAXI@Z   00491d70 f i * CIL library *:* CIL module *
 0001:00090e10       ??1?$vector@Uzipfile@@@@QAE@XZ 00491e10 f i zip.obj
 0001:00090e80       ??1?$hashbase@U?$hashnameset@Uzipfile@@@@Uzipfile@@PBDU2@@@QAE@XZ 00491e80 f i zip.obj
 0001:00090f10       ?insert@?$hashbase@U?$hashnameset@Uzipfile@@@@Uzipfile@@PBDU2@@@QAEPAUchain@1@I@Z 00491f10 f i zip.obj
 0001:000910c0       ??0chain@?$hashbase@U?$hashnameset@Uzipfile@@@@Uzipfile@@PBDU2@@@QAE@XZ 004920c0 f i zip.obj
 0001:00091120       ??1avoidset@ai@@QAE@XZ     00492120 f i ai.obj
 0001:000911a0       ?add@?$vector@Uinterest@ai@@@@QAEAAUinterest@ai@@XZ 004921a0 f i ai.obj
 0001:00091280       ?add@avoidset@ai@@QAEXPAXM@Z 00492280 f i ai.obj
 0001:00091350       ?add@avoidset@ai@@QAEXAAU12@@Z 00492350 f i ai.obj
 0001:00091530       ?addprevnode@aiinfo@ai@@QAEXH@Z 00492530 f i ai.obj
 0001:00091560       ?switchstate@aiinfo@ai@@QAEAAUaistate@2@AAU32@HHH@Z 00492560 f i ai.obj
 0001:000915c0       ?feetpos@physent@@QBE?AUvec@@M@Z 004925c0 f i ai.obj
 0001:00091600       ?find@avoidset@ai@@QBE_NHPAUgameent@@@Z 00492600 f i ai.obj
 0001:00091680       ??_Gaiinfo@ai@@QAEPAXI@Z   00492680 f i ai.obj
 0001:00091710       ?clearsetup@aiinfo@ai@@QAEXXZ 00492710 f i ai.obj
 0001:000917d0       ?addstate@aiinfo@ai@@QAEAAUaistate@2@HHH@Z 004927d0 f i ai.obj
 0001:000918d0       ?reset@aiinfo@ai@@QAEX_N@Z 004928d0 f i ai.obj
 0001:00091940       ??1gameent@@QAE@XZ         00492940 f i game.obj
 0001:00091a40       ??0dynent@@QAE@XZ          00492a40 f i game.obj
 0001:00091c10       ??1dynent@@QAE@XZ          00492c10 f i game.obj
 0001:00091c30       ??0gameent@@QAE@XZ         00492c30 f i game.obj
 0001:00091da0       ?spawnstate@gamestate@@QAEXH@Z 00492da0 f i game.obj
 0001:00091e40       ?reset@dynent@@QAEXXZ      00492e40 f i game.obj
 0001:00091ec0       ?respawn@gameent@@QAEXXZ   00492ec0 f i game.obj
 0001:00091fb0       ?compare@teamscore@@SA_NABU1@0@Z 00492fb0 f i scoreboard.obj
 0001:00091fe0       ??0wpcache@ai@@QAE@XZ      00492fe0 f i waypoint.obj
 0001:00092080       ?build@wpcache@ai@@QAEXHH@Z 00493080 f i waypoint.obj
 0001:000922c0       ?build@wpcache@ai@@QAEXPAHHABUvec@@1@Z 004932c0 f i waypoint.obj
 0001:000929a0       ?add@?$vector@PAUwaypoint@ai@@@@QAEAAPAUwaypoint@ai@@ABQAU23@@Z 004939a0 f i waypoint.obj
 0001:00092a80       ?add@?$vector@PAUnode@wpcache@ai@@@@QAEAAPAUnode@wpcache@ai@@ABQAU234@@Z 00493a80 f i waypoint.obj
 0001:00092b60       ?add@?$vector@Uwaypoint@ai@@@@QAEAAUwaypoint@ai@@ABU23@@Z 00493b60 f i waypoint.obj
 0001:00092c60       ??0waypoint@ai@@QAE@ABUvec@@H@Z 00493c60 f i waypoint.obj
 0001:00092c90       ?remove@?$vector@Uprojectile@game@@@@QAE?AUprojectile@game@@H@Z 00493c90 f i weapon.obj
 0001:00092d50       ?crouched@physent@@QBE_NXZ 00493d50 f i weapon.obj
 0001:00092d90       ?reset@flag@ctfclientmode@game@@QAEXXZ 00493d90 f i client1.obj
 0001:00092e50       ?pos@flag@ctfclientmode@game@@QBE?AUvec@@XZ 00493e50 f i client1.obj
 0001:00092ee0       ?dropflag@ctfclientmode@game@@QAEXHABUvec@@MH@Z 00493ee0 f i client1.obj
 0001:00092f50       ?returnflag@ctfclientmode@game@@QAEXH@Z 00493f50 f i client1.obj
 0001:00092fb0       ?getteamscore@ctfservmode@server@@UAEHH@Z 00493fb0 f i server1.obj
 0001:00092fb0       ?getteamscore@ctfclientmode@game@@UAEHH@Z 00493fb0 f i client1.obj
 0001:00092fd0       ?getteamscores@ctfclientmode@game@@UAEXAAU?$vector@Uteamscore@@@@@Z 00493fd0 f i client1.obj
 0001:00092fd0       ?getteamscores@ctfservmode@server@@UAEXAAU?$vector@Uteamscore@@@@@Z 00493fd0 f i server1.obj
 0001:000930b0       ?preload@ctfclientmode@game@@UAEXXZ 004940b0 f i client1.obj
 0001:000930f0       ?clipconsole@ctfclientmode@game@@UAEMMM@Z 004940f0 f i client1.obj
 0001:00093100       ?drawhud@ctfclientmode@game@@UAEXPAUgameent@@HH@Z 00494100 f i client1.obj
 0001:00093950       ?removeplayer@ctfclientmode@game@@UAEXPAUgameent@@@Z 00494950 f i client1.obj
 0001:00093a00       ?interpflagpos@ctfclientmode@game@@QAE?AUvec@@AAUflag@12@AAM@Z 00494a00 f i client1.obj
 0001:00093b60       ?rendergame@ctfclientmode@game@@UAEXXZ 00494b60 f i client1.obj
 0001:00093d60       ?setup@ctfclientmode@game@@UAEXXZ 00494d60 f i client1.obj
 0001:00093ee0       ?senditems@ctfclientmode@game@@UAEXAAUpacketbuf@@@Z 00494ee0 f i client1.obj
 0001:00093f80       ?parseflags@ctfclientmode@game@@QAEXAAU?$databuf@E@@_N@Z 00494f80 f i client1.obj
 0001:00094160       ?teamcolorflag@ctfclientmode@game@@QAEPBDAAUflag@12@@Z 00495160 f i client1.obj
 0001:000941d0       ?flagexplosion@ctfclientmode@game@@QAEXHHABUvec@@@Z 004951d0 f i client1.obj
 0001:00094300       ?flageffect@ctfclientmode@game@@QAEXHHABUvec@@0@Z 00495300 f i client1.obj
 0001:000943c0       ?scoreflag@ctfclientmode@game@@QAEXPAUgameent@@HHHHHHH@Z 004953c0 f i client1.obj
 0001:00094700       ?checkitems@ctfclientmode@game@@UAEXPAUgameent@@@Z 00495700 f i client1.obj
 0001:00094a20       ?respawned@ctfclientmode@game@@UAEXPAUgameent@@@Z 00495a20 f i client1.obj
 0001:00094b00       ?respawnwait@ctfclientmode@game@@UAEHPAUgameent@@H@Z 00495b00 f i client1.obj
 0001:00094b40       ?aihomerun@ctfclientmode@game@@QAE_NPAUgameent@@AAUaistate@ai@@@Z 00495b40 f i client1.obj
 0001:00094ff0       ?aicheck@ctfclientmode@game@@UAE_NPAUgameent@@AAUaistate@ai@@@Z 00495ff0 f i client1.obj
 0001:00095280       ?aifind@ctfclientmode@game@@UAEXPAUgameent@@AAUaistate@ai@@AAU?$vector@Uinterest@ai@@@@@Z 00496280 f i client1.obj
 0001:00095cb0       ?aidefend@ctfclientmode@game@@UAE_NPAUgameent@@AAUaistate@ai@@@Z 00496cb0 f i client1.obj
 0001:00096380       ?aipursue@ctfclientmode@game@@UAE_NPAUgameent@@AAUaistate@ai@@@Z 00497380 f i client1.obj
 0001:000964d0       ??_Gctfclientmode@game@@UAEPAXI@Z 004974d0 f i client1.obj
 0001:000964d0       ??_Ectfclientmode@game@@UAEPAXI@Z 004974d0 f i * CIL library *:* CIL module *
 0001:00096550       ?remove@?$vector@Udemoreq@game@@@@QAE?AUdemoreq@game@@H@Z 00497550 f i client1.obj
 0001:000965e0       ?validate@selinfo@@QAE_NXZ 004975e0 f i client1.obj
 0001:00096720       ??1clientmode@game@@UAE@XZ 00497720 f i client1.obj
 0001:00096730       ??_Eclientmode@game@@UAEPAXI@Z 00497730 f i * CIL library *:* CIL module *
 0001:00096730       ??_Gclientmode@game@@UAEPAXI@Z 00497730 f i client1.obj
 0001:00096760       ?clipconsole@clientmode@game@@UAEMMM@Z 00497760 f i client1.obj
 0001:00096770       ?pickspawn@clientmode@game@@UAEXPAUgameent@@@Z 00497770 f i client1.obj
 0001:000967b0       ??1gameevent@server@@UAE@XZ 004977b0 f i server1.obj
 0001:000967c0       ??_Egameevent@server@@UAEPAXI@Z 004977c0 f i * CIL library *:* CIL module *
 0001:000967c0       ??_Ggameevent@server@@UAEPAXI@Z 004977c0 f i server1.obj
 0001:000967f0       ?respawn@servstate@server@@QAEXXZ 004977f0 f i server1.obj
 0001:00096880       ?save@savedscore@server@@QAEXAAUservstate@2@@Z 00497880 f i server1.obj
 0001:000968f0       ??0clientinfo@server@@QAE@XZ 004978f0 f i server1.obj
 0001:00096ae0       ?addevent@clientinfo@server@@QAEXPAUgameevent@2@@Z 00497ae0 f i server1.obj
 0001:00096bd0       ?calcpushrange@clientinfo@server@@QAEHXZ 00497bd0 f i server1.obj
 0001:00096c10       ?setpushed@clientinfo@server@@QAEXXZ 00497c10 f i server1.obj
 0001:00096c90       ?mapchange@clientinfo@server@@QAEXXZ 00497c90 f i server1.obj
 0001:00096db0       ?cleanauth@clientinfo@server@@QAEX_N@Z 00497db0 f i server1.obj
 0001:00096e10       ??_Gclientinfo@server@@QAEPAXI@Z 00497e10 f i server1.obj
 0001:00096f90       ??1servmode@server@@UAE@XZ 00497f90 f i server1.obj
 0001:00096fa0       ?moved@servmode@server@@UAEXPAUclientinfo@2@ABUvec@@_N12@Z 00497fa0 f i server1.obj
 0001:00096fb0       ?fragvalue@servmode@server@@UAEHPAUclientinfo@2@0@Z 00497fb0 f i server1.obj
 0001:00097000       ?canchangeteam@servmode@server@@UAE_NPAUclientinfo@2@HH@Z 00498000 f i server1.obj
 0001:00097000       ?canchangeteam@ctfservmode@server@@UAE_NPAUclientinfo@2@HH@Z 00498000 f i server1.obj
 0001:00097010       ??_Eservmode@server@@UAEPAXI@Z 00498010 f i * CIL library *:* CIL module *
 0001:00097010       ??_Gservmode@server@@UAEPAXI@Z 00498010 f i server1.obj
 0001:00097040       ?reset@flag@ctfservmode@server@@QAEXXZ 00498040 f i server1.obj
 0001:000970a0       ?addflag@ctfservmode@server@@QAE_NHABUvec@@H@Z 004980a0 f i server1.obj
 0001:00097230       ?returnflag@ctfservmode@server@@QAEXH@Z 00498230 f i server1.obj
 0001:00097270       ?cleanup@ctfservmode@server@@UAEXXZ 00498270 f i server1.obj
 0001:000972a0       ?setup@ctfservmode@server@@UAEXXZ 004982a0 f i server1.obj
 0001:00097340       ?newmap@ctfservmode@server@@UAEXXZ 00498340 f i server1.obj
 0001:00097370       ?dropflag@ctfservmode@server@@QAEXPAUclientinfo@2@0@Z 00498370 f i server1.obj
 0001:000974e0       ?leavegame@ctfservmode@server@@UAEXPAUclientinfo@2@_N@Z 004984e0 f i server1.obj
 0001:00097530       ?died@ctfservmode@server@@UAEXPAUclientinfo@2@0@Z 00498530 f i server1.obj
 0001:000975c0       ?canspawn@ctfservmode@server@@UAE_NPAUclientinfo@2@_N@Z 004985c0 f i server1.obj
 0001:00097600       ?changeteam@ctfservmode@server@@UAEXPAUclientinfo@2@HH@Z 00498600 f i server1.obj
 0001:00097610       ?takeflag@ctfservmode@server@@QAEXPAUclientinfo@2@HH@Z 00498610 f i server1.obj
 0001:00097890       ?update@ctfservmode@server@@UAEXXZ 00498890 f i server1.obj
 0001:00097930       ?initclient@ctfservmode@server@@UAEXPAUclientinfo@2@AAUpacketbuf@@_N@Z 00498930 f i server1.obj
 0001:00097a30       ??_Gctfservmode@server@@UAEPAXI@Z 00498a30 f i server1.obj
 0001:00097a30       ??_Ectfservmode@server@@UAEPAXI@Z 00498a30 f i * CIL library *:* CIL module *
 0001:00097ab0       ??1userinfo@server@@QAE@XZ 00498ab0 f i server1.obj
 0001:00097b10       ??0msgfilter@server@@QAA@HZZ 00498b10 f i server1.obj
 0001:00097b60       ?compare@crcinfo@server@@SA_NABU12@0@Z 00498b60 f i server1.obj
 0001:00097b80       ?add@banlist@server@@QAEXPBD@Z 00498b80 f i server1.obj
 0001:00097d90       ??_Gsuicideevent@server@@UAEPAXI@Z 00498d90 f i server1.obj
 0001:00097d90       ??_Esuicideevent@server@@UAEPAXI@Z 00498d90 f i * CIL library *:* CIL module *
 0001:00097de0       ??_Eshotevent@server@@UAEPAXI@Z 00498de0 f i * CIL library *:* CIL module *
 0001:00097de0       ??_Gshotevent@server@@UAEPAXI@Z 00498de0 f i server1.obj
 0001:00097e60       ??1timedevent@server@@UAE@XZ 00498e60 f i server1.obj
 0001:00097ea0       ??_Etimedevent@server@@UAEPAXI@Z 00498ea0 f i * CIL library *:* CIL module *
 0001:00097ea0       ??_Epickupevent@server@@UAEPAXI@Z 00498ea0 f i * CIL library *:* CIL module *
 0001:00097ea0       ??_Gtimedevent@server@@UAEPAXI@Z 00498ea0 f i server1.obj
 0001:00097ea0       ??_Gpickupevent@server@@UAEPAXI@Z 00498ea0 f i server1.obj
 0001:00097ef0       ??_Eexplodeevent@server@@UAEPAXI@Z 00498ef0 f i * CIL library *:* CIL module *
 0001:00097ef0       ??_Gexplodeevent@server@@UAEPAXI@Z 00498ef0 f i server1.obj
 0001:00097f70       ??1?$hashbase@U?$hashset@Uuserinfo@server@@@@Uuserinfo@server@@U23@U23@@@QAE@XZ 00498f70 f i server1.obj
 0001:00097fc0       ?add@?$vector@Userver_entity@server@@@@QAEAAUserver_entity@server@@ABU23@@Z 00498fc0 f i server1.obj
 0001:000980b0       ?add@?$vector@Umaprotation@server@@@@QAEAAUmaprotation@server@@XZ 004990b0 f i server1.obj
 0001:00098180       ?add@?$vector@Uban@server@@@@QAEAAUban@server@@ABU23@@Z 00499180 f i server1.obj
 0001:00098270       ?add@?$vector@Uhitinfo@server@@@@QAEAAUhitinfo@server@@XZ 00499270 f i server1.obj
 0001:00098330       ?deletechunks@?$hashbase@U?$hashset@Uuserinfo@server@@@@Uuserinfo@server@@U23@U23@@@QAEXXZ 00499330 f i server1.obj
 0001:000983b0       ??1chain@?$hashbase@U?$hashset@Uuserinfo@server@@@@Uuserinfo@server@@U23@U23@@@QAE@XZ 004993b0 f i server1.obj
 0001:00098420       ??$formatstring@$0CAI@@@YAXAAY0CAI@DPBDZZ 00499420 f i server1.obj
 0001:00098460       ??$sendstate@Upacketbuf@@@server@@YAXAAUservstate@0@AAUpacketbuf@@@Z 00499460 f i server1.obj
 0001:00098560       ??$access@Uuserkey@server@@@?$hashbase@U?$hashset@Uuserinfo@server@@@@Uuserinfo@server@@U23@U23@@@QAEPAUuserinfo@server@@ABUuserkey@2@@Z 00499560 f i server1.obj
 0001:00098620       ?insert@?$hashbase@U?$hashset@Uuserinfo@server@@@@Uuserinfo@server@@U23@U23@@@QAEPAUchain@1@I@Z 00499620 f i server1.obj
 0001:000987e0       ??0chain@?$hashbase@U?$hashset@Uuserinfo@server@@@@Uuserinfo@server@@U23@U23@@@QAE@XZ 004997e0 f i server1.obj
 0001:0009882e       ___WSAFDIsSet@8            0049982e f   ws2_32:WS2_32.dll
 0001:00098834       ??3@YAXPAXI@Z              00499834 f   LIBCMT:delete_scalar_size.obj
 0001:00098886       ___scrt_acquire_startup_lock 00499886 f   LIBCMT:utility.obj
 0001:000988b8       ___scrt_initialize_crt     004998b8 f   LIBCMT:utility.obj
 0001:000988f1       ___scrt_initialize_onexit_tables 004998f1 f   LIBCMT:utility.obj
 0001:00098978       ___scrt_is_nonwritable_in_current_image 00499978 f   LIBCMT:utility.obj
 0001:00098a0c       ___scrt_release_startup_lock 00499a0c f   LIBCMT:utility.obj
 0001:00098a29       ___scrt_uninitialize_crt   00499a29 f   LIBCMT:utility.obj
 0001:00098a51       __onexit                   00499a51 f   LIBCMT:utility.obj
 0001:00098a7e       _atexit                    00499a7e f   LIBCMT:utility.obj
 0001:00098b58       __Init_thread_abort        00499b58 f   LIBCMT:thread_safe_statics.obj
 0001:00098b7c       __Init_thread_footer       00499b7c f   LIBCMT:thread_safe_statics.obj
 0001:00098bc6       __Init_thread_header       00499bc6 f   LIBCMT:thread_safe_statics.obj
 0001:00098c18       __Init_thread_notify       00499c18 f   LIBCMT:thread_safe_statics.obj
 0001:00098c4e       __Init_thread_wait         00499c4e f   LIBCMT:thread_safe_statics.obj
 0001:00098c9c       ??_M@YGXPAXIIP6EX0@Z@Z     00499c9c f   LIBCMT:ehvecdtr.obj
 0001:00098d21       ?__ArrayUnwind@@YGXPAXIIP6EX0@Z@Z 00499d21 f   LIBCMT:ehvecdtr.obj
 0001:00098db1       ??_L@YGXPAXIIP6EX0@Z1@Z    00499db1 f   LIBCMT:ehvecctr.obj
 0001:00098e25       ??_V@YAXPAXI@Z             00499e25 f   LIBCMT:delete_array_size.obj
 0001:00098e33       ??_Gtype_info@@UAEPAXI@Z   00499e33 f i LIBCMT:std_type_info_static.obj
 0001:00098e33       ??_Etype_info@@UAEPAXI@Z   00499e33 f i LIBCMT:std_type_info_static.obj
 0001:00099097       _WinMainCRTStartup         0049a097 f   LIBCMT:exe_winmain.obj
 0001:000990a1       ___isa_available_init      0049a0a1 f   LIBCMT:cpu_disp.obj
 0001:00099272       __get_startup_argv_mode    0049a272 f   LIBCMT:argv_mode.obj
 0001:00099276       ___scrt_is_ucrt_dll_in_use 0049a276 f   LIBCMT:ucrt_detection.obj
 0001:00099282       ___scrt_fastfail           0049a282 f   LIBCMT:utility_desktop.obj
 0001:0009939d       ___scrt_get_show_window_mode 0049a39d f   LIBCMT:utility_desktop.obj
 0001:000993ce       ___scrt_initialize_mta     0049a3ce f   LIBCMT:utility_desktop.obj
 0001:000993d3       ___scrt_is_managed_app     0049a3d3 f   LIBCMT:utility_desktop.obj
 0001:00099416       ___scrt_set_unhandled_exception_filter 0049a416 f   LIBCMT:utility_desktop.obj
 0001:00099422       ___scrt_unhandled_exception_filter@4 0049a422 f   LIBCMT:utility_desktop.obj
 0001:00099478       __crt_debugger_hook        0049a478 f   LIBCMT:utility_desktop.obj
 0001:00099480       __SEH_prolog4              0049a480 f   LIBCMT:sehprolg4.obj
 0001:00099513       ___security_init_cookie    0049a513 f   LIBCMT:gs_support.obj
 0001:0009955e       __get_startup_file_mode    0049a55e f   LIBCMT:file_mode.obj
 0001:00099564       ?__scrt_initialize_type_info@@YAXXZ 0049a564 f   LIBCMT:tncleanup.obj
 0001:00099570       __initialize_default_precision 0049a570 f   LIBCMT:default_precision.obj
 0001:00099591       ___scrt_initialize_default_local_stdio_options 0049a591 f   LIBCMT:default_local_stdio_options.obj
 0001:000995ae       ___scrt_is_user_matherr_present 0049a5ae f   LIBCMT:matherr_detection.obj
 0001:000995ba       ___scrt_get_dyn_tls_init_callback 0049a5ba f   LIBCMT:dyn_tls_init.obj
 0001:000995c0       ___scrt_get_dyn_tls_dtor_callback 0049a5c0 f   LIBCMT:dyn_tls_dtor.obj
 0001:000995c6       __RTC_Initialize           0049a5c6 f   LIBCMT:initsect.obj
 0001:000995f2       __RTC_Terminate            0049a5f2 f   LIBCMT:initsect.obj
 0001:0009961e       @__security_check_cookie@4 0049a61e f   LIBCMT:secchk.obj
 0001:0009962f       ___raise_securityfailure   0049a62f f   LIBCMT:gs_report.obj
 0001:00099657       ___report_gsfailure        0049a657 f   LIBCMT:gs_report.obj
 0001:00099751       ?GetRangeOfTrysToCheck@__FrameHandler3@@SA?AU?$pair@Viterator@TryBlockMap@__FrameHandler3@@V123@@std@@AAVTryBlockMap@1@HPAXPBU_s_FuncInfo@@H@Z 0049a751 f   libvcruntime:trnsctrl.obj
 0001:000997c1       ?_CallCatchBlock2@@YAPAXPAUEHRegistrationNode@@PBU_s_FuncInfo@@PAXHK@Z 0049a7c1 f   libvcruntime:trnsctrl.obj
 0001:0009981e       ?_CallSETranslator@@YAHPAUEHExceptionRecord@@PAUEHRegistrationNode@@PAX2PBU_s_FuncInfo@@H1@Z 0049a81e f   libvcruntime:trnsctrl.obj
 0001:00099914       ?_JumpToContinuation@@YGXPAXPAUEHRegistrationNode@@@Z 0049a914 f   libvcruntime:trnsctrl.obj
 0001:00099944       ?_UnwindNestedFrames@@YGXPAUEHRegistrationNode@@PAUEHExceptionRecord@@@Z 0049a944 f   libvcruntime:trnsctrl.obj
 0001:00099997       __CatchGuardHandler        0049a997 f   libvcruntime:trnsctrl.obj
 0001:000999c8       __CreateFrameInfo          0049a9c8 f   libvcruntime:trnsctrl.obj
 0001:000999ec       __FindAndUnlinkFrame       0049a9ec f   libvcruntime:trnsctrl.obj
 0001:00099a34       __TranslatorGuardHandler   0049aa34 f   libvcruntime:trnsctrl.obj
 0001:00099ad1       ___CxxFrameHandler3        0049aad1 f   libvcruntime:trnsctrl.obj
 0001:00099b10       _strstr                    0049ab10 f   libvcruntime:strstr.obj
 0001:00099d80       _strrchr                   0049ad80 f   libvcruntime:strrchr.obj
 0001:00099ec0       _strchr                    0049aec0 f   libvcruntime:strchr.obj
 0001:00099f2e       ___from_strstr_to_strchr   0049af2e     libvcruntime:strchr.obj
 0001:00099feb       __get_purecall_handler     0049afeb f   libvcruntime:purevirt.obj
 0001:00099ff1       __purecall                 0049aff1 f   libvcruntime:purevirt.obj
 0001:0009a050       __except_handler4          0049b050 f   libvcruntime:chandler4.obj
 0001:0009a1b0       _memset                    0049b1b0 f   libvcruntime:memset.obj
 0001:0009a310       _memmove                   0049b310 f   libvcruntime:memmove.obj
 0001:0009a310       _memcpy                    0049b310 f   libvcruntime:memcpy.obj
 0001:0009a884       ___vcrt_initialize         0049b884 f   libvcruntime:initialization.obj
 0001:0009a8a3       ___vcrt_uninitialize       0049b8a3 f   libvcruntime:initialization.obj
 0001:0009a8ba       ___DestructExceptionObject 0049b8ba f   libvcruntime:ehhelpers.obj
 0001:0009a95b       ?_CallMemberFunction0@@YGXQAX0@Z 0049b95b f i libvcruntime:ehhelpers.obj
 0001:0009a9c0       __IsExceptionObjectToBeDestroyed 0049b9c0 f   libvcruntime:ehhelpers.obj
 0001:0009a9e6       ___AdjustPointer           0049b9e6 f   libvcruntime:ehhelpers.obj
 0001:0009aa0b       ___FrameUnwindFilter       0049ba0b f   libvcruntime:ehhelpers.obj
 0001:0009aa61       ___current_exception       0049ba61 f   libvcruntime:ehhelpers.obj
 0001:0009aa6a       ___current_exception_context 0049ba6a f   libvcruntime:ehhelpers.obj
 0001:0009aa73       ___std_type_info_compare   0049ba73 f   libvcruntime:std_type_info.obj
 0001:0009aaaf       ___vcrt_freefls@4          0049baaf f   libvcruntime:per_thread_data.obj
 0001:0009aacb       ___vcrt_getptd             0049bacb f   libvcruntime:per_thread_data.obj
 0001:0009aad9       ___vcrt_getptd_noexit      0049bad9 f   libvcruntime:per_thread_data.obj
 0001:0009ab6b       ___vcrt_initialize_ptd     0049bb6b f   libvcruntime:per_thread_data.obj
 0001:0009ab9e       ___vcrt_uninitialize_ptd   0049bb9e f   libvcruntime:per_thread_data.obj
 0001:0009b2f0       ??$TypeMatchHelper@V__FrameHandler3@@@@YAHPBU_s_HandlerType@@PBU_s_CatchableType@@PBU_s_ThrowInfo@@@Z 0049c2f0 f i libvcruntime:frame.obj
 0001:0009b37e       ??$__InternalCxxFrameHandler@V__FrameHandler3@@@@YA?AW4_EXCEPTION_DISPOSITION@@PAUEHExceptionRecord@@PAUEHRegistrationNode@@PAU_CONTEXT@@PAXPBU_s_FuncInfo@@H1E@Z 0049c37e f i libvcruntime:frame.obj
 0001:0009b480       ??0bad_exception@std@@QAE@ABV01@@Z 0049c480 f i libvcruntime:frame.obj
 0001:0009b49b       ??0bad_exception@std@@QAE@XZ 0049c49b f i libvcruntime:frame.obj
 0001:0009b4b3       ??0exception@std@@QAE@ABV01@@Z 0049c4b3 f i libvcruntime:frame.obj
 0001:0009b4df       ??1bad_exception@std@@UAE@XZ 0049c4df f i libvcruntime:frame.obj
 0001:0009b4f0       ??8type_info@@QBE_NABV0@@Z 0049c4f0 f i libvcruntime:frame.obj
 0001:0009b50f       ??_Eexception@std@@UAEPAXI@Z 0049c50f f i libvcruntime:frame.obj
 0001:0009b50f       ??_Ebad_exception@std@@UAEPAXI@Z 0049c50f f i libvcruntime:frame.obj
 0001:0009b50f       ??_Gbad_exception@std@@UAEPAXI@Z 0049c50f f i libvcruntime:frame.obj
 0001:0009b50f       ??_Gexception@std@@UAEPAXI@Z 0049c50f f i libvcruntime:frame.obj
 0001:0009b789       ?FrameUnwindToEmptyState@__FrameHandler3@@SAXPAUEHRegistrationNode@@PAXPBU_s_FuncInfo@@@Z 0049c789 f   libvcruntime:frame.obj
 0001:0009b7a1       ?FrameUnwindToState@__FrameHandler3@@SAXPAUEHRegistrationNode@@PAXPBU_s_FuncInfo@@H@Z 0049c7a1 f   libvcruntime:frame.obj
 0001:0009b923       ?_CallMemberFunction1@@YGXQAX00@Z 0049c923 f i libvcruntime:frame.obj
 0001:0009b933       ?_CallMemberFunction2@@YGXQAX00H@Z 0049c933 f i libvcruntime:frame.obj
 0001:0009b946       ?getESTypes@__FrameHandler3@@SAPBU_s_ESTypeList@@PBU_s_FuncInfo@@@Z 0049c946 f i libvcruntime:frame.obj
 0001:0009b951       ?what@exception@std@@UBEPBDXZ 0049c951 f i libvcruntime:frame.obj
 0001:0009b960       __CallSettingFrame@12      0049c960 f   libvcruntime:lowhelpr.obj
 0001:0009b987       __NLG_Return               0049c987     libvcruntime:lowhelpr.obj
 0001:0009b9ac       ___except_validate_context_record 0049c9ac f   libvcruntime:jbcxrval.obj
 0001:0009b9e0       __local_unwind4            0049c9e0 f   libvcruntime:exsup4.obj
 0001:0009bad0       @_EH4_CallFilterFunc@8     0049cad0 f   libvcruntime:exsup4.obj
 0001:0009baf0       @_EH4_TransferToHandler@8  0049caf0 f   libvcruntime:exsup4.obj
 0001:0009bb10       @_EH4_GlobalUnwind2@8      0049cb10 f   libvcruntime:exsup4.obj
 0001:0009bb30       @_EH4_LocalUnwind@16       0049cb30 f   libvcruntime:exsup4.obj
 0001:0009bb47       ___vcrt_initialize_locks   0049cb47 f   libvcruntime:locks.obj
 0001:0009bb83       ___vcrt_uninitialize_locks 0049cb83 f   libvcruntime:locks.obj
 0001:0009bc95       ___vcrt_FlsAlloc           0049cc95 f   libvcruntime:winapi_downlevel.obj
 0001:0009bcd0       ___vcrt_FlsFree            0049ccd0 f   libvcruntime:winapi_downlevel.obj
 0001:0009bd0b       ___vcrt_FlsGetValue        0049cd0b f   libvcruntime:winapi_downlevel.obj
 0001:0009bd46       ___vcrt_FlsSetValue        0049cd46 f   libvcruntime:winapi_downlevel.obj
 0001:0009bd84       ___vcrt_InitializeCriticalSectionEx 0049cd84 f   libvcruntime:winapi_downlevel.obj
 0001:0009bdcb       _unexpected                0049cdcb f   libvcruntime:unexpected.obj
 0001:0009bde8       ?GetCurrentState@__FrameHandler3@@SAHPAUEHRegistrationNode@@PAXPBU_s_FuncInfo@@@Z 0049cde8 f   libvcruntime:ehstate.obj
 0001:0009be05       ?SetState@__FrameHandler3@@SAXPAUEHRegistrationNode@@PBU_s_FuncInfo@@H@Z 0049ce05 f   libvcruntime:ehstate.obj
 0001:0009be13       ___std_exception_copy      0049ce13 f   libvcruntime:std_exception.obj
 0001:0009be76       ___std_exception_destroy   0049ce76 f   libvcruntime:std_exception.obj
 0001:0009be95       __CxxThrowException@8      0049ce95 f   libvcruntime:throw.obj
 0001:0009bf10       __global_unwind2           0049cf10 f   libvcruntime:exsup.obj
 0001:0009bf90       __local_unwind2            0049cf90 f   libvcruntime:exsup.obj
 0001:0009c030       __NLG_Notify1              0049d030 f   libvcruntime:exsup.obj
 0001:0009c040       __NLG_Notify               0049d040 f   libvcruntime:exsup.obj
 0001:0009c057       __NLG_Dispatch             0049d057     libvcruntime:exsup.obj
 0001:0009c057       __NLG_Dispatch2            0049d057     libvcruntime:exsup.obj
 0001:0009c060       __NLG_Call                 0049d060 f   libvcruntime:exsup.obj
 0001:0009c062       __NLG_Return2              0049d062     libvcruntime:exsup.obj
 0001:0009c063       _malloc                    0049d063 f   libucrt:malloc.obj
 0001:0009c070       _strncpy                   0049d070 f   libucrt:strncpy.obj
 0001:0009c1a0       _strncmp                   0049d1a0 f   libucrt:strncmp.obj
 0001:0009c3f1       ??$count@D@formatting_buffer@__crt_stdio_output@@QBEIXZ 0049d3f1 f i libucrt:output.obj
 0001:0009c409       ??$ensure_buffer_is_big_enough@D@formatting_buffer@__crt_stdio_output@@QAE_NI@Z 0049d409 f i libucrt:output.obj
 0001:0009c486       ??$is_wide_character_specifier@D@__crt_stdio_output@@YA_N_KDW4length_modifier@0@@Z 0049d486 f i libucrt:output.obj
 0001:0009c4b7       ??$scratch_data@D@formatting_buffer@__crt_stdio_output@@QAEPADXZ 0049d4b7 f i libucrt:output.obj
 0001:0009c4d5       ??$type_case_integer_parse_into_buffer@I@?$output_processor@DV?$stream_output_adapter@D@__crt_stdio_output@@V?$standard_base@DV?$stream_output_adapter@D@__crt_stdio_output@@@2@@__crt_stdio_output@@AAEXII_N@Z 0049d4d5 f i libucrt:output.obj
 0001:0009c4d5       ??$type_case_integer_parse_into_buffer@I@?$output_processor@DV?$string_output_adapter@D@__crt_stdio_output@@V?$standard_base@DV?$string_output_adapter@D@__crt_stdio_output@@@2@@__crt_stdio_output@@AAEXII_N@Z 0049d4d5 f i libucrt:output.obj
 0001:0009c548       ??$type_case_integer_parse_into_buffer@_K@?$output_processor@DV?$stream_output_adapter@D@__crt_stdio_output@@V?$standard_base@DV?$stream_output_adapter@D@__crt_stdio_output@@@2@@__crt_stdio_output@@AAEX_KI_N@Z 0049d548 f i libucrt:output.obj
 0001:0009c548       ??$type_case_integer_parse_into_buffer@_K@?$output_processor@DV?$string_output_adapter@D@__crt_stdio_output@@V?$standard_base@DV?$string_output_adapter@D@__crt_stdio_output@@@2@@__crt_stdio_output@@AAEX_KI_N@Z 0049d548 f i libucrt:output.obj
 0001:0009c5d6       ??$write_multiple_characters@V?$stream_output_adapter@D@__crt_stdio_output@@D@__crt_stdio_output@@YAXABV?$stream_output_adapter@D@0@DHQAH@Z 0049d5d6 f i libucrt:output.obj
 0001:0009c611       ??$write_multiple_characters@V?$string_output_adapter@D@__crt_stdio_output@@D@__crt_stdio_output@@YAXABV?$string_output_adapter@D@0@DHQAH@Z 0049d611 f i libucrt:output.obj
 0001:0009c63d       ??0?$common_data@D@__crt_stdio_output@@IAE@XZ 0049d63d f i libucrt:output.obj
 0001:0009c682       ??0?$output_adapter_data@DV?$string_output_adapter@D@__crt_stdio_output@@@__crt_stdio_output@@IAE@ABV?$string_output_adapter@D@1@_KQBDQAU__crt_locale_pointers@@QAD@Z 0049d682 f i libucrt:output.obj
 0001:0009c682       ??0?$output_adapter_data@DV?$stream_output_adapter@D@__crt_stdio_output@@@__crt_stdio_output@@IAE@ABV?$stream_output_adapter@D@1@_KQBDQAU__crt_locale_pointers@@QAD@Z 0049d682 f i libucrt:output.obj
 0001:0009c6be       ??0_LocaleUpdate@@QAE@QAU__crt_locale_pointers@@@Z 0049d6be f i libucrt:output.obj
 0001:0009c741       ??1formatting_buffer@__crt_stdio_output@@QAE@XZ 0049d741 f i libucrt:output.obj
 0001:0009c75b       ??4?$__crt_unique_heap_ptr@DU__crt_internal_free_policy@@@@QAEAAV0@$$QAV0@@Z 0049d75b f i libucrt:output.obj
 0001:0009c840       ?crop_zeroes@__crt_stdio_output@@YAXPADQAU__crt_locale_pointers@@@Z 0049d840 f i libucrt:output.obj
 0001:0009c8c1       ?find_next_state@?$output_processor@DV?$string_output_adapter@D@__crt_stdio_output@@V?$standard_base@DV?$string_output_adapter@D@__crt_stdio_output@@@2@@__crt_stdio_output@@ABE?AW4state@2@DW432@@Z 0049d8c1 f i libucrt:output.obj
 0001:0009c8c1       ?find_next_state@?$output_processor@DV?$stream_output_adapter@D@__crt_stdio_output@@V?$standard_base@DV?$stream_output_adapter@D@__crt_stdio_output@@@2@@__crt_stdio_output@@ABE?AW4state@2@DW432@@Z 0049d8c1 f i libucrt:output.obj
 0001:0009c900       ?force_decimal_point@__crt_stdio_output@@YAXPADQAU__crt_locale_pointers@@@Z 0049d900 f i libucrt:output.obj
 0001:0009c965       ?parse_int_from_format_string@?$output_processor@DV?$string_output_adapter@D@__crt_stdio_output@@V?$standard_base@DV?$string_output_adapter@D@__crt_stdio_output@@@2@@__crt_stdio_output@@AAE_NQAH@Z 0049d965 f i libucrt:output.obj
 0001:0009c965       ?parse_int_from_format_string@?$output_processor@DV?$stream_output_adapter@D@__crt_stdio_output@@V?$standard_base@DV?$stream_output_adapter@D@__crt_stdio_output@@@2@@__crt_stdio_output@@AAE_NQAH@Z 0049d965 f i libucrt:output.obj
 0001:0009c9d9       ?process@?$output_processor@DV?$stream_output_adapter@D@__crt_stdio_output@@V?$standard_base@DV?$stream_output_adapter@D@__crt_stdio_output@@@2@@__crt_stdio_output@@QAEHXZ 0049d9d9 f i libucrt:output.obj
 0001:0009caed       ?process@?$output_processor@DV?$string_output_adapter@D@__crt_stdio_output@@V?$standard_base@DV?$string_output_adapter@D@__crt_stdio_output@@@2@@__crt_stdio_output@@QAEHXZ 0049daed f i libucrt:output.obj
 0001:0009cc01       ?state_case_flag@?$output_processor@DV?$string_output_adapter@D@__crt_stdio_output@@V?$standard_base@DV?$string_output_adapter@D@__crt_stdio_output@@@2@@__crt_stdio_output@@AAE_NXZ 0049dc01 f i libucrt:output.obj
 0001:0009cc01       ?state_case_flag@?$output_processor@DV?$stream_output_adapter@D@__crt_stdio_output@@V?$standard_base@DV?$stream_output_adapter@D@__crt_stdio_output@@@2@@__crt_stdio_output@@AAE_NXZ 0049dc01 f i libucrt:output.obj
 0001:0009cc3e       ?state_case_normal@?$output_processor@DV?$stream_output_adapter@D@__crt_stdio_output@@V?$standard_base@DV?$stream_output_adapter@D@__crt_stdio_output@@@2@@__crt_stdio_output@@AAE_NXZ 0049dc3e f i libucrt:output.obj
 0001:0009cc5d       ?state_case_normal@?$output_processor@DV?$string_output_adapter@D@__crt_stdio_output@@V?$standard_base@DV?$string_output_adapter@D@__crt_stdio_output@@@2@@__crt_stdio_output@@AAE_NXZ 0049dc5d f i libucrt:output.obj
 0001:0009cc7c       ?state_case_normal_common@?$output_processor@DV?$stream_output_adapter@D@__crt_stdio_output@@V?$standard_base@DV?$stream_output_adapter@D@__crt_stdio_output@@@2@@__crt_stdio_output@@AAE_NXZ 0049dc7c f i libucrt:output.obj
 0001:0009ccb6       ?state_case_normal_common@?$output_processor@DV?$string_output_adapter@D@__crt_stdio_output@@V?$standard_base@DV?$string_output_adapter@D@__crt_stdio_output@@@2@@__crt_stdio_output@@AAE_NXZ 0049dcb6 f i libucrt:output.obj
 0001:0009cce0       ?state_case_normal_tchar@?$output_processor@DV?$stream_output_adapter@D@__crt_stdio_output@@V?$standard_base@DV?$stream_output_adapter@D@__crt_stdio_output@@@2@@__crt_stdio_output@@AAE_ND@Z 0049dce0 f i libucrt:output.obj
 0001:0009cd4d       ?state_case_normal_tchar@?$output_processor@DV?$string_output_adapter@D@__crt_stdio_output@@V?$standard_base@DV?$string_output_adapter@D@__crt_stdio_output@@@2@@__crt_stdio_output@@AAE_ND@Z 0049dd4d f i libucrt:output.obj
 0001:0009cdb1       ?state_case_precision@?$output_processor@DV?$stream_output_adapter@D@__crt_stdio_output@@V?$standard_base@DV?$stream_output_adapter@D@__crt_stdio_output@@@2@@__crt_stdio_output@@AAE_NXZ 0049ddb1 f i libucrt:output.obj
 0001:0009cdb1       ?state_case_precision@?$output_processor@DV?$string_output_adapter@D@__crt_stdio_output@@V?$standard_base@DV?$string_output_adapter@D@__crt_stdio_output@@@2@@__crt_stdio_output@@AAE_NXZ 0049ddb1 f i libucrt:output.obj
 0001:0009cdd7       ?state_case_size@?$output_processor@DV?$stream_output_adapter@D@__crt_stdio_output@@V?$standard_base@DV?$stream_output_adapter@D@__crt_stdio_output@@@2@@__crt_stdio_output@@AAE_NXZ 0049ddd7 f i libucrt:output.obj
 0001:0009cf25       ?state_case_size@?$output_processor@DV?$string_output_adapter@D@__crt_stdio_output@@V?$standard_base@DV?$string_output_adapter@D@__crt_stdio_output@@@2@@__crt_stdio_output@@AAE_NXZ 0049df25 f i libucrt:output.obj
 0001:0009d073       ?state_case_type@?$output_processor@DV?$stream_output_adapter@D@__crt_stdio_output@@V?$standard_base@DV?$stream_output_adapter@D@__crt_stdio_output@@@2@@__crt_stdio_output@@AAE_NXZ 0049e073 f i libucrt:output.obj
 0001:0009d2a5       ?state_case_type@?$output_processor@DV?$string_output_adapter@D@__crt_stdio_output@@V?$standard_base@DV?$string_output_adapter@D@__crt_stdio_output@@@2@@__crt_stdio_output@@AAE_NXZ 0049e2a5 f i libucrt:output.obj
 0001:0009d4d7       ?state_case_width@?$output_processor@DV?$string_output_adapter@D@__crt_stdio_output@@V?$standard_base@DV?$string_output_adapter@D@__crt_stdio_output@@@2@@__crt_stdio_output@@AAE_NXZ 0049e4d7 f i libucrt:output.obj
 0001:0009d4d7       ?state_case_width@?$output_processor@DV?$stream_output_adapter@D@__crt_stdio_output@@V?$standard_base@DV?$stream_output_adapter@D@__crt_stdio_output@@@2@@__crt_stdio_output@@AAE_NXZ 0049e4d7 f i libucrt:output.obj
 0001:0009d510       ?to_integer_size@__crt_stdio_output@@YAIW4length_modifier@1@@Z 0049e510 f i libucrt:output.obj
 0001:0009d56c       ?type_case_Z@?$output_processor@DV?$string_output_adapter@D@__crt_stdio_output@@V?$standard_base@DV?$string_output_adapter@D@__crt_stdio_output@@@2@@__crt_stdio_output@@AAE_NXZ 0049e56c f i libucrt:output.obj
 0001:0009d56c       ?type_case_Z@?$output_processor@DV?$stream_output_adapter@D@__crt_stdio_output@@V?$standard_base@DV?$stream_output_adapter@D@__crt_stdio_output@@@2@@__crt_stdio_output@@AAE_NXZ 0049e56c f i libucrt:output.obj
 0001:0009d5c6       ?type_case_a@?$output_processor@DV?$string_output_adapter@D@__crt_stdio_output@@V?$standard_base@DV?$string_output_adapter@D@__crt_stdio_output@@@2@@__crt_stdio_output@@AAE_NXZ 0049e5c6 f i libucrt:output.obj
 0001:0009d5c6       ?type_case_a@?$output_processor@DV?$stream_output_adapter@D@__crt_stdio_output@@V?$standard_base@DV?$stream_output_adapter@D@__crt_stdio_output@@@2@@__crt_stdio_output@@AAE_NXZ 0049e5c6 f i libucrt:output.obj
 0001:0009d717       ?type_case_c_tchar@?$output_processor@DV?$string_output_adapter@D@__crt_stdio_output@@V?$standard_base@DV?$string_output_adapter@D@__crt_stdio_output@@@2@@__crt_stdio_output@@AAE_ND@Z 0049e717 f i libucrt:output.obj
 0001:0009d717       ?type_case_c_tchar@?$output_processor@DV?$stream_output_adapter@D@__crt_stdio_output@@V?$standard_base@DV?$stream_output_adapter@D@__crt_stdio_output@@@2@@__crt_stdio_output@@AAE_ND@Z 0049e717 f i libucrt:output.obj
 0001:0009d7aa       ?type_case_integer@?$output_processor@DV?$stream_output_adapter@D@__crt_stdio_output@@V?$standard_base@DV?$stream_output_adapter@D@__crt_stdio_output@@@2@@__crt_stdio_output@@AAE_NI_N@Z 0049e7aa f i libucrt:output.obj
 0001:0009d7aa       ?type_case_integer@?$output_processor@DV?$string_output_adapter@D@__crt_stdio_output@@V?$standard_base@DV?$string_output_adapter@D@__crt_stdio_output@@@2@@__crt_stdio_output@@AAE_NI_N@Z 0049e7aa f i libucrt:output.obj
 0001:0009d8fb       ?type_case_n@?$output_processor@DV?$stream_output_adapter@D@__crt_stdio_output@@V?$standard_base@DV?$stream_output_adapter@D@__crt_stdio_output@@@2@@__crt_stdio_output@@AAE_NXZ 0049e8fb f i libucrt:output.obj
 0001:0009d8fb       ?type_case_n@?$output_processor@DV?$string_output_adapter@D@__crt_stdio_output@@V?$standard_base@DV?$string_output_adapter@D@__crt_stdio_output@@@2@@__crt_stdio_output@@AAE_NXZ 0049e8fb f i libucrt:output.obj
 0001:0009d96f       ?type_case_o@?$output_processor@DV?$stream_output_adapter@D@__crt_stdio_output@@V?$standard_base@DV?$stream_output_adapter@D@__crt_stdio_output@@@2@@__crt_stdio_output@@AAE_NXZ 0049e96f f i libucrt:output.obj
 0001:0009d96f       ?type_case_o@?$output_processor@DV?$string_output_adapter@D@__crt_stdio_output@@V?$standard_base@DV?$string_output_adapter@D@__crt_stdio_output@@@2@@__crt_stdio_output@@AAE_NXZ 0049e96f f i libucrt:output.obj
 0001:0009d98e       ?type_case_p@?$output_processor@DV?$stream_output_adapter@D@__crt_stdio_output@@V?$standard_base@DV?$stream_output_adapter@D@__crt_stdio_output@@@2@@__crt_stdio_output@@AAE_NXZ 0049e98e f i libucrt:output.obj
 0001:0009d98e       ?type_case_p@?$output_processor@DV?$string_output_adapter@D@__crt_stdio_output@@V?$standard_base@DV?$string_output_adapter@D@__crt_stdio_output@@@2@@__crt_stdio_output@@AAE_NXZ 0049e98e f i libucrt:output.obj
 0001:0009d9a6       ?type_case_s@?$output_processor@DV?$string_output_adapter@D@__crt_stdio_output@@V?$standard_base@DV?$string_output_adapter@D@__crt_stdio_output@@@2@@__crt_stdio_output@@AAE_NXZ 0049e9a6 f i libucrt:output.obj
 0001:0009d9a6       ?type_case_s@?$output_processor@DV?$stream_output_adapter@D@__crt_stdio_output@@V?$standard_base@DV?$stream_output_adapter@D@__crt_stdio_output@@@2@@__crt_stdio_output@@AAE_NXZ 0049e9a6 f i libucrt:output.obj
 0001:0009da17       ?validate@?$stream_output_adapter@D@__crt_stdio_output@@QBE_NXZ 0049ea17 f i libucrt:output.obj
 0001:0009da38       ?validate@?$string_output_adapter@D@__crt_stdio_output@@QBE_NXZ 0049ea38 f i libucrt:output.obj
 0001:0009da38       ?validate@?$c_string_character_source@_W@__crt_strtox@@QBE_NXZ 0049ea38 f i libucrt:strtox.obj
 0001:0009da38       ?validate@?$c_string_character_source@D@__crt_strtox@@QBE_NXZ 0049ea38 f i libucrt:strtox.obj
 0001:0009da53       ?validate_stream_is_ansi_if_required@?$__acrt_stdio_char_traits@D@@SA_NQAU_iobuf@@@Z 0049ea53 f i libucrt:output.obj
 0001:0009dada       ?write_character@?$string_output_adapter@D@__crt_stdio_output@@QBE_NDQAH@Z 0049eada f i libucrt:output.obj
 0001:0009db1c       ?write_character_without_count_update@?$stream_output_adapter@D@__crt_stdio_output@@QBE_ND@Z 0049eb1c f i libucrt:output.obj
 0001:0009db52       ?write_stored_string_tchar@?$output_processor@DV?$stream_output_adapter@D@__crt_stdio_output@@V?$standard_base@DV?$stream_output_adapter@D@__crt_stdio_output@@@2@@__crt_stdio_output@@AAE_ND@Z 0049eb52 f i libucrt:output.obj
 0001:0009dbf7       ?write_stored_string_tchar@?$output_processor@DV?$string_output_adapter@D@__crt_stdio_output@@V?$standard_base@DV?$string_output_adapter@D@__crt_stdio_output@@@2@@__crt_stdio_output@@AAE_ND@Z 0049ebf7 f i libucrt:output.obj
 0001:0009dc9c       ?write_string@?$stream_output_adapter@D@__crt_stdio_output@@QBEXQBDHQAHAAV__crt_deferred_errno_cache@@@Z 0049ec9c f i libucrt:output.obj
 0001:0009dcc8       ?write_string@?$string_output_adapter@D@__crt_stdio_output@@QBEXQBDHQAHAAV__crt_deferred_errno_cache@@@Z 0049ecc8 f i libucrt:output.obj
 0001:0009dd2f       ?write_string_impl@?$output_adapter_common@DV?$stream_output_adapter@D@__crt_stdio_output@@@__crt_stdio_output@@IBEXQBDHQAHAAV__crt_deferred_errno_cache@@@Z 0049ed2f f i libucrt:output.obj
 0001:0009ddcd       ___acrt_locale_get_ctype_array_value 0049edcd f i libucrt:output.obj
 0001:0009ddef       ___stdio_common_vfprintf   0049edef f   libucrt:output.obj
 0001:0009de72       ___stdio_common_vsprintf   0049ee72 f   libucrt:output.obj
 0001:0009de96       ___acrt_initialize_stdio   0049ee96 f   libucrt:_file.obj
 0001:0009df5e       ___acrt_iob_func           0049ef5e f   libucrt:_file.obj
 0001:0009df6e       ___acrt_uninitialize_stdio 0049ef6e f   libucrt:_file.obj
 0001:0009dfba       __lock_file                0049efba f   libucrt:_file.obj
 0001:0009dfce       __unlock_file              0049efce f   libucrt:_file.obj
 0001:0009e140       __beginthreadex            0049f140 f   libucrt:thread.obj
 0001:0009e1c3       __endthreadex              0049f1c3 f   libucrt:thread.obj
 0001:0009e1d1       __time64                   0049f1d1 f   libucrt:time.obj
 0001:0009e3a8       ??$__acrt_mbs_to_wcs_cp@U__crt_win32_buffer_internal_dynamic_resizing@@@@YAHQBDAAV?$__crt_win32_buffer@_WU__crt_win32_buffer_internal_dynamic_resizing@@@@I@Z 0049f3a8 f i libucrt:strftime.obj
 0001:0009e3c5       ??$__acrt_wcs_to_mbs_cp@U__crt_win32_buffer_no_resizing@@@@YAHQB_WAAV?$__crt_win32_buffer@DU__crt_win32_buffer_no_resizing@@@@I@Z 0049f3c5 f i libucrt:strftime.obj
 0001:0009e3e2       ?_deallocate@?$__crt_win32_buffer@_WU__crt_win32_buffer_internal_dynamic_resizing@@@@AAEXXZ 0049f3e2 f i libucrt:strftime.obj
 0001:0009e3e2       ?_deallocate@?$__crt_win32_buffer@DU__crt_win32_buffer_internal_dynamic_resizing@@@@AAEXXZ 0049f3e2 f i libucrt:argv_wildcards.obj
 0001:0009e3fc       ?allocate@?$__crt_win32_buffer@DU__crt_win32_buffer_no_resizing@@@@QAEHI@Z 0049f3fc f i libucrt:strftime.obj
 0001:0009e423       ?allocate@?$__crt_win32_buffer@_WU__crt_win32_buffer_internal_dynamic_resizing@@@@QAEHI@Z 0049f423 f i libucrt:strftime.obj
 0001:0009e462       ?allocate@__crt_win32_buffer_internal_dynamic_resizing@@SAHQAPAXIABV__crt_win32_buffer_empty_debug_info@@@Z 0049f462 f i libucrt:strftime.obj
 0001:0009e481       ?set_to_nullptr@?$__crt_win32_buffer@DU__crt_win32_buffer_no_resizing@@@@QAEXXZ 0049f481 f i libucrt:strftime.obj
 0001:0009e495       __Strftime_l               0049f495 f   libucrt:strftime.obj
 0001:0009e592       _strftime                  0049f592 f   libucrt:strftime.obj
 0001:0009e840       __localtime64              0049f840 f   libucrt:localtime.obj
 0001:0009e867       __localtime64_s            0049f867 f   libucrt:localtime.obj
 0001:0009e872       ?__acrt_get_utf8_acp_compatibility_codepage@@YAIXZ 0049f872 f i libucrt:unlink.obj
 0001:0009e8b1       _remove                    0049f8b1 f   libucrt:unlink.obj
 0001:0009e91b       _rename                    0049f91b f   libucrt:rename.obj
 0001:0009e9c9       ??$is_overflow_condition@K@__crt_strtox@@YA_NIK@Z 0049f9c9 f i libucrt:strtox.obj
 0001:0009e9fa       ??$is_overflow_condition@_K@__crt_strtox@@YA_NI_K@Z 0049f9fa f i libucrt:strtox.obj
 0001:0009ea3b       ??$make_c_string_character_source@DPAPAD@__crt_strtox@@YA?AV?$c_string_character_source@D@0@QBDQAPAD@Z 0049fa3b f i libucrt:strtox.obj
 0001:0009ea3b       ??$make_c_string_character_source@_WPAPA_W@__crt_strtox@@YA?AV?$c_string_character_source@_W@0@QB_WQAPA_W@Z 0049fa3b f i libucrt:strtox.obj
 0001:0009ea56       ??$parse_integer@KV?$c_string_character_source@D@__crt_strtox@@@__crt_strtox@@YAKQAU__crt_locale_pointers@@V?$c_string_character_source@D@0@H_N@Z 0049fa56 f i libucrt:strtox.obj
 0001:0009ec79       ??$parse_integer@KV?$c_string_character_source@_W@__crt_strtox@@@__crt_strtox@@YAKQAU__crt_locale_pointers@@V?$c_string_character_source@_W@0@H_N@Z 0049fc79 f i libucrt:strtox.obj
 0001:0009f281       ??$parse_integer@_KV?$c_string_character_source@D@__crt_strtox@@@__crt_strtox@@YA_KQAU__crt_locale_pointers@@V?$c_string_character_source@D@0@H_N@Z 004a0281 f i libucrt:strtox.obj
 0001:0009f527       ?unget@?$c_string_character_source@D@__crt_strtox@@QAEXD@Z 004a0527 f i libucrt:strtox.obj
 0001:0009f550       ?unget@?$c_string_character_source@_W@__crt_strtox@@QAEX_W@Z 004a0550 f i libucrt:strtox.obj
 0001:0009f57e       __ischartype_l             004a057e f i libucrt:strtox.obj
 0001:0009f5d2       _strtol                    004a05d2 f   libucrt:strtox.obj
 0001:0009f5fc       _strtoul                   004a05fc f   libucrt:strtox.obj
 0001:0009f626       _strtoull                  004a0626 f   libucrt:strtox.obj
 0001:0009f650       _wcstol                    004a0650 f   libucrt:strtox.obj
 0001:0009f67a       ??$assemble_floating_point_snan@N@__crt_strtox@@YAX_NAAN@Z 004a067a f i libucrt:strtod.obj
 0001:0009f69b       ??$assemble_floating_point_value_t@M@__crt_strtox@@YA?AW4SLD_STATUS@@_NH_KAAM@Z 004a069b f i libucrt:strtod.obj
 0001:0009f6cb       ??$assemble_floating_point_value_t@N@__crt_strtox@@YA?AW4SLD_STATUS@@_NH_KAAN@Z 004a06cb f i libucrt:strtod.obj
 0001:0009f796       ??$convert_decimal_string_to_floating_type@M@__crt_strtox@@YA?AW4SLD_STATUS@@ABUfloating_point_string@0@AAM@Z 004a0796 f i libucrt:strtod.obj
 0001:0009f7b7       ??$convert_decimal_string_to_floating_type@N@__crt_strtox@@YA?AW4SLD_STATUS@@ABUfloating_point_string@0@AAN@Z 004a07b7 f i libucrt:strtod.obj
 0001:0009f7d8       ??$convert_hexadecimal_string_to_floating_type@M@__crt_strtox@@YA?AW4SLD_STATUS@@ABUfloating_point_string@0@AAM@Z 004a07d8 f i libucrt:strtod.obj
 0001:0009f7f9       ??$convert_hexadecimal_string_to_floating_type@N@__crt_strtox@@YA?AW4SLD_STATUS@@ABUfloating_point_string@0@AAN@Z 004a07f9 f i libucrt:strtod.obj
 0001:0009f81a       ??$parse_floating_point@V?$c_string_character_source@D@__crt_strtox@@N@__crt_strtox@@YA?AW4SLD_STATUS@@QAU__crt_locale_pointers@@V?$c_string_character_source@D@0@QAN@Z 004a081a f i libucrt:strtod.obj
 0001:0009f88e       ??$parse_floating_point_from_source@V?$c_string_character_source@D@__crt_strtox@@@__crt_strtox@@YA?AW4floating_point_parse_result@0@QAU__crt_locale_pointers@@AAV?$c_string_character_source@D@0@AAUfloating_point_string@0@@Z 004a088e f i libucrt:strtod.obj
 0001:0009fc77       ??$parse_floating_point_possible_infinity@DV?$c_string_character_source@D@__crt_strtox@@PBD@__crt_strtox@@YA?AW4floating_point_parse_result@0@AADAAV?$c_string_character_source@D@0@PBD@Z 004a0c77 f i libucrt:strtod.obj
 0001:0009fd19       ??$parse_floating_point_possible_nan@DV?$c_string_character_source@D@__crt_strtox@@PBD@__crt_strtox@@YA?AW4floating_point_parse_result@0@AADAAV?$c_string_character_source@D@0@PBD@Z 004a0d19 f i libucrt:strtod.obj
 0001:0009fe28       ??$parse_floating_point_possible_nan_is_ind@DV?$c_string_character_source@D@__crt_strtox@@@__crt_strtox@@YA_NAADAAV?$c_string_character_source@D@0@@Z 004a0e28 f i libucrt:strtod.obj
 0001:0009fe64       ??$parse_floating_point_possible_nan_is_snan@DV?$c_string_character_source@D@__crt_strtox@@@__crt_strtox@@YA_NAADAAV?$c_string_character_source@D@0@@Z 004a0e64 f i libucrt:strtod.obj
 0001:0009fea0       ??$parse_floating_point_write_result@M@__crt_strtox@@YA?AW4SLD_STATUS@@W4floating_point_parse_result@0@ABUfloating_point_string@0@QAM@Z 004a0ea0 f i libucrt:strtod.obj
 0001:000a000c       ??$parse_floating_point_write_result@N@__crt_strtox@@YA?AW4SLD_STATUS@@W4floating_point_parse_result@0@ABUfloating_point_string@0@QAN@Z 004a100c f i libucrt:strtod.obj
 0001:000a0156       ?as_double@floating_point_value@__crt_strtox@@QBEAANXZ 004a1156 f i libucrt:strtod.obj
 0001:000a017b       ?as_float@floating_point_value@__crt_strtox@@QBEAAMXZ 004a117b f i libucrt:strtod.obj
 0001:000a01a0       ?assemble_floating_point_infinity@__crt_strtox@@YAX_NABVfloating_point_value@1@@Z 004a11a0 f i libucrt:strtod.obj
 0001:000a01e0       ?assemble_floating_point_value@__crt_strtox@@YA?AW4SLD_STATUS@@_KH_N1ABVfloating_point_value@1@@Z 004a11e0 f i libucrt:strtod.obj
 0001:000a0535       ?assemble_floating_point_value_from_big_integer@__crt_strtox@@YA?AW4SLD_STATUS@@ABUbig_integer@1@I_N1ABVfloating_point_value@1@@Z 004a1535 f i libucrt:strtod.obj
 0001:000a06c9       ?assemble_floating_point_zero@__crt_strtox@@YAX_NABVfloating_point_value@1@@Z 004a16c9 f i libucrt:strtod.obj
 0001:000a06fe       ?convert_decimal_string_to_floating_type_common@__crt_strtox@@YA?AW4SLD_STATUS@@ABUfloating_point_string@1@ABVfloating_point_value@1@@Z 004a16fe f i libucrt:strtod.obj
 0001:000a23d2       ?convert_hexadecimal_string_to_floating_type_common@__crt_strtox@@YA?AW4SLD_STATUS@@ABUfloating_point_string@1@ABVfloating_point_value@1@@Z 004a33d2 f i libucrt:strtod.obj
 0001:000a2478       ?denormal_mantissa_mask@floating_point_value@__crt_strtox@@QBE_KXZ 004a3478 f i libucrt:strtod.obj
 0001:000a2490       ?divide@__crt_strtox@@YA_KAAUbig_integer@1@ABU21@@Z 004a3490 f i libucrt:strtod.obj
 0001:000a2928       ?normal_mantissa_mask@floating_point_value@__crt_strtox@@QBE_KXZ 004a3928 f i libucrt:strtod.obj
 0001:000a29c0       _strtod                    004a39c0 f   libucrt:strtod.obj
 0001:000a29d7       __fclose_nolock            004a39d7 f   libucrt:fclose.obj
 0001:000a2a4e       _fclose                    004a3a4e f   libucrt:fclose.obj
 0001:000a2b89       _fopen                     004a3b89 f   libucrt:fopen.obj
 0001:000a2ccb       _setvbuf                   004a3ccb f   libucrt:setvbuf.obj
 0001:000a2deb       __fwrite_nolock            004a3deb f   libucrt:fwrite.obj
 0001:000a2f6c       _fwrite                    004a3f6c f   libucrt:fwrite.obj
 0001:000a2fd0       _isalpha                   004a3fd0 f   libucrt:_ctype.obj
 0001:000a3060       _isdigit                   004a4060 f   libucrt:_ctype.obj
 0001:000a30f0       _isspace                   004a40f0 f   libucrt:_ctype.obj
 0001:000a3180       _isxdigit                  004a4180 f   libucrt:_ctype.obj
 0001:000a3258       ??$__crt_fast_encode_pointer@P6AHXZ@@YAP6AHXZQ6AHXZ@Z 004a4258 f i libucrt:onexit.obj
 0001:000a3258       ??$__crt_fast_encode_pointer@PAP6AXXZ@@YAPAP6AXXZQAP6AXXZ@Z 004a4258 f i libucrt:onexit.obj
 0001:000a3258       ??$__crt_fast_encode_pointer@PAX@@YAPAXQAX@Z 004a4258 f i libucrt:initialization.obj
 0001:000a3258       ??$__crt_fast_encode_pointer@P6GXPAXK0@Z@@YAP6GXPAXK0@ZQ6GX0K0@Z@Z 004a4258 f i libucrt:exit.obj
 0001:000a3258       ??$__crt_fast_encode_pointer@P6AHPAU_exception@@@Z@@YAP6AHPAU_exception@@@ZQ6AH0@Z@Z 004a4258 f i libucrt:matherr.obj
 0001:000a345d       ___acrt_initialize_thread_local_exit_callback 004a445d f   libucrt:exit.obj
 0001:000a346c       __c_exit                   004a446c f   libucrt:exit.obj
 0001:000a347b       __cexit                    004a447b f   libucrt:exit.obj
 0001:000a348a       __exit                     004a448a f   libucrt:exit.obj
 0001:000a34a0       __register_thread_local_exe_atexit_callback 004a44a0 f   libucrt:exit.obj
 0001:000a34c6       _exit                      004a44c6 f   libucrt:exit.obj
 0001:000a3590       ??$make_input_adapter_character_source@V?$string_input_adapter@D@__crt_stdio_input@@@__crt_strtox@@YA?AV?$input_adapter_character_source@V?$string_input_adapter@D@__crt_stdio_input@@@0@QAV?$string_input_adapter@D@__crt_stdio_input@@_KQA_N@Z 004a4590 f i libucrt:input.obj
 0001:000a35ae       ??$parse_floating_point@V?$input_adapter_character_source@V?$string_input_adapter@D@__crt_stdio_input@@@__crt_strtox@@M@__crt_strtox@@YA?AW4SLD_STATUS@@QAU__crt_locale_pointers@@V?$input_adapter_character_source@V?$string_input_adapter@D@__crt_stdio_input@@@0@QAM@Z 004a45ae f i libucrt:input.obj
 0001:000a3627       ??$parse_floating_point@V?$input_adapter_character_source@V?$string_input_adapter@D@__crt_stdio_input@@@__crt_strtox@@N@__crt_strtox@@YA?AW4SLD_STATUS@@QAU__crt_locale_pointers@@V?$input_adapter_character_source@V?$string_input_adapter@D@__crt_stdio_input@@@0@QAN@Z 004a4627 f i libucrt:input.obj
 0001:000a36a0       ??$parse_floating_point_from_source@V?$input_adapter_character_source@V?$string_input_adapter@D@__crt_stdio_input@@@__crt_strtox@@@__crt_strtox@@YA?AW4floating_point_parse_result@0@QAU__crt_locale_pointers@@AAV?$input_adapter_character_source@V?$string_input_adapter@D@__crt_stdio_input@@@0@AAUfloating_point_string@0@@Z 004a46a0 f i libucrt:input.obj
 0001:000a3afd       ??$parse_floating_point_possible_infinity@DV?$input_adapter_character_source@V?$string_input_adapter@D@__crt_stdio_input@@@__crt_strtox@@_K@__crt_strtox@@YA?AW4floating_point_parse_result@0@AADAAV?$input_adapter_character_source@V?$string_input_adapter@D@__crt_stdio_input@@@0@_K@Z 004a4afd f i libucrt:input.obj
 0001:000a3bbc       ??$parse_floating_point_possible_nan@DV?$input_adapter_character_source@V?$string_input_adapter@D@__crt_stdio_input@@@__crt_strtox@@_K@__crt_strtox@@YA?AW4floating_point_parse_result@0@AADAAV?$input_adapter_character_source@V?$string_input_adapter@D@__crt_stdio_input@@@0@_K@Z 004a4bbc f i libucrt:input.obj
 0001:000a3cd7       ??$parse_floating_point_possible_nan_is_ind@DV?$input_adapter_character_source@V?$string_input_adapter@D@__crt_stdio_input@@@__crt_strtox@@@__crt_strtox@@YA_NAADAAV?$input_adapter_character_source@V?$string_input_adapter@D@__crt_stdio_input@@@0@@Z 004a4cd7 f i libucrt:input.obj
 0001:000a3d11       ??$parse_floating_point_possible_nan_is_snan@DV?$input_adapter_character_source@V?$string_input_adapter@D@__crt_stdio_input@@@__crt_strtox@@@__crt_strtox@@YA_NAADAAV?$input_adapter_character_source@V?$string_input_adapter@D@__crt_stdio_input@@@0@@Z 004a4d11 f i libucrt:input.obj
 0001:000a3d4b       ??$parse_integer@_KV?$input_adapter_character_source@V?$string_input_adapter@D@__crt_stdio_input@@@__crt_strtox@@@__crt_strtox@@YA_KQAU__crt_locale_pointers@@V?$input_adapter_character_source@V?$string_input_adapter@D@__crt_stdio_input@@@0@H_N@Z 004a4d4b f i libucrt:input.obj
 0001:000a4009       ??$process_floating_point_specifier_t@M@?$input_processor@DV?$string_input_adapter@D@__crt_stdio_input@@@__crt_stdio_input@@AAE_NXZ 004a5009 f i libucrt:input.obj
 0001:000a406f       ??$process_floating_point_specifier_t@N@?$input_processor@DV?$string_input_adapter@D@__crt_stdio_input@@@__crt_stdio_input@@AAE_NXZ 004a506f f i libucrt:input.obj
 0001:000a40d5       ??$process_string_specifier_tchar@D@?$input_processor@DV?$string_input_adapter@D@__crt_stdio_input@@@__crt_stdio_input@@AAE_NW4conversion_mode@1@D@Z 004a50d5 f i libucrt:input.obj
 0001:000a4232       ??$process_string_specifier_tchar@_W@?$input_processor@DV?$string_input_adapter@D@__crt_stdio_input@@@__crt_stdio_input@@AAE_NW4conversion_mode@1@_W@Z 004a5232 f i libucrt:input.obj
 0001:000a4399       ??$skip_whitespace@Vstring_input_adapter@__crt_stdio_input@@D@__crt_stdio_input@@YAHAAV?$string_input_adapter@D@0@QAU__crt_locale_pointers@@@Z 004a5399 f i libucrt:input.obj
 0001:000a43c8       ??$write_floating_point@M@?$input_processor@DV?$string_input_adapter@D@__crt_stdio_input@@@__crt_stdio_input@@AAE_NABM@Z 004a53c8 f i libucrt:input.obj
 0001:000a43fc       ??$write_floating_point@N@?$input_processor@DV?$string_input_adapter@D@__crt_stdio_input@@@__crt_stdio_input@@AAE_NABN@Z 004a53fc f i libucrt:input.obj
 0001:000a4436       ??0?$format_string_parser@D@__crt_stdio_input@@QAE@_KQBE@Z 004a5436 f i libucrt:input.obj
 0001:000a4480       ??0?$input_adapter_character_source@V?$string_input_adapter@D@__crt_stdio_input@@@__crt_strtox@@QAE@QAV?$string_input_adapter@D@__crt_stdio_input@@_KQA_N@Z 004a5480 f i libucrt:input.obj
 0001:000a44b1       ??0?$input_processor@DV?$string_input_adapter@D@__crt_stdio_input@@@__crt_stdio_input@@QAE@ABV?$string_input_adapter@D@1@_KQBDQAU__crt_locale_pointers@@QAD@Z 004a54b1 f i libucrt:input.obj
 0001:000a451f       ?advance@?$format_string_parser@D@__crt_stdio_input@@QAE_NXZ 004a551f f i libucrt:input.obj
 0001:000a4637       ?get@?$input_adapter_character_source@V?$string_input_adapter@D@__crt_stdio_input@@@__crt_strtox@@QAEDXZ 004a5637 f i libucrt:input.obj
 0001:000a466e       ?get@?$string_input_adapter@D@__crt_stdio_input@@QAEHXZ 004a566e f i libucrt:input.obj
 0001:000a4684       ?invert@?$scanset_buffer@E@__crt_stdio_input@@QAEXXZ 004a5684 f i libucrt:input.obj
 0001:000a46a2       ?is_character_allowed_in_string@?$input_processor@DV?$string_input_adapter@D@__crt_stdio_input@@@__crt_stdio_input@@ABE_NW4conversion_mode@2@H@Z 004a56a2 f i libucrt:input.obj
 0001:000a46f2       ?length@?$format_string_parser@D@__crt_stdio_input@@QBEIXZ 004a56f2 f i libucrt:input.obj
 0001:000a4733       ?process@?$input_processor@DV?$string_input_adapter@D@__crt_stdio_input@@@__crt_stdio_input@@QAEHXZ 004a5733 f i libucrt:input.obj
 0001:000a47b7       ?process_character_count_specifier@?$input_processor@DV?$string_input_adapter@D@__crt_stdio_input@@@__crt_stdio_input@@AAE_NXZ 004a57b7 f i libucrt:input.obj
 0001:000a47cf       ?process_conversion_specifier@?$input_processor@DV?$string_input_adapter@D@__crt_stdio_input@@@__crt_stdio_input@@AAE_NXZ 004a57cf f i libucrt:input.obj
 0001:000a4843       ?process_floating_point_specifier@?$input_processor@DV?$string_input_adapter@D@__crt_stdio_input@@@__crt_stdio_input@@AAE_NXZ 004a5843 f i libucrt:input.obj
 0001:000a4873       ?process_integer_specifier@?$input_processor@DV?$string_input_adapter@D@__crt_stdio_input@@@__crt_stdio_input@@AAE_NI_N@Z 004a5873 f i libucrt:input.obj
 0001:000a48d5       ?process_literal_character@?$input_processor@DV?$string_input_adapter@D@__crt_stdio_input@@@__crt_stdio_input@@AAE_NXZ 004a58d5 f i libucrt:input.obj
 0001:000a490b       ?process_literal_character_tchar@?$input_processor@DV?$string_input_adapter@D@__crt_stdio_input@@@__crt_stdio_input@@AAE_ND@Z 004a590b f i libucrt:input.obj
 0001:000a4959       ?process_state@?$input_processor@DV?$string_input_adapter@D@__crt_stdio_input@@@__crt_stdio_input@@AAE_NXZ 004a5959 f i libucrt:input.obj
 0001:000a499b       ?process_string_specifier@?$input_processor@DV?$string_input_adapter@D@__crt_stdio_input@@@__crt_stdio_input@@AAE_NW4conversion_mode@2@@Z 004a599b f i libucrt:input.obj
 0001:000a49e3       ?process_whitespace@?$input_processor@DV?$string_input_adapter@D@__crt_stdio_input@@@__crt_stdio_input@@AAE_NXZ 004a59e3 f i libucrt:input.obj
 0001:000a4a00       ?restore_state@?$input_adapter_character_source@V?$string_input_adapter@D@__crt_stdio_input@@@__crt_strtox@@QAE_N_K@Z 004a5a00 f i libucrt:input.obj
 0001:000a4a25       ?scan_conversion_specifier@?$format_string_parser@D@__crt_stdio_input@@AAE_NXZ 004a5a25 f i libucrt:input.obj
 0001:000a4b90       ?scan_optional_field_width@?$format_string_parser@D@__crt_stdio_input@@AAE_NXZ 004a5b90 f i libucrt:input.obj
 0001:000a4c2d       ?scan_optional_length_modifier@?$format_string_parser@D@__crt_stdio_input@@AAEXXZ 004a5c2d f i libucrt:input.obj
 0001:000a4d3c       ?scan_optional_literal_character_trail_bytes_tchar@?$format_string_parser@D@__crt_stdio_input@@AAE_ND@Z 004a5d3c f i libucrt:input.obj
 0001:000a4d8e       ?scan_optional_wide_modifier@?$format_string_parser@D@__crt_stdio_input@@AAEXXZ 004a5d8e f i libucrt:input.obj
 0001:000a4dac       ?scan_scanset_range@?$format_string_parser@D@__crt_stdio_input@@AAE_NXZ 004a5dac f i libucrt:input.obj
 0001:000a4ee4       ?set_wide_for_c_s_or_scanset@?$format_string_parser@D@__crt_stdio_input@@AAEXXZ 004a5ee4 f i libucrt:input.obj
 0001:000a4f04       ?to_floating_point_length@__crt_stdio_input@@YAIW4length_modifier@1@@Z 004a5f04 f i libucrt:input.obj
 0001:000a4f27       ?to_integer_length@__crt_stdio_input@@YAIW4length_modifier@1@@Z 004a5f27 f i libucrt:input.obj
 0001:000a4f7a       ?unget@?$input_adapter_character_source@V?$string_input_adapter@D@__crt_stdio_input@@@__crt_strtox@@QAEXD@Z 004a5f7a f i libucrt:input.obj
 0001:000a4fc1       ?unget@?$string_input_adapter@D@__crt_stdio_input@@QAEXH@Z 004a5fc1 f i libucrt:input.obj
 0001:000a4fe0       ?validate@?$format_string_parser@D@__crt_stdio_input@@QBE_NXZ 004a5fe0 f i libucrt:input.obj
 0001:000a4ffc       ?validate@?$input_adapter_character_source@V?$string_input_adapter@D@__crt_stdio_input@@@__crt_strtox@@QBE_NXZ 004a5ffc f i libucrt:input.obj
 0001:000a501d       ?validate@?$string_input_adapter@D@__crt_stdio_input@@QAE_NXZ 004a601d f i libucrt:input.obj
 0001:000a503f       ?write_character@?$input_processor@DV?$string_input_adapter@D@__crt_stdio_input@@@__crt_stdio_input@@AAE_NQA_WIAAPA_WAAID@Z 004a603f f i libucrt:input.obj
 0001:000a50ac       ?write_integer@?$input_processor@DV?$string_input_adapter@D@__crt_stdio_input@@@__crt_stdio_input@@AAE_N_K@Z 004a60ac f i libucrt:input.obj
 0001:000a511a       ___stdio_common_vsscanf    004a611a f   libucrt:input.obj
 0001:000a513e       __tolower_l                004a613e f   libucrt:tolower_toupper.obj
 0001:000a5242       __toupper_l                004a6242 f   libucrt:tolower_toupper.obj
 0001:000a5347       _tolower                   004a6347 f   libucrt:tolower_toupper.obj
 0001:000a5377       _toupper                   004a6377 f   libucrt:tolower_toupper.obj
 0001:000a53a7       ___ascii_stricmp           004a63a7 f   libucrt:stricmp.obj
 0001:000a53e0       __stricmp                  004a63e0 f   libucrt:stricmp.obj
 0001:000a5429       __stricmp_l                004a6429 f   libucrt:stricmp.obj
 0001:000a54b7       __dexp                     004a64b7 f   libucrt:exp2d.obj
 0001:000a56ef       _exp2                      004a66ef f   libucrt:exp2d.obj
 0001:000a57b9       __fputc_nolock             004a67b9 f   libucrt:fputc.obj
 0001:000a57e2       _fputc                     004a67e2 f   libucrt:fputc.obj
 0001:000a58f0       _strspn                    004a68f0 f   libucrt:strspn.obj
 0001:000a5940       _strcspn                   004a6940 f   libucrt:strcspn.obj
 0001:000a59ea       _atof                      004a69ea f   libucrt:atof.obj
 0001:000a59fd       _atoi                      004a69fd f   libucrt:atox.obj
 0001:000a5a20       _wcsncpy                   004a6a20 f   libucrt:wcsncpy.obj
 0001:000a5a70       _strpbrk                   004a6a70 f   libucrt:strpbrk.obj
 0001:000a5ab0       _feof                      004a6ab0 f   libucrt:feoferr.obj
 0001:000a614b       __ftelli64                 004a714b f   libucrt:ftell.obj
 0001:000a6156       __ftelli64_nolock          004a7156 f   libucrt:ftell.obj
 0001:000a6161       _ftell                     004a7161 f   libucrt:ftell.obj
 0001:000a616c       ?LongLongSub@@YAJ_J0PA_J@Z 004a716c f i libucrt:fseek.obj
 0001:000a6428       __fseeki64                 004a7428 f   libucrt:fseek.obj
 0001:000a6443       _fseek                     004a7443 f   libucrt:fseek.obj
 0001:000a645e       __fread_nolock_s           004a745e f   libucrt:fread.obj
 0001:000a6644       _fread                     004a7644 f   libucrt:fread.obj
 0001:000a6661       _fread_s                   004a7661 f   libucrt:fread.obj
 0001:000a693b       ___acrt_stdio_flush_nolock 004a793b f   libucrt:fflush.obj
 0001:000a69a0       __fflush_nolock            004a79a0 f   libucrt:fflush.obj
 0001:000a69e8       __flushall                 004a79e8 f   libucrt:fflush.obj
 0001:000a69f1       _fflush                    004a79f1 f   libucrt:fflush.obj
 0001:000a6a46       __fgetc_nolock             004a7a46 f   libucrt:fgetc.obj
 0001:000a6a82       __getc_nolock              004a7a82 f   libucrt:fgetc.obj
 0001:000a6a8d       _fgetc                     004a7a8d f   libucrt:fgetc.obj
 0001:000a6c58       _fgets                     004a7c58 f   libucrt:fgets.obj
 0001:000a6d09       _fputs                     004a7d09 f   libucrt:fputs.obj
 0001:000a6df3       _abort                     004a7df3 f   libucrt:abort.obj
 0001:000a6e37       _free                      004a7e37 f   libucrt:free.obj
 0001:000a6e52       __strnicmp                 004a7e52 f   libucrt:strnicmp.obj
 0001:000a6ebf       __strnicmp_l               004a7ebf f   libucrt:strnicmp.obj
 0001:000a6f88       __ctime64                  004a7f88 f   libucrt:ctime.obj
 0001:000a7000       _strlen                    004a8000 f   libucrt:strlen.obj
 0001:000a708b       __seh_filter_exe           004a808b f   libucrt:exception_filter.obj
 0001:000a748d       ___acrt_allocate_buffer_for_argv 004a848d f   libucrt:argv_parsing.obj
 0001:000a74dc       __configure_narrow_argv    004a84dc f   libucrt:argv_parsing.obj
 0001:000a783d       ??$uninitialize@A6AXAAPAPA_W@Z@?$dual_state_global@PAPA_W@__crt_state_management@@QAEXA6AXAAPAPA_W@Z@Z 004a883d f i libucrt:environment_initialization.obj
 0001:000a783d       ??$uninitialize@A6AXAAPAPAD@Z@?$dual_state_global@PAPAD@__crt_state_management@@QAEXA6AXAAPAPAD@Z@Z 004a883d f i libucrt:environment_initialization.obj
 0001:000a789c       ___dcrt_get_or_create_wide_environment_nolock 004a889c f   libucrt:environment_initialization.obj
 0001:000a78a1       ___dcrt_uninitialize_environments_nolock 004a88a1 f   libucrt:environment_initialization.obj
 0001:000a78d8       __initialize_narrow_environment 004a88d8 f   libucrt:environment_initialization.obj
 0001:000a7b96       __crt_atexit               004a8b96 f   libucrt:onexit.obj
 0001:000a7bac       __execute_onexit_table     004a8bac f   libucrt:onexit.obj
 0001:000a7bd9       __initialize_onexit_table  004a8bd9 f   libucrt:onexit.obj
 0001:000a7c02       __register_onexit_function 004a8c02 f   libucrt:onexit.obj
 0001:000a7d30       ___acrt_initialize         004a8d30 f   libucrt:initialization.obj
 0001:000a7d42       ___acrt_uninitialize       004a8d42 f   libucrt:initialization.obj
 0001:000a7d72       _terminate                 004a8d72 f   libucrt:terminate.obj
 0001:000a7dae       __query_app_type           004a8dae f   libucrt:report_runtime_error.obj
 0001:000a7db4       __set_app_type             004a8db4 f   libucrt:report_runtime_error.obj
 0001:000a7dc3       ___acrt_has_user_matherr   004a8dc3 f   libucrt:matherr.obj
 0001:000a7ddb       ___acrt_initialize_user_matherr 004a8ddb f   libucrt:matherr.obj
 0001:000a7dea       ___acrt_invoke_user_matherr 004a8dea f   libucrt:matherr.obj
 0001:000a7e1c       ___setusermatherr          004a8e1c f   libucrt:matherr.obj
 0001:000a7e31       __get_narrow_winmain_command_line 004a8e31 f   libucrt:argv_winmain.obj
 0001:000a7e84       __initterm                 004a8e84 f   libucrt:initterm.obj
 0001:000a7ec9       __initterm_e               004a8ec9 f   libucrt:initterm.obj
 0001:000a7ef7       __get_fmode                004a8ef7 f   libucrt:setmode.obj
 0001:000a7f24       __set_fmode                004a8f24 f   libucrt:setmode.obj
 0001:000a7f61       __setmode_nolock           004a8f61 f   libucrt:setmode.obj
 0001:000a809e       ___acrt_set_locale_changed 004a909e f   libucrt:wsetlocale.obj
 0001:000a80a9       ___acrt_uninitialize_locale 004a90a9 f   libucrt:wsetlocale.obj
 0001:000a80d0       __configthreadlocale       004a90d0 f   libucrt:wsetlocale.obj
 0001:000a8132       __query_new_mode           004a9132 f   libucrt:new_mode.obj
 0001:000a8139       __set_new_mode             004a9139 f   libucrt:new_mode.obj
 0001:000a8168       ___p__commode              004a9168 f   libucrt:ncommode.obj
 0001:000a816e       __controlfp_s              004a916e f   libucrt:contrlfp.obj
 0001:000a81cd       _strcpy_s                  004a91cd f   libucrt:strcpy_s.obj
 0001:000a8227       _calloc                    004a9227 f   libucrt:calloc.obj
 0001:000a8232       _wcsncmp                   004a9232 f   libucrt:wcsncmp.obj
 0001:000a826c       __malloc_base              004a926c f   libucrt:malloc_base.obj
 0001:000a82ba       ___acrt_call_reportfault   004a92ba f   libucrt:invalid_parameter.obj
 0001:000a83f3       ___acrt_initialize_invalid_parameter_handler 004a93f3 f   libucrt:invalid_parameter.obj
 0001:000a8402       __invalid_parameter        004a9402 f   libucrt:invalid_parameter.obj
 0001:000a8466       __invalid_parameter_noinfo 004a9466 f   libucrt:invalid_parameter.obj
 0001:000a8476       __invoke_watson            004a9476 f   libucrt:invalid_parameter.obj
 0001:000a84aa       ___acrt_errno_from_os_error 004a94aa f   libucrt:errno.obj
 0001:000a84ed       ___acrt_errno_map_os_error 004a94ed f   libucrt:errno.obj
 0001:000a8510       ___doserrno                004a9510 f   libucrt:errno.obj
 0001:000a8523       __errno                    004a9523 f   libucrt:errno.obj
 0001:000a8536       __free_base                004a9536 f   libucrt:free_base.obj
 0001:000a8570       __mbtowc_l                 004a9570 f   libucrt:mbtowc.obj
 0001:000a86b2       _mbtowc                    004a96b2 f   libucrt:mbtowc.obj
 0001:000a86cc       __wctomb_s_l               004a96cc f   libucrt:wctomb.obj
 0001:000a8827       _strnlen                   004a9827 f   libucrt:strnlen.obj
 0001:000a8949       _wcsnlen                   004a9949 f   libucrt:strnlen.obj
 0001:000a8e37       ___acrt_getptd             004a9e37 f   libucrt:per_thread_data.obj
 0001:000a8ef4       ___acrt_getptd_head        004a9ef4 f   libucrt:per_thread_data.obj
 0001:000a8f8e       ___acrt_getptd_noexit      004a9f8e f   libucrt:per_thread_data.obj
 0001:000a9043       ___acrt_initialize_ptd     004aa043 f   libucrt:per_thread_data.obj
 0001:000a906f       ___acrt_uninitialize_ptd   004aa06f f   libucrt:per_thread_data.obj
 0001:000a9089       ___acrt_update_locale_info 004aa089 f   libucrt:locale_update.obj
 0001:000a90b6       ___acrt_update_multibyte_info 004aa0b6 f   libucrt:locale_update.obj
 0001:000a90e3       ?__acrt_fp_classify@@YA?AW4__acrt_fp_class@@ABN@Z 004aa0e3 f i libucrt:cvt.obj
 0001:000a9a96       ___acrt_fp_format          004aaa96 f   libucrt:cvt.obj
 0001:000a9bf2       __fileno                   004aabf2 f   libucrt:fileno.obj
 0001:000a9c19       __get_printf_count_output  004aac19 f   libucrt:printf_count_output.obj
 0001:000a9c2e       ___acrt_should_use_temporary_buffer 004aac2e f   libucrt:_sftbuf.obj
 0001:000a9c69       ___acrt_stdio_begin_temporary_buffering_nolock 004aac69 f   libucrt:_sftbuf.obj
 0001:000a9d15       ___acrt_stdio_end_temporary_buffering_nolock 004aad15 f   libucrt:_sftbuf.obj
 0001:000a9eb9       ___acrt_initialize_lowio   004aaeb9 f   libucrt:ioinit.obj
 0001:000a9f19       ___acrt_uninitialize_lowio 004aaf19 f   libucrt:ioinit.obj
 0001:000a9f45       __calloc_base              004aaf45 f   libucrt:calloc_base.obj
 0001:000aa188       ___acrt_AppPolicyGetProcessTerminationMethodInternal@4 004ab188 f   libucrt:winapi_thunks.obj
 0001:000aa1c8       ___acrt_AppPolicyGetThreadInitializationTypeInternal@4 004ab1c8 f   libucrt:winapi_thunks.obj
 0001:000aa208       ___acrt_AreFileApisANSI@0  004ab208 f   libucrt:winapi_thunks.obj
 0001:000aa227       ___acrt_CompareStringEx@36 004ab227 f   libucrt:winapi_thunks.obj
 0001:000aa284       ___acrt_FlsAlloc@4         004ab284 f   libucrt:winapi_thunks.obj
 0001:000aa2c3       ___acrt_FlsFree@4          004ab2c3 f   libucrt:winapi_thunks.obj
 0001:000aa302       ___acrt_FlsGetValue@4      004ab302 f   libucrt:winapi_thunks.obj
 0001:000aa341       ___acrt_FlsSetValue@8      004ab341 f   libucrt:winapi_thunks.obj
 0001:000aa383       ___acrt_GetDateFormatEx@28 004ab383 f   libucrt:winapi_thunks.obj
 0001:000aa3da       ___acrt_GetTimeFormatEx@24 004ab3da f   libucrt:winapi_thunks.obj
 0001:000aa41f       ___acrt_InitializeCriticalSectionEx@12 004ab41f f   libucrt:winapi_thunks.obj
 0001:000aa46a       ___acrt_LCMapStringEx@36   004ab46a f   libucrt:winapi_thunks.obj
 0001:000aa4c7       ___acrt_LocaleNameToLCID@8 004ab4c7 f   libucrt:winapi_thunks.obj
 0001:000aa4f8       ___acrt_RoInitialize@4     004ab4f8 f   libucrt:winapi_thunks.obj
 0001:000aa533       ___acrt_RoUninitialize@0   004ab533 f   libucrt:winapi_thunks.obj
 0001:000aa561       ___acrt_initialize_winapi_thunks 004ab561 f   libucrt:winapi_thunks.obj
 0001:000aa58c       ___acrt_uninitialize_winapi_thunks 004ab58c f   libucrt:winapi_thunks.obj
 0001:000aa5c2       __fcloseall                004ab5c2 f   libucrt:closeall.obj
 0001:000aa66d       ___acrt_stdio_free_buffer_nolock 004ab66d f   libucrt:_freebuf.obj
 0001:000aa6ad       ___acrt_get_begin_thread_init_policy 004ab6ad f   libucrt:win_policies.obj
 0001:000aa6f1       ___acrt_get_process_end_policy 004ab6f1 f   libucrt:win_policies.obj
 0001:000aa722       ___acrt_MultiByteToWideChar 004ab722 f   libucrt:multibytetowidechar.obj
 0001:000aa79e       ___acrt_WideCharToMultiByte 004ab79e f   libucrt:widechartomultibyte.obj
 0001:000aa855       ??$__crt_time_is_leap_year@H@@YA_NH@Z 004ab855 f i libucrt:wcsftime.obj
 0001:000ab8db       __Wcsftime_l               004ac8db f   libucrt:wcsftime.obj
 0001:000aba4c       __freea_crt                004aca4c f i libucrt:wcsftime.obj
 0001:000aba6c       ___acrt_initialize_timeset 004aca6c f   libucrt:timeset.obj
 0001:000abaa1       ___daylight                004acaa1 f   libucrt:timeset.obj
 0001:000abaa7       ___dstbias                 004acaa7 f   libucrt:timeset.obj
 0001:000abaad       ___timezone                004acaad f   libucrt:timeset.obj
 0001:000abab3       ___tzname                  004acab3 f   libucrt:timeset.obj
 0001:000abab9       ___wide_tzname             004acab9 f   libucrt:timeset.obj
 0001:000ababf       __get_daylight             004acabf f   libucrt:timeset.obj
 0001:000abaeb       __get_dstbias              004acaeb f   libucrt:timeset.obj
 0001:000abb17       __get_timezone             004acb17 f   libucrt:timeset.obj
 0001:000abb43       ??$__crt_time_elapsed_leap_years@H@@YAHH@Z 004acb43 f i libucrt:gmtime.obj
 0001:000abd80       ___getgmtimebuf            004acd80 f   libucrt:gmtime.obj
 0001:000abdbe       __gmtime64_s               004acdbe f   libucrt:gmtime.obj
 0001:000ac68c       ___tzset                   004ad68c f   libucrt:tzset.obj
 0001:000ac6e9       __isindst                  004ad6e9 f   libucrt:tzset.obj
 0001:000ac73d       __wremove                  004ad73d f   libucrt:wunlink.obj
 0001:000ac765       __wrename                  004ad765 f   libucrt:wrename.obj
 0001:000ac792       ___pctype_func             004ad792 f   libucrt:ctype.obj
 0001:000ac7b6       _iswctype                  004ad7b6 f   libucrt:iswctype.obj
 0001:000ac81f       __isctype_l                004ad81f f   libucrt:isctype.obj
 0001:000ac8ea       _fegetround                004ad8ea f   libucrt:fegetround.obj
 0001:000ac983       __close                    004ad983 f   libucrt:close.obj
 0001:000aca10       __close_nolock             004ada10 f   libucrt:close.obj
 0001:000acaac       ?__acrt_stdio_allocate_stream@@YA?AV__crt_stdio_stream@@XZ 004adaac f   libucrt:stream.obj
 0001:000acb15       ?__acrt_stdio_free_stream@@YAXV__crt_stdio_stream@@@Z 004adb15 f   libucrt:stream.obj
 0001:000acc12       ??$__acrt_stdio_parse_mode@D@@YA?AU__acrt_stdio_stream_mode@@QBD@Z 004adc12 f i libucrt:openfile.obj
 0001:000acebf       ?__acrt_stdio_parse_mode_D@@YA_NAAU__acrt_stdio_stream_mode@@@Z 004adebf f i libucrt:openfile.obj
 0001:000aceda       ?__acrt_stdio_parse_mode_T@@YA_NAAU__acrt_stdio_stream_mode@@@Z 004adeda f i libucrt:openfile.obj
 0001:000acef9       ?__acrt_stdio_parse_mode_b@@YA_NAAU__acrt_stdio_stream_mode@@@Z 004adef9 f i libucrt:openfile.obj
 0001:000acf19       ?__acrt_stdio_parse_mode_c@@YA_NAAU__acrt_stdio_stream_mode@@AA_N@Z 004adf19 f i libucrt:openfile.obj
 0001:000acf3b       ?__acrt_stdio_parse_mode_n@@YA_NAAU__acrt_stdio_stream_mode@@AA_N@Z 004adf3b f i libucrt:openfile.obj
 0001:000acf5d       ?__acrt_stdio_parse_mode_plus@@YA_NAAU__acrt_stdio_stream_mode@@AA_N@Z 004adf5d f i libucrt:openfile.obj
 0001:000acf93       ?__acrt_stdio_parse_mode_t@@YA_NAAU__acrt_stdio_stream_mode@@@Z 004adf93 f i libucrt:openfile.obj
 0001:000acfb3       ?__acrt_stdio_parse_mode_x@@YA_NAAU__acrt_stdio_stream_mode@@@Z 004adfb3 f i libucrt:openfile.obj
 0001:000acfd3       __openfile                 004adfd3 f   libucrt:openfile.obj
 0001:000ad759       __write                    004ae759 f   libucrt:write.obj
 0001:000ad84b       __write_nolock             004ae84b f   libucrt:write.obj
 0001:000adc66       ___acrt_stdio_flush_and_write_narrow_nolock 004aec66 f   libucrt:_flsbuf.obj
 0001:000adc71       ___acrt_initialize_locks   004aec71 f   libucrt:locks.obj
 0001:000adcb2       ___acrt_lock               004aecb2 f   libucrt:locks.obj
 0001:000adcc9       ___acrt_uninitialize_locks 004aecc9 f   libucrt:locks.obj
 0001:000adcfa       ___acrt_unlock             004aecfa f   libucrt:locks.obj
 0001:000add11       __isleadbyte_l             004aed11 f i libucrt:_wctype.obj
 0001:000adf35       ___acrt_LCMapStringA       004aef35 f   libucrt:lcmapstringa.obj
 0001:000adff6       __d_int                    004aeff6 f   libucrt:_test.obj
 0001:000ae0fc       __dtest                    004af0fc f   libucrt:_test.obj
 0001:000ae160       __fperrraise               004af160 f   libucrt:_test.obj
 0001:000ae181       __dscale                   004af181 f   libucrt:_scale.obj
 0001:000ae570       __lseeki64                 004af570 f   libucrt:lseek.obj
 0001:000ae58b       __lseeki64_nolock          004af58b f   libucrt:lseek.obj
 0001:000aea7b       __read                     004afa7b f   libucrt:read.obj
 0001:000aeb8f       __read_nolock              004afb8f f   libucrt:read.obj
 0001:000af0c9       ___acrt_stdio_refill_and_read_narrow_nolock 004b00c9 f   libucrt:_filbuf.obj
 0001:000af176       __commit                   004b0176 f   libucrt:commit.obj
 0001:000af2c1       ___acrt_get_sigabrt_handler 004b02c1 f   libucrt:signal.obj
 0001:000af2e8       ___acrt_initialize_signal_handlers 004b02e8 f   libucrt:signal.obj
 0001:000af306       _raise                     004b0306 f   libucrt:signal.obj
 0001:000af500       ___ascii_strnicmp          004b0500 f   libucrt:_strnicm.obj
 0001:000af70b       ?__crt_time_is_day_valid@@YA_NHHH@Z 004b070b f i libucrt:asctime.obj
 0001:000af74e       _asctime                   004b074e f   libucrt:asctime.obj
 0001:000afd82       ?allocate@?$__crt_win32_buffer@DU__crt_win32_buffer_internal_dynamic_resizing@@@@QAEHI@Z 004b0d82 f i libucrt:argv_wildcards.obj
 0001:000afe45       ___acrt_expand_narrow_argv_wildcards 004b0e45 f   libucrt:argv_wildcards.obj
 0001:000afe50       ___acrt_GetModuleFileNameA 004b0e50 f   libucrt:getmodulefilenamea.obj
 0001:000b0409       ___acrt_initialize_multibyte 004b1409 f   libucrt:mbctype.obj
 0001:000b0451       ___acrt_update_thread_multibyte_data 004b1451 f   libucrt:mbctype.obj
 0001:000b0464       __setmbcp_nolock           004b1464 f   libucrt:mbctype.obj
 0001:000b06ae       __ismbblead                004b16ae f   libucrt:ismbbyte.obj
 0001:000b06c6       ___acrt_initialize_command_line 004b16c6 f   libucrt:argv_data.obj
 0001:000b06df       _wcscpy_s                  004b16df f   libucrt:wcscpy_s.obj
 0001:000b077a       ___dcrt_get_narrow_environment_from_os 004b177a f   libucrt:get_environment_from_os.obj
 0001:000b07fe       ___dcrt_get_wide_environment_from_os 004b17fe f   libucrt:get_environment_from_os.obj
 0001:000b0bd1       ___dcrt_set_variable_in_wide_environment_nolock 004b1bd1 f   libucrt:setenv.obj
 0001:000b0bdc       __recalloc_base            004b1bdc f   libucrt:recalloc.obj
 0001:000b0c49       ___acrt_initialize_heap    004b1c49 f   libucrt:heap_handle.obj
 0001:000b0c5a       ___acrt_uninitialize_heap  004b1c5a f   libucrt:heap_handle.obj
 0001:000b0c64       ___acrt_execute_initializers 004b1c64 f   libucrt:shared_initialization.obj
 0001:000b0ccc       ___acrt_execute_uninitializers 004b1ccc f   libucrt:shared_initialization.obj
 0001:000b0cfd       ___acrt_initialize_new_handler 004b1cfd f   libucrt:new_handler.obj
 0001:000b0d0c       __callnewh                 004b1d0c f   libucrt:new_handler.obj
 0001:000b0d39       __query_new_handler        004b1d39 f   libucrt:new_handler.obj
 0001:000b0e60       _wcsncpy_s                 004b1e60 f   libucrt:wcsncpy_s.obj
 0001:000b0e6b       ___acrt_lowio_create_handle_array 004b1e6b f   libucrt:osfinfo.obj
 0001:000b0ee6       ___acrt_lowio_destroy_handle_array 004b1ee6 f   libucrt:osfinfo.obj
 0001:000b0f1b       ___acrt_lowio_ensure_fh_exists 004b1f1b f   libucrt:osfinfo.obj
 0001:000b0fb9       ___acrt_lowio_lock_fh      004b1fb9 f   libucrt:osfinfo.obj
 0001:000b0fdc       ___acrt_lowio_set_os_handle 004b1fdc f   libucrt:osfinfo.obj
 0001:000b106e       ___acrt_lowio_unlock_fh    004b206e f   libucrt:osfinfo.obj
 0001:000b1091       __alloc_osfhnd             004b2091 f   libucrt:osfinfo.obj
 0001:000b11a4       __free_osfhnd              004b21a4 f   libucrt:osfinfo.obj
 0001:000b1235       __get_osfhandle            004b2235 f   libucrt:osfinfo.obj
 0001:000b129f       ___acrt_initialize_fmode   004b229f f   libucrt:txtmode.obj
 0001:000b12b5       ____lc_codepage_func       004b22b5 f   libucrt:initctype.obj
 0001:000b12da       ___acrt_locale_free_monetary 004b22da f   libucrt:initmon.obj
 0001:000b13d8       ___acrt_locale_free_numeric 004b23d8 f   libucrt:initnum.obj
 0001:000b1479       ___acrt_locale_free_time   004b2479 f   libucrt:inittime.obj
 0001:000b155d       ___acrt_GetStringTypeA     004b255d f   libucrt:getstringtypea.obj
 0001:000b1660       ___acrt_add_locale_ref     004b2660 f   libucrt:locale_refcounting.obj
 0001:000b16dd       ___acrt_free_locale        004b26dd f   libucrt:locale_refcounting.obj
 0001:000b1825       ___acrt_locale_add_lc_time_reference 004b2825 f   libucrt:locale_refcounting.obj
 0001:000b184e       ___acrt_locale_free_lc_time_if_unreferenced 004b284e f   libucrt:locale_refcounting.obj
 0001:000b187f       ___acrt_locale_release_lc_time_reference 004b287f f   libucrt:locale_refcounting.obj
 0001:000b18a8       ___acrt_release_locale_ref 004b28a8 f   libucrt:locale_refcounting.obj
 0001:000b1929       ___acrt_update_thread_locale_data 004b2929 f   libucrt:locale_refcounting.obj
 0001:000b19aa       __updatetlocinfoEx_nolock  004b29aa f   libucrt:locale_refcounting.obj
 0001:000b1aa1       __clearfp                  004b2aa1 f   libucrt:ieee87.obj
 0001:000b1b7f       __control87                004b2b7f f   libucrt:ieee87.obj
 0001:000b1f4a       ?__mbrtowc_utf8@__crt_mbstring@@YAIPA_WPBDIPAU_Mbstatet@@@Z 004b2f4a f   libucrt:mbrtowc.obj
 0001:000b1f8a       ?__mbsrtowcs_utf8@__crt_mbstring@@YAIPA_WPAPBDIPAU_Mbstatet@@@Z 004b2f8a f   libucrt:mbrtowc.obj
 0001:000b2085       ?__c32rtomb_utf8@__crt_mbstring@@YAIPAD_UPAU_Mbstatet@@@Z 004b3085 f   libucrt:c32rtomb.obj
 0001:000b2130       ?return_illegal_sequence@__crt_mbstring@@YAIPAU_Mbstatet@@@Z 004b3130 f i libucrt:c32rtomb.obj
 0001:000b21c9       ___acrt_fp_strflt_to_string 004b31c9 f   libucrt:_fptostr.obj
 0001:000b22a5       ___acrt_fltout             004b32a5 f   libucrt:cfout.obj
 0001:000b37ac       __isatty                   004b47ac f   libucrt:isatty.obj
 0001:000b3852       ___acrt_DownlevelLocaleNameToLCID 004b4852 f   libucrt:lcidtoname_downlevel.obj
 0001:000b387e       ___ascii_wcsicmp           004b487e f   libucrt:wcsicmp.obj
 0001:000b38bb       __towlower_internal        004b48bb f i libucrt:wcsicmp.obj
 0001:000b38fa       __wcsicmp                  004b48fa f   libucrt:wcsicmp.obj
 0001:000b3943       __wcsicmp_l                004b4943 f   libucrt:wcsicmp.obj
 0001:000b3b95       __wgetenv_s                004b4b95 f   libucrt:getenv.obj
 0001:000b3ba0       ___acrt_GetStringTypeW     004b4ba0 f   libucrt:getstringtypew.obj
 0001:000b3ed6       ___acrt_fenv_get_common_round_control 004b4ed6 f   libucrt:_fenvutils.obj
 0001:000b3ef8       ___acrt_fenv_get_control   004b4ef8 f   libucrt:_fenvutils.obj
 0001:000b3f78       ___acrt_fenv_get_fp_status_word_from_exception_mask 004b4f78 f   libucrt:_fenvutils.obj
 0001:000b3f92       ___acrt_fenv_get_status    004b4f92 f   libucrt:_fenvutils.obj
 0001:000b404a       ___acrt_fenv_set_control   004b504a f   libucrt:_fenvutils.obj
 0001:000b40b2       ___acrt_fenv_set_status    004b50b2 f   libucrt:_fenvutils.obj
 0001:000b41a9       ___ascii_wcsnicmp          004b51a9 f   libucrt:wcsnicmp.obj
 0001:000b47c5       __sopen_nolock             004b57c5 f   libucrt:open.obj
 0001:000b4833       __sopen_s                  004b5833 f   libucrt:open.obj
 0001:000b4853       __wsopen_nolock            004b5853 f   libucrt:open.obj
 0001:000b4b7d       __putwch_nolock            004b5b7d f   libucrt:putwch.obj
 0001:000b4baf       ___acrt_stdio_allocate_buffer_nolock 004b5baf f   libucrt:_getbuf.obj
 0001:000b4c0b       ___strncnt                 004b5c0b f   libucrt:strncnt.obj
 0001:000b4c27       _fegetexceptflag           004b5c27 f   libucrt:fegetexceptflag.obj
 0001:000b4c58       _fesetexceptflag           004b5c58 f   libucrt:fesetexceptflag.obj
 0001:000b4cb1       __dnorm                    004b5cb1 f   libucrt:_norm.obj
 0001:000b4e50       _qsort                     004b5e50 f   libucrt:qsort.obj
 0001:000b53f1       _strncpy_s                 004b63f1 f   libucrt:strncpy_s.obj
 0001:000b53fc       __mbsdec                   004b63fc f   libucrt:mbsdec.obj
 0001:000b5413       __mbsdec_l                 004b6413 f   libucrt:mbsdec.obj
 0001:000b54af       __wcsnicoll                004b64af f   libucrt:wcsnicol.obj
 0001:000b551c       __wcsnicoll_l              004b651c f   libucrt:wcsnicol.obj
 0001:000b55dc       __msize_base               004b65dc f   libucrt:msize.obj
 0001:000b560f       __realloc_base             004b660f f   libucrt:realloc_base.obj
 0001:000b5678       ___set_fpsr_sse2           004b6678 f   libucrt:fpctrl.obj
 0001:000b56f8       __clrfp                    004b66f8 f   libucrt:fpctrl.obj
 0001:000b5709       __ctrlfp                   004b6709 f   libucrt:fpctrl.obj
 0001:000b5733       __set_statfp               004b6733 f   libucrt:fpctrl.obj
 0001:000b578c       __statfp                   004b678c f   libucrt:fpctrl.obj
 0001:000b579c       ?__mbrtoc32_utf8@__crt_mbstring@@YAIPA_UPBDIPAU_Mbstatet@@@Z 004b679c f   libucrt:mbrtoc32.obj
 0001:000b5943       _fegetenv                  004b6943 f   libucrt:fegetenv.obj
 0001:000b5960       _fesetenv                  004b6960 f   libucrt:fesetenv.obj
 0001:000b59ab       _feholdexcept              004b69ab f   libucrt:feholdexcept.obj
 0001:000b5a00       __CIlog10                  004b6a00 f   libucrt:log10_impl.obj
 0001:000b5a3b       __CIlog10_default          004b6a3b f   libucrt:log10_impl.obj
 0001:000b5a4f       __log10_default            004b6a4f     libucrt:log10_impl.obj
 0001:000b5b10       _ceil                      004b6b10 f   libucrt:ceil_pentium4.obj
 0001:000b5b50       __ceil_pentium4            004b6b50 f   libucrt:ceil_pentium4.obj
 0001:000b5c2d       __towlower_l               004b6c2d f   libucrt:towlower.obj
 0001:000b5ccf       ??0__crt_seek_guard@@QAE@H_J@Z 004b6ccf f i libucrt:chsize.obj
 0001:000b5d1c       __chsize_nolock            004b6d1c f   libucrt:chsize.obj
 0001:000b5eab       ___dcrt_lowio_ensure_console_output_initialized 004b6eab f   libucrt:initcon.obj
 0001:000b5eca       ___dcrt_terminate_console_output 004b6eca f   libucrt:initcon.obj
 0001:000b5ee1       ___dcrt_write_console      004b6ee1 f   libucrt:initcon.obj
 0001:000b5f36       _fetestexcept              004b6f36 f   libucrt:fetestexcept.obj
 0001:000b5f56       ___acrt_CompareStringW     004b6f56 f   libucrt:comparestringw.obj
 0001:000b5fbb       ___acrt_initialize_sse2    004b6fbb f   libucrt:mathfcns.obj
 0001:000b5fd0       __CIlog10_pentium4         004b6fd0 f   libucrt:log10_pentium4.obj
 0001:000b5fe8       __log10_pentium4           004b6fe8     libucrt:log10_pentium4.obj
 0001:000b6280       __fFEXP                    004b7280 f   libucrt:87tran.obj
 0001:000b62d7       __rtinfpopse               004b72d7     libucrt:87tran.obj
 0001:000b62d9       __rtinfnpopse              004b72d9     libucrt:87tran.obj
 0001:000b62e9       __fFLN                     004b72e9     libucrt:87tran.obj
 0001:000b639e       __rtinfpop                 004b739e     libucrt:87tran.obj
 0001:000b63a0       __rtinfnpop                004b73a0     libucrt:87tran.obj
 0001:000b63b0       __rtforexpinf              004b73b0 f   libucrt:87tran.obj
 0001:000b63bd       __ffexpm1                  004b73bd     libucrt:87tran.obj
 0001:000b6470       __trandisp1                004b7470 f   libucrt:87disp.obj
 0001:000b64e5       __trandisp2                004b74e5 f   libucrt:87disp.obj
 0001:000b657f       __rttospopde               004b757f     libucrt:87disp.obj
 0001:000b6584       __rttospop                 004b7584     libucrt:87disp.obj
 0001:000b6590       __rtnospop                 004b7590 f   libucrt:87disp.obj
 0001:000b65a0       __rttosnpop                004b75a0 f   libucrt:87disp.obj
 0001:000b65a1       __rtnospopde               004b75a1     libucrt:87disp.obj
 0001:000b65a8       __rtzeropop                004b75a8     libucrt:87disp.obj
 0001:000b65aa       __rtzeronpop               004b75aa     libucrt:87disp.obj
 0001:000b65b0       __rtzerospop               004b75b0 f   libucrt:87disp.obj
 0001:000b65bd       __rtonepop                 004b75bd     libucrt:87disp.obj
 0001:000b65c0       __rtonenpop                004b75c0 f   libucrt:87disp.obj
 0001:000b65d0       __tosnan1                  004b75d0 f   libucrt:87disp.obj
 0001:000b6600       __nosnan2                  004b7600 f   libucrt:87disp.obj
 0001:000b6610       __tosnan2                  004b7610 f   libucrt:87disp.obj
 0001:000b6640       __nan2                     004b7640 f   libucrt:87disp.obj
 0001:000b6680       __rtindfpop                004b7680 f   libucrt:87disp.obj
 0001:000b6682       __rtindfnpop               004b7682     libucrt:87disp.obj
 0001:000b6693       __rttosnpopde              004b7693     libucrt:87disp.obj
 0001:000b66a0       __rtatan2inf               004b76a0 f   libucrt:87disp.obj
 0001:000b66bd       __rtchsifneg               004b76bd     libucrt:87disp.obj
 0001:000b66d0       __twoToTOS                 004b76d0 f   libucrt:common.obj
 0001:000b66e5       __load_CW                  004b76e5 f   libucrt:common.obj
 0001:000b66fc       __convertTOStoQNaN         004b76fc f   libucrt:common.obj
 0001:000b6715       __fload_withFB             004b7715 f   libucrt:common.obj
 0001:000b6758       __checkTOS_withFB          004b7758 f   libucrt:common.obj
 0001:000b676e       __fast_exit                004b776e f   libucrt:common.obj
 0001:000b677b       __math_exit                004b777b f   libucrt:common.obj
 0001:000b67a5       __check_overflow_exit      004b77a5 f   libucrt:common.obj
 0001:000b67b9       __check_range_exit         004b77b9 f   libucrt:common.obj
 0001:000b6860       __startTwoArgErrorHandling 004b7860 f   libucrt:genexcep.obj
 0001:000b6877       __startOneArgErrorHandling 004b7877 f   libucrt:genexcep.obj
 0001:000b68b3       ___libm_error_support      004b78b3 f   libucrt:libm_error.obj
 0001:000b6aa7       __ceil_default             004b7aa7 f   libucrt:ceil.obj
 0001:000b6b5c       ___acrt_LCMapStringW       004b7b5c f   libucrt:lcmapstringw.obj
 0001:000b6b9a       __d_inttype                004b7b9a f   libucrt:powhlp.obj
 0001:000b6c02       __powhlp                   004b7c02 f   libucrt:powhlp.obj
 0001:000b6d2d       __87except                 004b7d2d f   libucrt:87except.obj
 0001:000b6e37       __frnd                     004b7e37 f   libucrt:frnd.obj
 0001:000b6e4b       __errcode                  004b7e4b f   libucrt:fpexcept.obj
 0001:000b6e7f       __except1                  004b7e7f f   libucrt:fpexcept.obj
 0001:000b6f4d       __handle_exc               004b7f4d f   libucrt:fpexcept.obj
 0001:000b7138       __raise_exc                004b8138 f   libucrt:fpexcept.obj
 0001:000b715b       __raise_exc_ex             004b815b f   libucrt:fpexcept.obj
 0001:000b7451       __set_errno_from_matherr   004b8451 f   libucrt:fpexcept.obj
 0001:000b7480       __umatherr                 004b8480 f   libucrt:fpexcept.obj
 0001:000b7520       __decomp                   004b8520 f   libucrt:util.obj
 0001:000b75f2       __set_exp                  004b85f2 f   libucrt:util.obj
 0001:000b761f       __sptype                   004b861f f   libucrt:util.obj
 0001:000b767d       __fpclass                  004b867d f   libucrt:ieeemisc.obj
 0001:000b7730       __FindPESection            004b8730 f   LIBCMT:pesect.obj
 0001:000b7780       __IsNonwritableInCurrentImage 004b8780 f   LIBCMT:pesect.obj
 0001:000b7840       __ValidateImageBase        004b8840 f   LIBCMT:pesect.obj
 0001:000b7873       __EH_prolog3_catch         004b8873 f   LIBCMT:ehprolg3.obj
 0001:000b78b0       __aulldvrm                 004b88b0 f   LIBCMT:ulldvrm.obj
 0001:000b7950       __alldiv                   004b8950 f   LIBCMT:lldiv.obj
 0001:000b7a00       __alldvrm                  004b8a00 f   LIBCMT:lldvrm.obj
 0001:000b7ae0       __allrem                   004b8ae0 f   LIBCMT:llrem.obj
 0001:000b7ba0       __allmul                   004b8ba0 f   LIBCMT:llmul.obj
 0001:000b7be0       __allshl                   004b8be0 f   LIBCMT:llshl.obj
 0001:000b7c00       __aullshr                  004b8c00 f   LIBCMT:ullshr.obj
 0001:000b7c20       __ftol2_sse                004b8c20 f   LIBCMT:ftol2.obj
 0001:000b7c30       __ftoi2                    004b8c30 f   LIBCMT:ftol2.obj
 0001:000b7cb0       __alloca_probe             004b8cb0 f   LIBCMT:chkstk.obj
 0001:000b7cb0       __chkstk                   004b8cb0 f   LIBCMT:chkstk.obj
 0001:000b7ce0       __alloca_probe_16          004b8ce0 f   LIBCMT:alloca16.obj
 0001:000b7cf6       __alloca_probe_8           004b8cf6     LIBCMT:alloca16.obj
 0001:000b7d0c       _wcschr                    004b8d0c f   libvcruntime:wcschr.obj
 0001:000b7dd3       __filter_x86_sse2_floating_point_exception 004b8dd3 f   LIBCMT:x86_exception_filter.obj
 0001:000b7dd3       __filter_x86_sse2_floating_point_exception_default 004b8dd3 f   LIBCMT:x86_exception_filter.obj
 0001:000b7e90       ?importassaultcube@@YAXPADPAH@Z 004b8e90 f   assaultcubeloader.obj
 0001:000b8010       ?ac_mapmodel@@YAXPAH000PAD@Z 004b9010 f   assaultcubeloader.obj
 0001:000b8120       ?ac_texture@@YAXPAHPAD@Z   004b9120 f   assaultcubeloader.obj
 0001:000b82b0       ?shouldsaveblendmap@@YAEXZ 004b92b0 f   blend.obj
 0001:000b82c0       ?saveblendmap@@YAXPAUstream@@@Z 004b92c0 f   blend.obj
 0001:000b82e0       ?saveblendmap@@YAXPAUstream@@EAAUBlendMapNode@@@Z 004b92e0 f   blend.obj
 0001:000b8350       ?loadblendmap@@YA_NPAUstream@@H@Z 004b9350 f   blend.obj
 0001:000b83a0       ?loadblendmap@@YA_NPAUstream@@AAEAAUBlendMapNode@@@Z 004b93a0 f   blend.obj
 0001:000b84b0       ?renderblendbrush@@YAXXZ   004b94b0 f   blend.obj
 0001:000b8660       ?run@?$_icmd_moveblendmap@$0EDD@@@SAXPAH0@Z 004b9660 f   blend.obj
 0001:000b8790       ?run@?$_icmd_clearblendmap@$0ECE@@@SAXXZ 004b9790 f   blend.obj
 0001:000b8810       ?showblendmap@@YAXXZ       004b9810 f   blend.obj
 0001:000b88a0       ?run@?$_icmd_invertblendmap@$0EBG@@@SAXXZ 004b98a0 f   blend.obj
 0001:000b8a00       ?invertblendmapsel@@YAXXZ  004b9a00 f   blend.obj
 0001:000b8bb0       ?clearblendmapsel@@YAXXZ   004b9bb0 f   blend.obj
 0001:000b8d60       ?run@?$_icmd_paintblendmap@$0DPD@@@SAXPAH@Z 004b9d60 f   blend.obj
 0001:000b8da0       ?trypaintblendmap@@YAXXZ   004b9da0 f   blend.obj
 0001:000b8e00       ?stoppaintblendmap@@YAXXZ  004b9e00 f   blend.obj
 0001:000b8e20       ?paintblendmap@@YAX_N@Z    004b9e20 f   blend.obj
 0001:000b8fc0       ?run@?$_icmd_rotateblendbrush@$0DMG@@@SAXPAH@Z 004b9fc0 f   blend.obj
 0001:000b91a0       ?canpaintblendmap@@YA_N_N00@Z 004ba1a0 f   blend.obj
 0001:000b9230       ?run@?$_icmd_curblendbrush@$0DKL@@@SAXXZ 004ba230 f   blend.obj
 0001:000b9250       ?run@?$_icmd_getblendbrushname@$0DKJ@@@SAXPAH@Z 004ba250 f   blend.obj
 0001:000b92c0       ?run@?$_icmd_setblendbrush@$0DKE@@@SAXPAD@Z 004ba2c0 f   blend.obj
 0001:000b9330       ?run@?$_icmd_nextblendbrush@$0DJP@@@SAXPAH@Z 004ba330 f   blend.obj
 0001:000b9380       ?addblendbrush@@YAXPBD0@Z  004ba380 f   blend.obj
 0001:000b9630       ?delblendbrush@@YAXPBD@Z   004ba630 f   blend.obj
 0001:000b9730       ?run@?$_icmd_clearblendbrushes@$0DGO@@@SAXXZ 004ba730 f   blend.obj
 0001:000b97b0       ?cleanupblendmap@@YAXXZ    004ba7b0 f   blend.obj
 0001:000b9860       ?clearblendtextures@@YAXXZ 004ba860 f   blend.obj
 0001:000b98e0       ?updateblendtextures@@YAXHHHH@Z 004ba8e0 f   blend.obj
 0001:000ba020       ?bindblendtexture@@YAXABUivec@@@Z 004bb020 f   blend.obj
 0001:000ba580       ?dumpblendtexs@@YAXXZ      004bb580 f   blend.obj
 0001:000ba6f0       ?var_blendtexsize@@YAXPAUident@@@Z 004bb6f0 f   blend.obj
 0001:000ba730       ?moveblendmap@@YAXHH@Z     004bb730 f   blend.obj
 0001:000ba790       ?moveblendmap@@YAXEAAUBlendMapNode@@HHHHH@Z 004bb790 f   blend.obj
 0001:000ba880       ?calcblendlayer@@YAHHHHH@Z 004bb880 f   blend.obj
 0001:000bab40       ?shrinkblendmap@@YAXH@Z    004bbb40 f   blend.obj
 0001:000baba0       ?enlargeblendmap@@YAXXZ    004bbba0 f   blend.obj
 0001:000bac00       ?resetblendmap@@YAXXZ      004bbc00 f   blend.obj
 0001:000bac30       ?blitblendmap@@YAXPAEHHHHH@Z 004bbc30 f   blend.obj
 0001:000bb380       ?var_blendpaintmode@@YAXPAUident@@@Z 004bc380 f   blend.obj
 0001:000bb3a0       ?run@?$_icmd_optimizeblendmap@$0BGF@@@SAXXZ 004bc3a0 f   blend.obj
 0001:000bb3b0       ?optimizeblendmap@@YAXXZ   004bc3b0 f   blend.obj
 0001:000bb4e0       ?invertblendmap@@YAXHHHH@Z 004bc4e0 f   blend.obj
 0001:000bb7a0       ?fillblendmap@@YAXHHHHE@Z  004bc7a0 f   blend.obj
 0001:000bbaf0       ?shrink@BlendMapBranch@@QAEEAAUBlendMapNode@@H@Z 004bcaf0 f   blend.obj
 0001:000bbb20       ?splitsolid@BlendMapNode@@QAEXAAEE@Z 004bcb20 f   blend.obj
 0001:000bbb90       ?cleanup@BlendMapNode@@QAEXH@Z 004bcb90 f   blend.obj
 0001:000bbca0       ?initlights@@YAXXZ         004bcca0 f   light.obj
 0001:000bbcf0       ?run@?$_icmd_calclight@$0CBN@@@SAXXZ 004bccf0 f   light.obj
 0001:000bbd10       ?mpcalclight@@YAX_N@Z      004bcd10 f   light.obj
 0001:000bbd40       ?calclight@@YAXXZ          004bcd40 f   light.obj
 0001:000bd2c0       ?show_calclight_progress@@YAXXZ 004be2c0 f   light.obj
 0001:000bd330       ?check_calclight_canceled@@YAXXZ 004be330 f   light.obj
 0001:000bd3f0       ?reserve@PackNode@@QAEXGGGG@Z 004be3f0 f   light.obj
 0001:000bd870       ?insert@PackNode@@QAE_NAAG0GG@Z 004be870 f   light.obj
 0001:000bdae0       ?setsurface@@YAXAAUcube@@HABUsurfaceinfo@@PBUvertinfo@@H@Z 004beae0 f   light.obj
 0001:000bdd60       ?setsurfaces@@YAXAAUcube@@PBUsurfaceinfo@@PBUvertinfo@@H@Z 004bed60 f   light.obj
 0001:000bddc0       ?brightencube@@YAXAAUcube@@@Z 004bedc0 f   light.obj
 0001:000bddf0       ?setupsunlight@@YAXXZ      004bedf0 f   light.obj
 0001:000bde30       ?setsunlightdir@@YAXXZ     004bee30 f   light.obj
 0001:000bdf70       ?var_sunlightpitch@@YAXPAUident@@@Z 004bef70 f   light.obj
 0001:000bdf80       ?var_sunlightyaw@@YAXPAUident@@@Z 004bef80 f   light.obj
 0001:000bdf90       ?var_sunlightscale@@YAXPAUident@@@Z 004bef90 f   light.obj
 0001:000bdfd0       ?var_sunlight@@YAXPAUident@@@Z 004befd0 f   light.obj
 0001:000be080       ?var_skylight@@YAXPAUident@@@Z 004bf080 f   light.obj
 0001:000be0c0       ?var_ambient@@YAXPAUident@@@Z 004bf0c0 f   light.obj
 0001:000be100       ?previewblends@@YAXABUivec@@0@Z 004bf100 f   light.obj
 0001:000be1d0       ?clearlights@@YAXXZ        004bf1d0 f   light.obj
 0001:000be2d0       ?run@?$_icmd_smoothangle@$0BBI@@@SAXPAH0@Z 004bf2d0 f   normal.obj
 0001:000be300       ?smoothangle@@YAHHH@Z      004bf300 f   normal.obj
 0001:000be380       ?addnormals@@YAXAAUcube@@ABUivec@@H@Z 004bf380 f   normal.obj
 0001:000bf290       ?show_addnormals_progress@@YAXXZ 004c0290 f   normal.obj
 0001:000bfb20       ?findnormal@@YAXABUvec@@H0AAU1@@Z 004c0b20 f   normal.obj
 0001:000bfbe0       ?calcnormals@@YAX_N@Z      004c0be0 f   normal.obj
 0001:000bfc60       ?clearnormals@@YAXXZ       004c0c60 f   normal.obj
 0001:000bfcc0       ?resetsmoothgroups@@YAXXZ  004c0cc0 f   normal.obj
 0001:000bff00       ?calcmerges@@YAXXZ         004c0f00 f   octa.obj
 0001:000bffd0       ?genmerges@@YAXPAUcube@@ABUivec@@H@Z 004c0fd0 f   octa.obj
 0001:000c04e0       ?mergepolys@@YAXHABUivec@@0HAAU?$vector@Upoly@@@@@Z 004c14e0 f   octa.obj
 0001:000c0960       ?addmerges@@YAXHABUivec@@0HAAU?$vector@Upoly@@@@@Z 004c1960 f   octa.obj
 0001:000c0a20       ?addmerge@@YAXAAUcube@@HABUivec@@1HAAUpoly@@@Z 004c1a20 f   octa.obj
 0001:000c0cc0       ?mergepolys@@YA_NHAAU?$hashset@Uplink@@@@AAU?$vector@PAUplink@@@@HAAUpoly@@2ABUpedge@@@Z 004c1cc0 f   octa.obj
 0001:000c10c0       ?genpoly@@YA_NAAUcube@@HABUivec@@HHAAU2@AAHAAUpoly@@@Z 004c20c0 f   octa.obj
 0001:000c19c0       ?clippoly@@YA_NAAUpoly@@ABUfacebounds@@@Z 004c29c0 f   octa.obj
 0001:000c1ea0       ?mincubeface@@YA_NABUcube@@HABUivec@@HAAUfacebounds@@@Z 004c2ea0 f   octa.obj
 0001:000c1f80       ?mincubeface@@YAXABUcube@@HABUivec@@HABUfacebounds@@AAU3@GG@Z 004c2f80 f   octa.obj
 0001:000c2450       ?genclipplanes@@YAXABUcube@@ABUivec@@HAAUclipplanes@@_N3@Z 004c3450 f   octa.obj
 0001:000c2870       ?genclipbounds@@YAXABUcube@@ABUivec@@HAAUclipplanes@@@Z 004c3870 f   octa.obj
 0001:000c2aa0       ?calcvert@@YAXABUcube@@ABUivec@@HAAUvec@@H_N@Z 004c3aa0 f   octa.obj
 0001:000c2b20       ?classifyface@@YAHABUcube@@HABUivec@@H@Z 004c3b20 f   octa.obj
 0001:000c2f80       ?visibleface@@YA_NABUcube@@HABUivec@@HGGG@Z 004c3f80 f   octa.obj
 0001:000c3530       ?collapsedface@@YA_NABUcube@@H@Z 004c4530 f   octa.obj
 0001:000c49f0       ?faceedges@@YAIABUcube@@H@Z 004c59f0 f   octa.obj
 0001:000c4a90       ?faceconvexity@@YAHABUcube@@H@Z 004c5a90 f   octa.obj
 0001:000c4ae0       ?faceconvexity@@YAHQBUivec@@AAH@Z 004c5ae0 f   octa.obj
 0001:000c4c40       ?notouchingface@@YA_NABUcube@@H@Z 004c5c40 f   octa.obj
 0001:000c4c70       ?touchingface@@YA_NABUcube@@H@Z 004c5c70 f   octa.obj
 0001:000c4ca0       ?collideface@@YA_NABUcube@@H@Z 004c5ca0 f   octa.obj
 0001:000c4d50       ?run@?$_icmd_remip@$0CEL@@@SAXXZ 004c5d50 f   octa.obj
 0001:000c4d80       ?remip@@YA_NAAUcube@@ABUivec@@H@Z 004c5d80 f   octa.obj
 0001:000c53e0       ?visibleorient@@YAHABUcube@@H@Z 004c63e0 f   octa.obj
 0001:000c5490       ?crushededge@@YA_NEH@Z     004c6490 f   octa.obj
 0001:000c54b0       ?subdividecube@@YA_NAAUcube@@_N1@Z 004c64b0 f   octa.obj
 0001:000c5ce0       ?forcemip@@YAXAAUcube@@_N@Z 004c6ce0 f   octa.obj
 0001:000c5e90       ?getmippedtexture@@YAHABUcube@@H@Z 004c6e90 f   octa.obj
 0001:000c5fb0       ?neighbourcube@@YAABUcube@@ABU1@HABUivec@@HAAU2@AAH@Z 004c6fb0 f   octa.obj
 0001:000c6100       ?lookupmaterial@@YAHABUvec@@@Z 004c7100 f   octa.obj
 0001:000c61a0       ?validatec@@YAXPAUcube@@H@Z 004c71a0 f   octa.obj
 0001:000c6280       ?isvalidcube@@YA_NABUcube@@@Z 004c7280 f   octa.obj
 0001:000c6380       ?printcube@@YAXXZ          004c7380 f   octa.obj
 0001:000c63f0       ?optiface@@YAXPAEAAUcube@@@Z 004c73f0 f   octa.obj
 0001:000c6520       ?setcubevector@@YAXAAUcube@@HHHHABUivec@@@Z 004c7520 f   octa.obj
 0001:000c6610       ?getcubevector@@YAXAAUcube@@HHHHAAUivec@@@Z 004c7610 f   octa.obj
 0001:000c66b0       ?discardchildren@@YAXAAUcube@@_NH@Z 004c76b0 f   octa.obj
 0001:000c67b0       ?freecubeext@@YAXAAUcube@@@Z 004c77b0 f   octa.obj
 0001:000c67d0       ?familysize@@YAHABUcube@@@Z 004c77d0 f   octa.obj
 0001:000c6800       ?newcubeext@@YAPAUcubeext@@AAUcube@@H_N@Z 004c7800 f   octa.obj
 0001:000c68d0       ?growcubeext@@YAPAUcubeext@@PAU1@H@Z 004c78d0 f   octa.obj
 0001:000c6920       ?setcubeext@@YAXAAUcube@@PAUcubeext@@@Z 004c7920 f   octa.obj
 0001:000c6940       ?calcmergedsize@@YAHHABUivec@@HPBUvertinfo@@H@Z 004c7940 f   octa.obj
 0001:000c6b10       ?flataxisface@@YA_NABUcube@@H@Z 004c7b10 f   octa.obj
 0001:000c6b40       ?faceconvexity@@YAHPBUvertinfo@@HH@Z 004c7b40 f   octa.obj
 0001:000c6c60       ?genfaceverts@@YAXABUcube@@HQAUivec@@@Z 004c7c60 f   octa.obj
 0001:000c70c0       ?faceconvexity@@YAHQBUivec@@@Z 004c80c0 f   octa.obj
 0001:000c7190       ?visibletris@@YAHABUcube@@HABUivec@@HGGG@Z 004c8190 f   octa.obj
 0001:000c7770       ?invalidatemerges@@YAXAAUcube@@ABUivec@@H_N@Z 004c8770 f   octa.obj
 0001:000c77b0       ?remip@@YAXXZ              004c87b0 f   octa.obj
 0001:000c7870       ?lookupcube@@YAAAUcube@@ABUivec@@HAAU2@AAH@Z 004c8870 f   octa.obj
 0001:000c79d0       ?mpremip@@YAX_N@Z          004c89d0 f   octa.obj
 0001:000c7a00       ?freeocta@@YAXPAUcube@@@Z  004c8a00 f   octa.obj
 0001:000c7a40       ?newcubes@@YAPAUcube@@IH@Z 004c8a40 f   octa.obj
 0001:000c8880       ?run@?$_icmd_editstatpvs@$0LHP@@@SAXXZ 004c9880 f   octaedit.obj
 0001:000c88e0       ?run@?$_icmd_editstatoq@$0LHO@@@SAXXZ 004c98e0 f   octaedit.obj
 0001:000c8950       ?run@?$_icmd_editstatgeombatch@$0LHN@@@SAXXZ 004c9950 f   octaedit.obj
 0001:000c89b0       ?run@?$_icmd_editstatglde@$0LHM@@@SAXXZ 004c99b0 f   octaedit.obj
 0001:000c8a10       ?run@?$_icmd_editstatva@$0LHL@@@SAXXZ 004c9a10 f   octaedit.obj
 0001:000c8a70       ?run@?$_icmd_editstatocta@$0LHK@@@SAXXZ 004c9a70 f   octaedit.obj
 0001:000c8ae0       ?run@?$_icmd_editstateva@$0LHJ@@@SAXXZ 004c9ae0 f   octaedit.obj
 0001:000c8b50       ?run@?$_icmd_editstatevt@$0LHI@@@SAXXZ 004c9b50 f   octaedit.obj
 0001:000c8bc0       ?run@?$_icmd_editstatvvt@$0LHH@@@SAXXZ 004c9bc0 f   octaedit.obj
 0001:000c8c30       ?run@?$_icmd_editstatwvt@$0LHG@@@SAXXZ 004c9c30 f   octaedit.obj
 0001:000c8ca0       ?run@?$_icmd_editstatvtr@$0LHF@@@SAXXZ 004c9ca0 f   octaedit.obj
 0001:000c8d10       ?run@?$_icmd_editstatwtr@$0LHE@@@SAXXZ 004c9d10 f   octaedit.obj
 0001:000c8d80       ?rendertexturepanel@@YAXHH@Z 004c9d80 f   octaedit.obj
 0001:000c9df0       ?editmat@@YAXPAD0@Z        004cadf0 f   octaedit.obj
 0001:000c9fa0       ?mpeditmat@@YAXHHAAUselinfo@@_N@Z 004cafa0 f   octaedit.obj
 0001:000ca1f0       ?setmat@@YAXAAUcube@@GGGGH@Z 004cb1f0 f   octaedit.obj
 0001:000ca2d0       ?rotate@@YAXPAH@Z          004cb2d0 f   octaedit.obj
 0001:000ca3d0       ?mprotate@@YAXHAAUselinfo@@_N@Z 004cb3d0 f   octaedit.obj
 0001:000ca820       ?flip@@YAXXZ               004cb820 f   octaedit.obj
 0001:000ca910       ?mpflip@@YAXAAUselinfo@@_N@Z 004cb910 f   octaedit.obj
 0001:000cab90       ?rotatecube@@YAXAAUcube@@H@Z 004cbb90 f   octaedit.obj
 0001:000cae20       ?flipcube@@YAXAAUcube@@H@Z 004cbe20 f   octaedit.obj
 0001:000cb180       ?run@?$_icmd_replacesel@$0KDL@@@SAXXZ 004cc180 f   octaedit.obj
 0001:000cb190       ?run@?$_icmd_replace@$0KDK@@@SAXXZ 004cc190 f   octaedit.obj
 0001:000cb1a0       ?replace@@YAX_N@Z          004cc1a0 f   octaedit.obj
 0001:000cb2c0       ?mpreplacetex@@YA_NHH_NAAUselinfo@@AAU?$databuf@E@@@Z 004cc2c0 f   octaedit.obj
 0001:000cb380       ?mpreplacetex@@YAXHH_NAAUselinfo@@0@Z 004cc380 f   octaedit.obj
 0001:000cb5b0       ?replacetexcube@@YAXAAUcube@@HH@Z 004cc5b0 f   octaedit.obj
 0001:000cb600       ?run@?$_icmd_texloaded@$0KBE@@@SAXPAH@Z 004cc600 f   octaedit.obj
 0001:000cb650       ?run@?$_icmd_numslots@$0KBC@@@SAXXZ 004cc650 f   octaedit.obj
 0001:000cb670       ?run@?$_icmd_numvslots@$0KBB@@@SAXXZ 004cc670 f   octaedit.obj
 0001:000cb690       ?run@?$_icmd_looptexmru@$0KBA@@@SAXPAUident@@PAI@Z 004cc690 f   octaedit.obj
 0001:000cb710       ?run@?$_icmd_texmru@$0KAJ@@@SAXPAH@Z 004cc710 f   octaedit.obj
 0001:000cb750       ?run@?$_icmd_getreptex@$0KAH@@@SAXXZ 004cc750 f   octaedit.obj
 0001:000cb870       ?run@?$_icmd_settex@$0KAD@@@SAXPAH@Z 004cc870 f   octaedit.obj
 0001:000cb980       ?getslottex@@YAXPAH@Z      004cc980 f   octaedit.obj
 0001:000cb9d0       ?gettexname@@YAXPAH0@Z     004cc9d0 f   octaedit.obj
 0001:000cba40       ?getseltex@@YAXXZ          004cca40 f   octaedit.obj
 0001:000cbaa0       ?getcurtex@@YAXXZ          004ccaa0 f   octaedit.obj
 0001:000cbaf0       ?gettex@@YAXXZ             004ccaf0 f   octaedit.obj
 0001:000cbc70       ?edittex_@@YAXPAH@Z        004ccc70 f   octaedit.obj
 0001:000cbdd0       ?edittex@@YAXH_N@Z         004ccdd0 f   octaedit.obj
 0001:000cc110       ?compactmruvslots@@YAXXZ   004cd110 f   octaedit.obj
 0001:000cc3a0       ?mpedittex@@YA_NHHAAUselinfo@@AAU?$databuf@E@@@Z 004cd3a0 f   octaedit.obj
 0001:000cc3f0       ?shouldpacktex@@YAHH@Z     004cd3f0 f   octaedit.obj
 0001:000cc560       ?mpedittex@@YAXHHAAUselinfo@@_N@Z 004cd560 f   octaedit.obj
 0001:000cc760       ?run@?$_icmd_getvshaderparamnames@$0JGI@@@SAXPAH@Z 004cd760 f   octaedit.obj
 0001:000cca70       ?run@?$_icmd_getvshaderparam@$0JFL@@@SAXPAHPBD@Z 004cda70 f   octaedit.obj
 0001:000ccc60       ?vshaderparam@@YAXPBDPAM111@Z 004cdc60 f   octaedit.obj
 0001:000ccf70       ?vreset@@YAXXZ             004cdf70 f   octaedit.obj
 0001:000cd110       ?run@?$_icmd_getvrefract@$0JDH@@@SAXPAH@Z 004ce110 f   octaedit.obj
 0001:000cd2b0       ?vrefract@@YAXPAM000@Z     004ce2b0 f   octaedit.obj
 0001:000cd4e0       ?run@?$_icmd_getvcolor@$0JCC@@@SAXPAH@Z 004ce4e0 f   octaedit.obj
 0001:000cd640       ?vcolor@@YAXPAM00@Z        004ce640 f   octaedit.obj
 0001:000cd830       ?run@?$_icmd_getvalpha@$0JBC@@@SAXPAH@Z 004ce830 f   octaedit.obj
 0001:000cd950       ?valpha@@YAXPAM0@Z         004ce950 f   octaedit.obj
 0001:000cdb30       ?run@?$_icmd_getvdetail@$0JAB@@@SAXPAH@Z 004ceb30 f   octaedit.obj
 0001:000cdb80       ?vdetail@@YAXPAH@Z         004ceb80 f   octaedit.obj
 0001:000cdda0       ?run@?$_icmd_getvlayer@$0IPB@@@SAXPAH@Z 004ceda0 f   octaedit.obj
 0001:000cddf0       ?vlayer@@YAXPAH@Z          004cedf0 f   octaedit.obj
 0001:000ce010       ?run@?$_icmd_getvscale@$0IOB@@@SAXPAH@Z 004cf010 f   octaedit.obj
 0001:000ce070       ?vscale@@YAXPAM@Z          004cf070 f   octaedit.obj
 0001:000ce250       ?run@?$_icmd_getvscroll@$0ING@@@SAXPAH@Z 004cf250 f   octaedit.obj
 0001:000ce370       ?vscroll@@YAXPAM0@Z        004cf370 f   octaedit.obj
 0001:000ce540       ?run@?$_icmd_getvoffset@$0IMG@@@SAXPAH@Z 004cf540 f   octaedit.obj
 0001:000ce5f0       ?voffset@@YAXPAH0@Z        004cf5f0 f   octaedit.obj
 0001:000ce7c0       ?run@?$_icmd_getvrotate@$0ILG@@@SAXPAH@Z 004cf7c0 f   octaedit.obj
 0001:000ce810       ?vrotate@@YAXPAH@Z         004cf810 f   octaedit.obj
 0001:000ce9e0       ?vdelta@@YAXPAI@Z          004cf9e0 f   octaedit.obj
 0001:000ceae0       ?mpeditvslot@@YA_NHHAAUselinfo@@AAU?$databuf@E@@@Z 004cfae0 f   octaedit.obj
 0001:000cebe0       ?mpeditvslot@@YAXHAAUVSlot@@HAAUselinfo@@_N@Z 004cfbe0 f   octaedit.obj
 0001:000cef30       ?edittexcube@@YAXAAUcube@@HHAA_N@Z 004cff30 f   octaedit.obj
 0001:000cf520       ?tofronttex@@YAXXZ         004d0520 f   octaedit.obj
 0001:000cf590       ?delcube@@YAXXZ            004d0590 f   octaedit.obj
 0001:000cf5c0       ?mpdelcube@@YAXAAUselinfo@@_N@Z 004d05c0 f   octaedit.obj
 0001:000cf760       ?pushsel@@YAXPAH@Z         004d0760 f   octaedit.obj
 0001:000cf800       ?editface@@YAXPAH0@Z       004d0800 f   octaedit.obj
 0001:000cf880       ?mpeditface@@YAXHHAAUselinfo@@_N@Z 004d0880 f   octaedit.obj
 0001:000cfe40       ?linkedpush@@YAXAAUcube@@HHHHH@Z 004d0e40 f   octaedit.obj
 0001:000cff80       ?pushedge@@YAXAAEHH@Z      004d0f80 f   octaedit.obj
 0001:000d0020       ?bounded@@YAHH@Z           004d1020 f   octaedit.obj
 0001:000d0040       ?edithmap@@YAXHH@Z         004d1040 f   octaedit.obj
 0001:000d0080       ?run@hmap@@YAXHH@Z         004d1080 f   octaedit.obj
 0001:000d07b0       ?rippleandset@hmap@@YAXXZ  004d17b0 f   octaedit.obj
 0001:000d0810       ?smooth@hmap@@YAXXZ        004d1810 f   octaedit.obj
 0001:000d0900       ?paint@hmap@@YAXXZ         004d1900 f   octaedit.obj
 0001:000d0a50       ?ripple@hmap@@YAXHHH_N@Z   004d1a50 f   octaedit.obj
 0001:000d10e0       ?select@hmap@@YAXHHH@Z     004d20e0 f   octaedit.obj
 0001:000d15a0       ?addpoint@hmap@@YAXHHHH@Z  004d25a0 f   octaedit.obj
 0001:000d15d0       ?pushside@hmap@@YAXAAUcube@@HHHH@Z 004d25d0 f   octaedit.obj
 0001:000d16f0       ?getface@hmap@@YAIPAUcube@@H@Z 004d26f0 f   octaedit.obj
 0001:000d1720       ?getcube@hmap@@YAPAUcube@@Uivec@@H@Z 004d2720 f   octaedit.obj
 0001:000d1850       ?hbrushvert@hmap@@YAXPAH00@Z 004d2850 f   octaedit.obj
 0001:000d1960       ?clearhbrush@hmap@@YAXXZ   004d2960 f   octaedit.obj
 0001:000d19b0       ?run@?$_icmd_hmapselect@$0GDD@@hmap@@SAXXZ 004d29b0 f   octaedit.obj
 0001:000d1a60       ?run@?$_icmd_hmapcancel@$0GCL@@hmap@@SAXXZ 004d2a60 f   octaedit.obj
 0001:000d1a70       ?cancel@hmap@@YAXXZ        004d2a70 f   octaedit.obj
 0001:000d1a80       ?compacteditvslots@@YAXXZ  004d2a80 f   octaedit.obj
 0001:000d1bc0       ?paste@@YAXXZ              004d2bc0 f   octaedit.obj
 0001:000d1c20       ?pastehilite@@YAXXZ        004d2c20 f   octaedit.obj
 0001:000d1c50       ?copy@@YAXXZ               004d2c50 f   octaedit.obj
 0001:000d1c80       ?mppaste@@YAXAAPAUeditinfo@@AAUselinfo@@_N@Z 004d2c80 f   octaedit.obj
 0001:000d1cd0       ?mpcopy@@YAXAAPAUeditinfo@@AAUselinfo@@_N@Z 004d2cd0 f   octaedit.obj
 0001:000d1ea0       ?previewprefab@@YAXPBDABUvec@@@Z 004d2ea0 f   octaedit.obj
 0001:000d2660       ?genprefabmesh@@YAXAAUprefab@@@Z 004d3660 f   octaedit.obj
 0001:000d31f0       ?pasteprefab@@YAXPAD@Z     004d41f0 f   octaedit.obj
 0001:000d3340       ?loadprefab@@YAPAUprefab@@PBD_N@Z 004d4340 f   octaedit.obj
 0001:000d3620       ?pasteblock@@YAXAAUblock3@@AAUselinfo@@_N@Z 004d4620 f   octaedit.obj
 0001:000d37e0       ?saveprefab@@YAXPAD@Z      004d47e0 f   octaedit.obj
 0001:000d3af0       ?delprefab@@YAXPAD@Z       004d4af0 f   octaedit.obj
 0001:000d3c30       ?cleanupprefabs@@YAXXZ     004d4c30 f   octaedit.obj
 0001:000d3cb0       ?packundo@@YA_NHAAHAAPAE0@Z 004d4cb0 f   octaedit.obj
 0001:000d3d00       ?unpackundo@@YA_NPBEHH@Z   004d4d00 f   octaedit.obj
 0001:000d3ea0       ?packundo@@YA_NPAUundoblock@@AAHAAPAE1@Z 004d4ea0 f   octaedit.obj
 0001:000d42d0       ?freeeditinfo@@YAXAAPAUeditinfo@@@Z 004d52d0 f   octaedit.obj
 0001:000d4350       ?unpackeditinfo@@YA_NAAPAUeditinfo@@PBEHH@Z 004d5350 f   octaedit.obj
 0001:000d4470       ?packeditinfo@@YA_NPAUeditinfo@@AAHAAPAE1@Z 004d5470 f   octaedit.obj
 0001:000d4b50       ?editredo@@YAXXZ           004d5b50 f   octaedit.obj
 0001:000d4b70       ?editundo@@YAXXZ           004d5b70 f   octaedit.obj
 0001:000d4b90       ?swapundo@@YAXAAUundolist@@0H@Z 004d5b90 f   octaedit.obj
 0001:000d5200       ?makeundo@@YAXXZ           004d6200 f   octaedit.obj
 0001:000d52d0       ?makeundo@@YAXAAUselinfo@@@Z 004d62d0 f   octaedit.obj
 0001:000d52f0       ?addundo@@YAXPAUundoblock@@@Z 004d62f0 f   octaedit.obj
 0001:000d53d0       ?newundocube@@YAPAUundoblock@@ABUselinfo@@@Z 004d63d0 f   octaedit.obj
 0001:000d55a0       ?clearundos@@YAXXZ         004d65a0 f   octaedit.obj
 0001:000d55b0       ?pruneundos@@YAXH@Z        004d65b0 f   octaedit.obj
 0001:000d5750       ?pasteundo@@YAXPAUundoblock@@@Z 004d6750 f   octaedit.obj
 0001:000d5780       ?pasteundoblock@@YAXPAUblock3@@PAE@Z 004d6780 f   octaedit.obj
 0001:000d58a0       ?freeundo@@YAXPAUundoblock@@@Z 004d68a0 f   octaedit.obj
 0001:000d58f0       ?selgridmap@@YAXABUselinfo@@PAE@Z 004d68f0 f   octaedit.obj
 0001:000d5a10       ?freeblock@@YAXPAUblock3@@_N@Z 004d6a10 f   octaedit.obj
 0001:000d5a70       ?blockcopy@@YAPAUblock3@@ABU1@H@Z 004d6a70 f   octaedit.obj
 0001:000d5ac0       ?blockcopy@@YAXABUblock3@@HPAU1@@Z 004d6ac0 f   octaedit.obj
 0001:000d5c80       ?changed@@YAXABUblock3@@_N@Z 004d6c80 f   octaedit.obj
 0001:000d5d60       ?changed@@YAXABUivec@@0_N@Z 004d6d60 f   octaedit.obj
 0001:000d5db0       ?readychanges@@YAXABUivec@@0PAUcube@@0H@Z 004d6db0 f   octaedit.obj
 0001:000d5f30       ?tryedit@@YAXXZ            004d6f30 f   octaedit.obj
 0001:000d5fb0       ?rendereditcursor@@YAXXZ   004d6fb0 f   octaedit.obj
 0001:000d7310       ?var_passthrough@@YAXPAUident@@@Z 004d8310 f   octaedit.obj
 0001:000d7330       ?editmoveplane@@YA_NABUvec@@0HMAAU1@1_N@Z 004d8330 f   octaedit.obj
 0001:000d7490       ?updateselection@@YAXXZ    004d8490 f   octaedit.obj
 0001:000d7520       ?normalizelookupcube@@YAXABUivec@@@Z 004d8520 f   octaedit.obj
 0001:000d75b0       ?countselchild@@YAXPAUcube@@ABUivec@@H@Z 004d85b0 f   octaedit.obj
 0001:000d76e0       ?run@?$_icmd_selchildmat@$0BBN@@@SAXPAD@Z 004d86e0 f   octaedit.obj
 0001:000d7850       ?run@?$_icmd_selchildcount@$0BBM@@@SAXXZ 004d8850 f   octaedit.obj
 0001:000d7880       ?run@?$_icmd_havesel@$0BBL@@@SAXXZ 004d8880 f   octaedit.obj
 0001:000d78a0       ?blockcube@@YAAAUcube@@HHHABUblock3@@H@Z 004d88a0 f   octaedit.obj
 0001:000d7940       ?movesel@@YAXPAH0@Z        004d8940 f   octaedit.obj
 0001:000d7980       ?setselpos@@YAXPAH00@Z     004d8980 f   octaedit.obj
 0001:000d79e0       ?run@?$_icmd_getselpos@$0PF@@@SAXXZ 004d89e0 f   octaedit.obj
 0001:000d7b30       ?run@?$_icmd_selswap@$0OO@@@SAXXZ 004d8b30 f   octaedit.obj
 0001:000d7bc0       ?run@?$_icmd_selrestore@$0ON@@@SAXXZ 004d8bc0 f   octaedit.obj
 0001:000d7c10       ?run@?$_icmd_selsave@$0OM@@@SAXXZ 004d8c10 f   octaedit.obj
 0001:000d7c60       ?run@?$_icmd_selmoved@$0OL@@@SAXXZ 004d8c60 f   octaedit.obj
 0001:000d7cd0       ?run@?$_icmd_edittoggle@$0OE@@@SAXXZ 004d8cd0 f   octaedit.obj
 0001:000d7ce0       ?selextend@@YAXXZ          004d8ce0 f   octaedit.obj
 0001:000d7dc0       ?reorient@@YAXXZ           004d8dc0 f   octaedit.obj
 0001:000d7e10       ?toggleedit@@YAX_N@Z       004d8e10 f   octaedit.obj
 0001:000d8010       ?cancelsel@@YAXXZ          004d9010 f   octaedit.obj
 0001:000d8060       ?cubecancel@@YAXXZ         004d9060 f   octaedit.obj
 0001:000d80b0       ?forcenextundo@@YAXXZ      004d90b0 f   octaedit.obj
 0001:000d80c0       ?var_hmapedit@@YAXPAUident@@@Z 004d90c0 f   octaedit.obj
 0001:000d80d0       ?var_gridpower@@YAXPAUident@@@Z 004d90d0 f   octaedit.obj
 0001:000d8110       ?run@?$_icmd_moving@$0HN@@@SAXPAH@Z 004d9110 f   octaedit.obj
 0001:000d81e0       ?var_dragging@@YAXPAUident@@@Z 004d91e0 f   octaedit.obj
 0001:000d8240       ?boxsgrid@@YAXHUvec@@0H@Z  004d9240 f   octaedit.obj
 0001:000d84d0       ?boxs3D@@YAXABUvec@@U1@H@Z 004d94d0 f   octaedit.obj
 0001:000d8540       ?boxs@@YAXHUvec@@ABU1@@Z   004d9540 f   octaedit.obj
 0001:000d8740       ?boxs@@YAXHUvec@@ABU1@M@Z  004d9740 f   octaedit.obj
 0001:000d8d90       ?commitchanges@@YAX_N@Z    004d9d90 f   octaedit.obj
 0001:000d8e70       ?noedit@@YA_N_N0@Z         004d9e70 f   octaedit.obj
 0001:000d99e0       ?recalc@@YAXXZ             004da9e0 f   octarender.obj
 0001:000d99f0       ?precachetextures@@YAXXZ   004da9f0 f   octarender.obj
 0001:000d9e10       ?findtjoints@@YAXHABUedgegroup@@@Z 004dae10 f   octarender.obj
 0001:000d9f90       ?addtjoint@@YAXABUedgegroup@@ABUcubeedge@@H@Z 004daf90 f   octarender.obj
 0001:000da130       ?updateva@@YAHPAUcube@@ABUivec@@HH@Z 004db130 f   octarender.obj
 0001:000da770       ?var_vacubesize@@YAXPAUident@@@Z 004db770 f   octarender.obj
 0001:000da780       ?var_vafacemin@@YAXPAUident@@@Z 004db780 f   octarender.obj
 0001:000da790       ?var_vafacemax@@YAXPAUident@@@Z 004db790 f   octarender.obj
 0001:000da8c0       ?setva@@YAXAAUcube@@ABUivec@@HH@Z 004db8c0 f   octarender.obj
 0001:000dac40       ?calcgeombb@@YAXABUivec@@HAAU1@1@Z 004dbc40 f   octarender.obj
 0001:000dae10       ?rendercube@@YAXAAUcube@@ABUivec@@HHAAH@Z 004dbe10 f   octarender.obj
 0001:000db290       ?addmergedverts@@YAXHABUivec@@@Z 004dc290 f   octarender.obj
 0001:000db4b0       ?findmergedfaces@@YAHAAUcube@@ABUivec@@HHH@Z 004dc4b0 f   octarender.obj
 0001:000db5c0       ?genmergedfaces@@YAHAAUcube@@ABUivec@@HH@Z 004dc5c0 f   octarender.obj
 0001:000dba50       ?updatevabb@@YAXPAUvtxarray@@_N@Z 004dca50 f   octarender.obj
 0001:000dbff0       ?clearvas@@YAXPAUcube@@@Z  004dcff0 f   octarender.obj
 0001:000dc1b0       ?newva@@YAPAUvtxarray@@ABUivec@@H@Z 004dd1b0 f   octarender.obj
 0001:000dc660       ?gencubeverts@@YAXAAUcube@@ABUivec@@HH@Z 004dd660 f   octarender.obj
 0001:000dce50       ?gencubeedges@@YAXPAUcube@@ABUivec@@H@Z 004dde50 f   octarender.obj
 0001:000dcf40       ?gencubeedges@@YAXAAUcube@@ABUivec@@H@Z 004ddf40 f   octarender.obj
 0001:000dd7c0       ?addcubeverts@@YAXAAUVSlot@@HHPAUvec@@HGPAUvertinfo@@HHGH_NH@Z 004de7c0 f   octarender.obj
 0001:000de1c0       ?decodenormal@@YA?AUvec@@G@Z 004df1c0 f   octarender.obj
 0001:000de460       ?addgrasstri@@YAXHPAUvertex@@HGH@Z 004df460 f   octarender.obj
 0001:000de6f0       ?addtris@@YAXAAUVSlot@@HABUsortkey@@PAUvertex@@PAHHHH@Z 004df6f0 f   octarender.obj
 0001:000df390       ?var_filltjoints@@YAXPAUident@@@Z 004e0390 f   octarender.obj
 0001:000df420       ?addvbo@@YAPAEPAUvtxarray@@HHH@Z 004e0420 f   octarender.obj
 0001:000df4d0       ?flushvbo@@YAXH@Z          004e04d0 f   octarender.obj
 0001:000df6d0       ?genvbo@@YAXHPAXHPAPAUvtxarray@@H@Z 004e06d0 f   octarender.obj
 0001:000df850       ?destroyvbo@@YAXI@Z        004e0850 f   octarender.obj
 0001:000df900       ?var_vbosize@@YAXPAUident@@@Z 004e0900 f   octarender.obj
 0001:000df910       ?octarender@@YAXXZ         004e0910 f   octarender.obj
 0001:000df9e0       ?updatevabbs@@YAX_N@Z      004e09e0 f   octarender.obj
 0001:000dfae0       ?guessnormals@@YAXPBUvec@@HPAU1@@Z 004e0ae0 f   octarender.obj
 0001:000dff50       ?reduceslope@@YAXAAUivec@@@Z 004e0f50 f   octarender.obj
 0001:000e0040       ?findtjoints@@YAXXZ        004e1040 f   octarender.obj
 0001:000e0140       ?encodenormal@@YAGABUvec@@@Z 004e1140 f   octarender.obj
 0001:000e0210       ?destroyva@@YAXPAUvtxarray@@_N@Z 004e1210 f   octarender.obj
 0001:000e04a0       ?allchanged@@YAX_N@Z       004e14a0 f   octarender.obj
 0001:000e4880       ?run@?$_icmd_crouch@$0HKM@@@SAXPAH@Z 004e5880 f   physics.obj
 0001:000e48d0       ?run@?$_icmd_jump@$0HKL@@@SAXPAH@Z 004e58d0 f   physics.obj
 0001:000e4920       ?run@?$_icmd_right@$0HKJ@@@SAXPAH@Z 004e5920 f   physics.obj
 0001:000e4950       ?run@?$_icmd_left@$0HKI@@@SAXPAH@Z 004e5950 f   physics.obj
 0001:000e4980       ?run@?$_icmd_forward@$0HKH@@@SAXPAH@Z 004e5980 f   physics.obj
 0001:000e49b0       ?run@?$_icmd_backward@$0HKG@@@SAXPAH@Z 004e59b0 f   physics.obj
 0001:000e49e0       ?updatephysstate@@YAXPAUphysent@@@Z 004e59e0 f   physics.obj
 0001:000e4b70       ?moveplayer@@YAXPAUphysent@@H_N@Z 004e5b70 f   physics.obj
 0001:000e4c60       ?interppos@@YAXPAUphysent@@@Z 004e5c60 f   physics.obj
 0001:000e4d00       ?physicsframe@@YAXXZ       004e5d00 f   physics.obj
 0001:000e4d80       ?moveplayer@@YA_NPAUphysent@@H_NH@Z 004e5d80 f   physics.obj
 0001:000e5210       ?modifygravity@@YAXPAUphysent@@_NH@Z 004e6210 f   physics.obj
 0001:000e53e0       ?modifyvelocity@@YAXPAUphysent@@_N11H@Z 004e63e0 f   physics.obj
 0001:000e57b0       ?vectoyawpitch@@YAXABUvec@@AAM1@Z 004e67b0 f   physics.obj
 0001:000e5870       ?vecfromyawpitch@@YAXMMHHAAUvec@@@Z 004e6870 f   physics.obj
 0001:000e59a0       ?phystest@@YAXXZ           004e69a0 f   physics.obj
 0001:000e5af0       ?dropheight@@YAMAAUentity@@@Z 004e6af0 f   physics.obj
 0001:000e5b20       ?droptofloor@@YA_NAAUvec@@MM@Z 004e6b20 f   physics.obj
 0001:000e5d60       ?movecamera@@YA_NPAUphysent@@ABUvec@@MM@Z 004e6d60 f   physics.obj
 0001:000e5ea0       ?bounce@@YA_NPAUphysent@@MMMM@Z 004e6ea0 f   physics.obj
 0001:000e6330       ?crouchplayer@@YAXPAUphysent@@H_N@Z 004e7330 f   physics.obj
 0001:000e64a0       ?move@@YA_NPAUphysent@@AAUvec@@@Z 004e74a0 f   physics.obj
 0001:000e6a50       ?findfloor@@YA_NPAUphysent@@ABUvec@@_N1AA_NAAU2@@Z 004e7a50 f   physics.obj
 0001:000e6f10       ?landing@@YAXPAUphysent@@AAUvec@@ABU2@_N@Z 004e7f10 f   physics.obj
 0001:000e6f60       ?falling@@YAXPAUphysent@@AAUvec@@ABU2@@Z 004e7f60 f   physics.obj
 0001:000e7040       ?trystepdown@@YA_NPAUphysent@@AAUvec@@_N@Z 004e8040 f   physics.obj
 0001:000e7140       ?trystepdown@@YA_NPAUphysent@@AAUvec@@MMM_N@Z 004e8140 f   physics.obj
 0001:000e7530       ?trystepup@@YA_NPAUphysent@@AAUvec@@ABU2@M2@Z 004e8530 f   physics.obj
 0001:000e7bc0       ?switchfloor@@YAXPAUphysent@@AAUvec@@ABU2@@Z 004e8bc0 f   physics.obj
 0001:000e7fa0       ?slideagainst@@YAXPAUphysent@@AAUvec@@ABU2@_N3@Z 004e8fa0 f   physics.obj
 0001:000e8220       ?recalcdir@@YAXPAUphysent@@ABUvec@@AAU2@@Z 004e9220 f   physics.obj
 0001:000e82f0       ?collide@@YA_NPAUphysent@@ABUvec@@M_N2@Z 004e92f0 f   physics.obj
 0001:000e88d0       ?mmcollide@@YA_NPAUphysent@@ABUvec@@MAAUoctaentities@@@Z 004e98d0 f   physics.obj
 0001:000e9060       ?rotatebb@@YAXAAUvec@@0HHH@Z 004ea060 f   physics.obj
 0001:000e9230       ?plcollide@@YA_NPAUphysent@@ABUvec@@_N@Z 004ea230 f   physics.obj
 0001:000e94b0       ?updatedynentcache@@YAXPAUphysent@@@Z 004ea4b0 f   physics.obj
 0001:000e96b0       ?checkdynentcache@@YAABU?$vector@PAUphysent@@@@HH@Z 004ea6b0 f   physics.obj
 0001:000e97f0       ?var_dynentsize@@YAXPAUident@@@Z 004ea7f0 f   physics.obj
 0001:000e9800       ?cleardynentcache@@YAXXZ   004ea800 f   physics.obj
 0001:000e9850       ?ellipsecollide@@YA_NPAUphysent@@ABUvec@@11MMMMM@Z 004ea850 f   physics.obj
 0001:000e9bd0       ?ellipseboxcollide@@YA_NPAUphysent@@ABUvec@@11MMMMM@Z 004eabd0 f   physics.obj
 0001:000e9ff0       ?rayfloor@@YAMABUvec@@AAU1@HM@Z 004eaff0 f   physics.obj
 0001:000ea090       ?raycubelos@@YA_NABUvec@@0AAU1@@Z 004eb090 f   physics.obj
 0001:000ea1d0       ?raycubepos@@YAMABUvec@@0AAU1@MHH@Z 004eb1d0 f   physics.obj
 0001:000ea260       ?raycube@@YAMABUvec@@0MHHPAUextentity@@@Z 004eb260 f   physics.obj
 0001:000eb490       ?entinmap@@YA_NPAUdynent@@_N@Z 004ec490 f   physics.obj
 0001:000eb6e0       ?rayent@@YAMABUvec@@0MHHAAH1@Z 004ec6e0 f   physics.obj
 0001:000eb870       ?resetclipplanes@@YAXXZ    004ec870 f   physics.obj
 0001:000eb8a0       ?dropenttofloor@@YAXPAUentity@@@Z 004ec8a0 f   physics.obj
 0001:000eb9f0       ?loadpvs@@YAXPAUstream@@H@Z 004ec9f0 f   pvs.obj
 0001:000ebc00       ?loadviewcells@@YAPAUviewcellnode@@PAUstream@@@Z 004ecc00 f   pvs.obj
 0001:000ebcf0       ?savepvs@@YAXPAUstream@@@Z 004eccf0 f   pvs.obj
 0001:000ebdd0       ?saveviewcells@@YAXPAUstream@@AAUviewcellnode@@@Z 004ecdd0 f   pvs.obj
 0001:000ebe30       ?pvsoccludedsphere@@YA_NABUvec@@M@Z 004ece30 f   pvs.obj
 0001:000ebef0       ?pvsoccluded@@YA_NABUivec@@0@Z 004ecef0 f   pvs.obj
 0001:000ec190       ?pvsstats@@YAXXZ           004ed190 f   pvs.obj
 0001:000ec1e0       ?genpvs@@YAXPAH@Z          004ed1e0 f   pvs.obj
 0001:000eca00       ?testpvs@@YAXPAH@Z         004eda00 f   pvs.obj
 0001:000ecfd0       ?clearpvs@@YAXXZ           004edfd0 f   pvs.obj
 0001:000ed030       ?setviewcell@@YAXABUvec@@@Z 004ee030 f   pvs.obj
 0001:000ed0e0       ?var_lockpvs@@YAXPAUident@@@Z 004ee0e0 f   pvs.obj
 0001:000ee070       ?getnumviewcells@@YAHXZ    004ef070 f   pvs.obj
 0001:000ee470       ?getworldsize@@YAHXZ       004ef470 f   world.obj
 0001:000ee480       ?mpeditent@@YAXHABUvec@@HHHHHH_N@Z 004ef480 f   world.obj
 0001:000ee5c0       ?mapname@@YAXXZ            004ef5c0 f   world.obj
 0001:000ee610       ?mapenlarge@@YAXXZ         004ef610 f   world.obj
 0001:000ee630       ?newmap@@YAXPAH@Z          004ef630 f   world.obj
 0001:000ee690       ?shrinkmap@@YAXXZ          004ef690 f   world.obj
 0001:000ee940       ?enlargemap@@YA_N_N@Z      004ef940 f   world.obj
 0001:000eeab0       ?startmap@@YAXPBD@Z        004efab0 f   world.obj
 0001:000eebc0       ?resetmap@@YAXXZ           004efbc0 f   world.obj
 0001:000eeef0       ?splitocta@@YAXPAUcube@@H@Z 004efef0 f   world.obj
 0001:000eefa0       ?findplayerspawn@@YAXPAUdynent@@HH@Z 004effa0 f   world.obj
 0001:000ef170       ?findentity@@YAHHHHH@Z     004f0170 f   world.obj
 0001:000ef1f0       ?entattr@@YAXPAH00@Z       004f01f0 f   world.obj
 0001:000ef880       ?enttype@@YAXPADPAH@Z      004f0880 f   world.obj
 0001:000efd50       ?run@?$_icmd_entindex@$0EOB@@@SAXXZ 004f0d50 f   world.obj
 0001:000efd70       ?run@?$_icmd_entget@$0EOA@@@SAXXZ 004f0d70 f   world.obj
 0001:000efee0       ?run@?$_icmd_insel@$0ENP@@@SAXXZ 004f0ee0 f   world.obj
 0001:000effb0       ?run@?$_icmd_entloop@$0ENO@@@SAXPAI@Z 004f0fb0 f   world.obj
 0001:000f0350       ?run@?$_icmd_entselect@$0ENN@@@SAXPAI@Z 004f1350 f   world.obj
 0001:000f0440       ?run@?$_icmd_enthavesel@$0ENM@@@SAXXZ 004f1440 f   world.obj
 0001:000f04a0       ?nearestent@@YAXXZ         004f14a0 f   world.obj
 0001:000f05c0       ?printent@@YAXAAUextentity@@PADH@Z 004f15c0 f   world.obj
 0001:000f06f0       ?entset@@YAXPADPAH1111@Z   004f16f0 f   world.obj
 0001:000f0ca0       ?entreplace@@YAXXZ         004f1ca0 f   world.obj
 0001:000f1210       ?entpaste@@YAXXZ           004f2210 f   world.obj
 0001:000f1680       ?entcopy@@YAXXZ            004f2680 f   world.obj
 0001:000f1860       ?newent@@YAXPADPAH1111@Z   004f2860 f   world.obj
 0001:000f18c0       ?newentity@@YAXHHHHHH_N@Z  004f28c0 f   world.obj
 0001:000f1a50       ?newentity@@YAPAUextentity@@_NABUvec@@HHHHHHAAH0@Z 004f2a50 f   world.obj
 0001:000f1e20       ?attachent@@YAXXZ          004f2e20 f   world.obj
 0001:000f2320       ?dropent@@YAXXZ            004f3320 f   world.obj
 0001:000f2840       ?dropentity@@YA_NAAUentity@@H@Z 004f3840 f   world.obj
 0001:000f2ad0       ?findtype@@YAHPAD@Z        004f3ad0 f   world.obj
 0001:000f2b50       ?delent@@YAXXZ             004f3b50 f   world.obj
 0001:000f3410       ?entautoview@@YAXPAH@Z     004f4410 f   world.obj
 0001:000f3550       ?entpush@@YAXPAH@Z         004f4550 f   world.obj
 0001:000f3c70       ?run@?$_icmd_entmoving@$0DKN@@@SAXPAH@Z 004f4c70 f   world.obj
 0001:000f3d30       ?run@?$_icmd_enttoggle@$0DJP@@@SAXXZ 004f4d30 f   world.obj
 0001:000f3da0       ?run@?$_icmd_entadd@$0DJJ@@@SAXXZ 004f4da0 f   world.obj
 0001:000f3e10       ?enttoggle@@YA_NH@Z        004f4e10 f   world.obj
 0001:000f4570       ?renderentradius@@YAXAAUextentity@@_N@Z 004f5570 f   world.obj
 0001:000f4b20       ?renderentbox@@YAXABUextentity@@ABUvec@@1HHH@Z 004f5b20 f   world.obj
 0001:000f57e0       ?renderentcone@@YAXABUextentity@@ABUvec@@MM@Z 004f67e0 f   world.obj
 0001:000f5d20       ?renderentarrow@@YAXABUextentity@@ABUvec@@M@Z 004f6d20 f   world.obj
 0001:000f6160       ?renderentattachment@@YAXABUextentity@@@Z 004f7160 f   world.obj
 0001:000f6230       ?renderentsphere@@YAXABUextentity@@M@Z 004f7230 f   world.obj
 0001:000f6360       ?renderentring@@YAXABUextentity@@MH@Z 004f7360 f   world.obj
 0001:000f6480       ?entrotate@@YAXPAH@Z       004f7480 f   world.obj
 0001:000f6930       ?entflip@@YAXXZ            004f7930 f   world.obj
 0001:000f6c90       ?getselpos@@YA?AUvec@@XZ   004f7c90 f   world.obj
 0001:000f6d10       ?attachentities@@YAXXZ     004f7d10 f   world.obj
 0001:000f6e40       ?attachentity@@YAXAAUextentity@@@Z 004f7e40 f   world.obj
 0001:000f6f20       ?detachentity@@YAXAAUextentity@@@Z 004f7f20 f   world.obj
 0001:000f6f40       ?makeundoent@@YAXXZ        004f7f40 f   world.obj
 0001:000f6f70       ?newundoent@@YAPAUundoblock@@XZ 004f7f70 f   world.obj
 0001:000f7010       ?entadd@@YAXH@Z            004f8010 f   world.obj
 0001:000f7060       ?noentedit@@YA_NXZ         004f8060 f   world.obj
 0001:000f7090       ?var_entediting@@YAXPAUident@@@Z 004f8090 f   world.obj
 0001:000f70c0       ?entname@@YAPADAAUentity@@@Z 004f80c0 f   world.obj
 0001:000f7540       ?modifyoctaentity@@YAXHHAAUextentity@@PAUcube@@ABUivec@@H22HPAUvtxarray@@@Z 004f8540 f   world.obj
 0001:000f7d40       ?getentboundingbox@@YA_NABUextentity@@AAUivec@@1@Z 004f8d40 f   world.obj
 0001:000f82a0       ?entselectionbox@@YAXABUentity@@AAUvec@@1@Z 004f92a0 f   world.obj
 0001:000f85b0       ?pointinsel@@YA_NABUselinfo@@ABUvec@@@Z 004f95b0 f   world.obj
 0001:000f8640       ?entcancel@@YAXXZ          004f9640 f   world.obj
 0001:000f8650       ?haveselent@@YA_NXZ        004f9650 f   world.obj
 0001:000f8660       ?entdrag@@YAXABUvec@@@Z    004f9660 f   world.obj
 0001:000f8aa0       ?hoveringonent@@YA_NHH@Z   004f9aa0 f   world.obj
 0001:000f8b20       ?renderentselection@@YAXABUvec@@0_N@Z 004f9b20 f   world.obj
 0001:000f90c0       ?pasteundoents@@YAXPAUundoblock@@@Z 004fa0c0 f   world.obj
 0001:000f93b0       ?copyundoents@@YAPAUundoblock@@PAU1@@Z 004fa3b0 f   world.obj
 0001:000f94b0       ?pasteundoent@@YAXHABUentity@@@Z 004fa4b0 f   world.obj
 0001:000f96b0       ?freeoctaentities@@YAXAAUcube@@@Z 004fa6b0 f   world.obj
 0001:000f9860       ?emptymap@@YA_NH_NPBD0@Z   004fa860 f   world.obj
 0001:000f9a10       ?entitiesinoctanodes@@YAXXZ 004faa10 f   world.obj
 0001:000fa300       ?writecollideobj@@YAXPAD@Z 004fb300 f   worldio.obj
 0001:000fb070       ?writeobj@@YAXPAD@Z        004fc070 f   worldio.obj
 0001:000fbef0       ?savemap@@YAXPAD@Z         004fcef0 f   worldio.obj
 0001:000fbf00       ?savecurrentmap@@YAXXZ     004fcf00 f   worldio.obj
 0001:000fbf10       ?load_world@@YA_NPBD0@Z    004fcf10 f   worldio.obj
 0001:000fcea0       ?getmapcrc@@YAIXZ          004fdea0 f   worldio.obj
 0001:000fceb0       ?loadvslots@@YAXPAUstream@@H@Z 004fdeb0 f   worldio.obj
 0001:000fd280       ?loadvslot@@YAXPAUstream@@AAUVSlot@@H@Z 004fe280 f   worldio.obj
 0001:000fd5c0       ?savevslots@@YAXPAUstream@@H@Z 004fe5c0 f   worldio.obj
 0001:000fd6d0       ?savevslot@@YAXPAUstream@@AAUVSlot@@H@Z 004fe6d0 f   worldio.obj
 0001:000fd980       ?loadchildren@@YAPAUcube@@PAUstream@@ABUivec@@HAA_N@Z 004fe980 f   worldio.obj
 0001:000fda10       ?loadc@@YAXPAUstream@@AAUcube@@ABUivec@@HAA_N@Z 004fea10 f   worldio.obj
 0001:000fe540       ?savec@@YAXPAUcube@@ABUivec@@HPAUstream@@_N@Z 004ff540 f   worldio.obj
 0001:000fed30       ?backup@@YAXPBD0@Z         004ffd30 f   worldio.obj
 0001:000fedb0       ?mapcfgname@@YAXXZ         004ffdb0 f   worldio.obj
 0001:000fee40       ?setmapfilenames@@YAXPBD0@Z 004ffe40 f   worldio.obj
 0001:000fef70       ?loadents@@YA_NPBDAAU?$vector@Uentity@@@@PAI@Z 004fff70 f   worldio.obj
 0001:000ff3d0       ?fixmapname@@YAXPAD@Z      005003d0 f   worldio.obj
 0001:000ff3f0       ?validmapname@@YAXPADPBD11I@Z 005003f0 f   worldio.obj
 0001:000ff470       ?clearmapcrc@@YAXXZ        00500470 f   worldio.obj
 0001:000ff480       ?save_world@@YA_NPBD_N@Z   00500480 f   worldio.obj
 0001:000ffc60       ?gets2c@@YAXXZ             00500c60 f   client.obj
 0001:000fff00       ?clientkeepalive@@YAXXZ    00500f00 f   client.obj
 0001:000fff20       ?localservertoclient@@YAXHPAU_ENetPacket@@@Z 00500f20 f   client.obj
 0001:000ffff0       ?neterr@@YAXPBD_N@Z        00500ff0 f   client.obj
 0001:00100020       ?flushclient@@YAXXZ        00501020 f   client.obj
 0001:00100040       ?sendclientpacket@@YAXPAU_ENetPacket@@H@Z 00501040 f   client.obj
 0001:001000b0       ?run@?$_icmd_localdisconnect@$0LM@@@SAXXZ 005010b0 f   client.obj
 0001:001000d0       ?run@?$_icmd_localconnect@$0LL@@@SAXXZ 005010d0 f   client.obj
 0001:001000f0       ?run@?$_icmd_disconnect@$0LK@@@SAXPAH@Z 005010f0 f   client.obj
 0001:00100160       ?run@?$_icmd_lanconnect@$0LI@@@SAXPAHPAD@Z 00501160 f   client.obj
 0001:00100180       ?run@?$_icmd_connect@$0LH@@@SAXPADPAH0@Z 00501180 f   client.obj
 0001:001001a0       ?trydisconnect@@YAX_N@Z    005011a0 f   client.obj
 0001:00100210       ?disconnect@@YAX_N0@Z      00501210 f   client.obj
 0001:001002c0       ?reconnect@@YAXPBD@Z       005012c0 f   client.obj
 0001:001002f0       ?connectserv@@YAXPBDH0@Z   005012f0 f   client.obj
 0001:001004e0       ?abortconnect@@YAXXZ       005014e0 f   client.obj
 0001:00100540       ?run@?$_icmd_connectedport@$0DM@@@SAXXZ 00501540 f   client.obj
 0001:00100580       ?run@?$_icmd_connectedip@$0DG@@@SAXXZ 00501580 f   client.obj
 0001:00100610       ?connectedpeer@@YAPBU_ENetAddress@@XZ 00501610 f   client.obj
 0001:00100620       ?run@?$_icmd_isconnected@$0CK@@@SAXPAH0@Z 00501620 f   client.obj
 0001:00100670       ?throttle@@YAXXZ           00501670 f   client.obj
 0001:001006a0       ?var_throttle_decel@@YAXPAUident@@@Z 005016a0 f   client.obj
 0001:001006d0       ?var_throttle_accel@@YAXPAUident@@@Z 005016d0 f   client.obj
 0001:00100700       ?var_throttle_interval@@YAXPAUident@@@Z 00501700 f   client.obj
 0001:00100730       ?var_rate@@YAXPAUident@@@Z 00501730 f   client.obj
 0001:00100760       ?setrate@@YAXH@Z           00501760 f   client.obj
 0001:00100790       ?isconnected@@YA_N_N0@Z    00501790 f   client.obj
 0001:001007c0       ?multiplayer@@YA_N_N@Z     005017c0 f   client.obj
 0001:00100870       ?serveroption@@YA_NPAD@Z   00501870 f   server.obj
 0001:00100880       ?stoplistenserver@@YAXXZ   00501880 f   server.obj
 0001:00100900       ?startlistenserver@@YAXPAH@Z 00501900 f   server.obj
 0001:00100970       ?initserver@@YAX_N0@Z      00501970 f   server.obj
 0001:00100a20       ?setuplistenserver@@YA_N_N@Z 00501a20 f   server.obj
 0001:00100bd0       ?servererror@@YA_N_NPBD@Z  00501bd0 f   server.obj
 0001:00100c30       ?rundedicatedserver@@YAXXZ 00501c30 f   server.obj
 0001:00100cd0       ?isdedicatedserver@@YA_NXZ 00501cd0 f   server.obj
 0001:00100ce0       ?logoutfv@@YAXPBDPAD@Z     00501ce0 f   server.obj
 0001:00100df0       _WinMain@16                00501df0 f   server.obj
 0001:00101870       ?flushserver@@YAX_N@Z      00502870 f   server.obj
 0001:00101890       ?serverslice@@YAX_NI@Z     00502890 f   server.obj
 0001:00101e00       ?updatetime@@YAXXZ         00502e00 f   server.obj
 0001:00101e40       ?updatemasterserver@@YAXXZ 00502e40 f   server.obj
 0001:00101eb0       ?var_serverport@@YAXPAUident@@@Z 00502eb0 f   server.obj
 0001:00101f80       ?checkserversockets@@YAXXZ 00502f80 f   server.obj
 0001:001021b0       ?sendserverinforeply@@YAXAAU?$databuf@E@@@Z 005031b0 f   server.obj
 0001:001021e0       ?flushmasterinput@@YAXXZ   005031e0 f   server.obj
 0001:00102390       ?flushmasteroutput@@YAXXZ  00503390 f   server.obj
 0001:00102440       ?processmasterinput@@YAXXZ 00503440 f   server.obj
 0001:00102570       ?requestmasterf@@YA_NPBDZZ 00503570 f   server.obj
 0001:00102660       ?requestmaster@@YA_NPBD@Z  00503660 f   server.obj
 0001:00102700       ?connectmaster@@YAI_N@Z    00503700 f   server.obj
 0001:00102800       ?var_masterport@@YAXPAUident@@@Z 00503800 f   server.obj
 0001:00102810       ?var_mastername@@YAXPAUident@@@Z 00503810 f   server.obj
 0001:00102820       ?disconnectmaster@@YAXXZ   00503820 f   server.obj
 0001:00102930       ?process@@YAXPAU_ENetPacket@@HH@Z 00503930 f   server.obj
 0001:001029f0       ?kicknonlocalclients@@YAXH@Z 005039f0 f   server.obj
 0001:00102b30       ?disconnect_client@@YAXHH@Z 00503b30 f   server.obj
 0001:00102c60       ?sendfile@@YAPAU_ENetPacket@@HHPAUstream@@PBDZZ 00503c60 f   server.obj
 0001:00102e80       ?sendf@@YAPAU_ENetPacket@@HHPBDZZ 00503e80 f   server.obj
 0001:001031e0       ?sendpacket@@YAXHHPAU_ENetPacket@@H@Z 005041e0 f   server.obj
 0001:001032d0       ?getclientip@@YAIH@Z       005042d0 f   server.obj
 0001:00103300       ?getclientpeer@@YAPAU_ENetPeer@@H@Z 00504300 f   server.obj
 0001:00103320       ?getclientinfo@@YAPAXH@Z   00504320 f   server.obj
 0001:00103350       ?getservermtu@@YAHXZ       00504350 f   server.obj
 0001:00103370       ?var_maxdupclients@@YAXPAUident@@@Z 00504370 f   server.obj
 0001:00103390       ?var_maxclients@@YAXPAUident@@@Z 00504390 f   server.obj
 0001:001033b0       ?cleanupserver@@YAXXZ      005043b0 f   server.obj
 0001:001033f0       ?delclient@@YAXPAUclient@@@Z 005043f0 f   server.obj
 0001:00103450       ?addclient@@YAAAUclient@@H@Z 00504450 f   server.obj
 0001:00103820       ?logoutf@@YAXPBDZZ         00504820 f   server.obj
 0001:00103940       ?setlogfile@@YAXPBD@Z      00504940 f   server.obj
 0001:001039b0       ?getlogfile@@YAPAU_iobuf@@XZ 005049b0 f   server.obj
 0001:001039c0       ?closelogfile@@YAXXZ       005049c0 f   server.obj
 0001:001039e0       ?hasnonlocalclients@@YA_NXZ 005049e0 f   server.obj
 0001:001039f0       ?localdisconnect@@YAX_N@Z  005049f0 f   server.obj
 0001:00103ae0       ?localconnect@@YAXXZ       00504ae0 f   server.obj
 0001:00103c00       ?localclienttoserver@@YAXHPAU_ENetPacket@@@Z 00504c00 f   server.obj
 0001:00103d00       ?disconnectreason@@YAPBDH@Z 00504d00 f   server.obj
 0001:00103d80       ?haslocalclients@@YA_NXZ   00504d80 f   server.obj
 0001:001041a0       ?writeservercfg@@YAXXZ     005051a0 f   serverbrowser.obj
 0001:001043d0       ?run@?$_icmd_clearservers@$0CMO@@@SAXPAH@Z 005053d0 f   serverbrowser.obj
 0001:001043e0       ?run@?$_icmd_keepserver@$0CMN@@@SAXPBDPAH0@Z 005053e0 f   serverbrowser.obj
 0001:00104410       ?run@?$_icmd_addserver@$0CMM@@@SAXPBDPAH0@Z 00505410 f   serverbrowser.obj
 0001:00104440       ?initservers@@YAXXZ        00505440 f   serverbrowser.obj
 0001:00104460       ?updatefrommaster@@YAXXZ   00505460 f   serverbrowser.obj
 0001:001045f0       ?retrieveservers@@YAXAAU?$vector@D@@@Z 005055f0 f   serverbrowser.obj
 0001:001047f0       ?clearservers@@YAX_N@Z     005057f0 f   serverbrowser.obj
 0001:00104a00       ?getservinfo@@YAPAUservinfo@@H@Z 00505a00 f   serverbrowser.obj
 0001:00104a30       ?run@?$_icmd_connectservinfo@$0CFO@@@SAXPAHPAD@Z 00505a30 f   serverbrowser.obj
 0001:00104a70       ?run@?$_icmd_servinfoattr@$0CFM@@@SAXPAH0@Z 00505a70 f   serverbrowser.obj
 0001:00104ad0       ?run@?$_icmd_servinfoplayers@$0CFL@@@SAXPAH@Z 00505ad0 f   serverbrowser.obj
 0001:00104b40       ?run@?$_icmd_servinfomaxplayers@$0CFF@@@SAXPAH@Z 00505b40 f   serverbrowser.obj
 0001:00104b80       ?run@?$_icmd_servinfonumplayers@$0CFE@@@SAXPAH@Z 00505b80 f   serverbrowser.obj
 0001:00104bc0       ?run@?$_icmd_servinfoping@$0CFD@@@SAXPAH@Z 00505bc0 f   serverbrowser.obj
 0001:00104c00       ?run@?$_icmd_servinfomap@$0CFC@@@SAXPAH@Z 00505c00 f   serverbrowser.obj
 0001:00104c40       ?run@?$_icmd_servinfokeep@$0CFB@@@SAXPAH@Z 00505c40 f   serverbrowser.obj
 0001:00104c80       ?run@?$_icmd_servinfohaspassword@$0CFA@@@SAXPAH@Z 00505c80 f   serverbrowser.obj
 0001:00104cd0       ?run@?$_icmd_servinfoport@$0CEP@@@SAXPAH@Z 00505cd0 f   serverbrowser.obj
 0001:00104d00       ?run@?$_icmd_servinfoname@$0CEO@@@SAXPAH@Z 00505d00 f   serverbrowser.obj
 0001:00104d30       ?run@?$_icmd_servinfodesc@$0CEN@@@SAXPAH@Z 00505d30 f   serverbrowser.obj
 0001:00104d70       ?run@?$_icmd_servinfovalid@$0CEH@@@SAXPAH@Z 00505d70 f   serverbrowser.obj
 0001:00104db0       ?run@?$_icmd_numservers@$0CDN@@@SAXXZ 00505db0 f   serverbrowser.obj
 0001:00104dd0       ?refreshservers@@YAXXZ     00505dd0 f   serverbrowser.obj
 0001:00104ea0       ?sortservers@@YAXXZ        00505ea0 f   serverbrowser.obj
 0001:00104ec0       ?checkpings@@YAXXZ         00505ec0 f   serverbrowser.obj
 0001:00105240       ?checkresolver@@YAXXZ      00506240 f   serverbrowser.obj
 0001:00105440       ?pingservers@@YAXXZ        00506440 f   serverbrowser.obj
 0001:00105710       ?var_servpingdecay@@YAXPAUident@@@Z 00506710 f   serverbrowser.obj
 0001:00105720       ?var_servpingrate@@YAXPAUident@@@Z 00506720 f   serverbrowser.obj
 0001:00105a40       ?resolvercheck@@YA_NPAPBDPAU_ENetAddress@@@Z 00506a40 f   serverbrowser.obj
 0001:00105af0       ?resolverquery@@YAXPBD@Z   00506af0 f   serverbrowser.obj
 0001:00105b40       ?resolverclear@@YAXXZ      00506b40 f   serverbrowser.obj
 0001:00105c10       ?resolverstop@@YAXAAUresolverthread@@@Z 00506c10 f   serverbrowser.obj
 0001:00105c70       ?resolverinit@@YAXXZ       00506c70 f   serverbrowser.obj
 0001:00105dc0       ?resolverloop@@YAHPAX@Z    00506dc0 f   serverbrowser.obj
 0001:00105ff0       ?connectwithtimeout@@YAHIPBDABU_ENetAddress@@@Z 00506ff0 f   serverbrowser.obj
 0001:00106130       ?addserver@@YAXPBDH0_N@Z   00507130 f   serverbrowser.obj
 0001:001062c0       ?resolverwait@@YA_NPBDPAU_ENetAddress@@@Z 005072c0 f   serverbrowser.obj
 0001:001065b0       ?cleanupaa@@YAXXZ          005075b0 f   aa.obj
 0001:00106620       ?debugaa@@YA_NXZ           00507620 f   aa.obj
 0001:001067b0       ?doaa@@YAXIP6AXIH@Z@Z      005077b0 f   aa.obj
 0001:00106a80       ?multisampledaa@@YA_NXZ    00507a80 f   aa.obj
 0001:00106ac0       ?disableaamask@@YAXXZ      00507ac0 f   aa.obj
 0001:00106b10       ?enableaamask@@YAXH@Z      00507b10 f   aa.obj
 0001:00106b60       ?setaamask@@YAX_N@Z        00507b60 f   aa.obj
 0001:00106cc0       ?jitteraa@@YAXXZ           00507cc0 f   aa.obj
 0001:00106ea0       ?setupaa@@YAXHH@Z          00507ea0 f   aa.obj
 0001:00106f10       ?dosmaa@@YAXI_N@Z          00507f10 f   aa.obj
 0001:001077e0       ?viewsmaa@@YAXXZ           005087e0 f   aa.obj
 0001:001079b0       ?var_smaastencil@@YAXPAUident@@@Z 005089b0 f   aa.obj
 0001:001079c0       ?var_smaadepthmask@@YAXPAUident@@@Z 005089c0 f   aa.obj
 0001:001079d0       ?var_smaagreenluma@@YAXPAUident@@@Z 005089d0 f   aa.obj
 0001:001079e0       ?var_smaacoloredge@@YAXPAUident@@@Z 005089e0 f   aa.obj
 0001:001079f0       ?var_smaaquality@@YAXPAUident@@@Z 005089f0 f   aa.obj
 0001:00107a00       ?var_smaaspatial@@YAXPAUident@@@Z 00508a00 f   aa.obj
 0001:00107a10       ?var_smaa@@YAXPAUident@@@Z 00508a10 f   aa.obj
 0001:00107a20       ?cleanupsmaa@@YAXXZ        00508a20 f   aa.obj
 0001:00107b10       ?setupsmaa@@YAXHH@Z        00508b10 f   aa.obj
 0001:00108270       ?gensmaaareadata@@YAXXZ    00509270 f   aa.obj
 0001:001084a0       ?areadiag@@YA?AUvec2@@HMMABU1@@Z 005094a0 f   aa.obj
 0001:00108b80       ?areaunderdiag@@YAMABUvec2@@00@Z 00509b80 f   aa.obj
 0001:00108e80       ?areaortho@@YA?AUvec2@@HMMM@Z 00509e80 f   aa.obj
 0001:00109650       ?areaunderortho@@YA?AUvec2@@ABU1@0M@Z 0050a650 f   aa.obj
 0001:001098c0       ?gensmaasearchdata@@YAXXZ  0050a8c0 f   aa.obj
 0001:001099e0       ?clearsmaashaders@@YAXXZ   0050a9e0 f   aa.obj
 0001:00109a20       ?loadsmaashaders@@YAX_N@Z  0050aa20 f   aa.obj
 0001:00109d10       ?dofxaa@@YAXI@Z            0050ad10 f   aa.obj
 0001:00109e70       ?var_fxaagreenluma@@YAXPAUident@@@Z 0050ae70 f   aa.obj
 0001:00109e80       ?var_fxaaquality@@YAXPAUident@@@Z 0050ae80 f   aa.obj
 0001:00109e90       ?var_fxaa@@YAXPAUident@@@Z 0050ae90 f   aa.obj
 0001:00109ea0       ?cleanupfxaa@@YAXXZ        0050aea0 f   aa.obj
 0001:00109f00       ?setupfxaa@@YAXHH@Z        0050af00 f   aa.obj
 0001:0010a130       ?clearfxaashaders@@YAXXZ   0050b130 f   aa.obj
 0001:0010a150       ?loadfxaashaders@@YAXXZ    0050b150 f   aa.obj
 0001:0010a200       ?dotqaa@@YAXI@Z            0050b200 f   aa.obj
 0001:0010a2e0       ?resolvetqaa@@YAXI@Z       0050b2e0 f   aa.obj
 0001:0010a6a0       ?viewtqaa@@YAXXZ           0050b6a0 f   aa.obj
 0001:0010a810       ?setaavelocityparams@@YAXI@Z 0050b810 f   aa.obj
 0001:0010ab60       ?cleanuptqaa@@YAXXZ        0050bb60 f   aa.obj
 0001:0010abd0       ?setuptqaa@@YAXHH@Z        0050bbd0 f   aa.obj
 0001:0010ad80       ?loadtqaashaders@@YAXXZ    0050bd80 f   aa.obj
 0001:0010add0       ?var_tqaamovemask@@YAXPAUident@@@Z 0050bdd0 f   aa.obj
 0001:0010ade0       ?var_tqaa@@YAXPAUident@@@Z 0050bde0 f   aa.obj
 0001:0010af80       ?genstaintris@BIH@@QAEXPAUstainrenderer@@ABUvec@@M1HHHM@Z 0050bf80 f   bih.obj
 0001:0010b3e0       ?genstaintris@BIH@@QAEXPAUstainrenderer@@ABUmesh@1@ABUvec@@MABUmatrix4x3@@PAUnode@1@ABUivec@@5@Z 0050c3e0 f   bih.obj
 0001:0010d1c0       ??1BIH@@QAE@XZ             0050e1c0 f   bih.obj
 0001:0010d220       ??0BIH@@QAE@AAU?$vector@Umesh@BIH@@@@@Z 0050e220 f   bih.obj
 0001:0010e300       ?build@BIH@@QAEXAAUmesh@1@PAGHABUivec@@2@Z 0050f300 f   bih.obj
 0001:0010e9e0       ?triintersect@BIH@@QAE_NABUmesh@1@HABUvec@@1MAAMH@Z 0050f9e0 f   bih.obj
 0001:0010f020       ?mmintersect@@YA_NABUextentity@@ABUvec@@1MHAAM@Z 00510020 f   bih.obj
 0001:0010f500       ?ellipsecollide@BIH@@QAE_NPAUphysent@@ABUvec@@M1HHHM@Z 00510500 f   bih.obj
 0001:0010fa20       ?boxcollide@BIH@@QAE_NPAUphysent@@ABUvec@@M1HHHM@Z 00510a20 f   bih.obj
 0001:001100e0       ?getdynlight@@YA_NHAAUvec@@AAM00AAH2@Z 005110e0 f   dynlight.obj
 0001:00110150       ?finddynlights@@YAHXZ      00511150 f   dynlight.obj
 0001:001104c0       ?updatedynlights@@YAXXZ    005114c0 f   dynlight.obj
 0001:00110940       ?removetrackeddynlights@@YAXPAUphysent@@@Z 00511940 f   dynlight.obj
 0001:001109e0       ?cleardynlights@@YAXXZ     005119e0 f   dynlight.obj
 0001:00110a70       ?adddynlight@@YAXABUvec@@M0HHHM0PAUphysent@@0H@Z 00511a70 f   dynlight.obj
 0001:00110ec0       ?cleanupgrass@@YAXXZ       00511ec0 f   grass.obj
 0001:00110f00       ?rendergrass@@YAXXZ        00511f00 f   grass.obj
 0001:001112f0       ?cleargrassshaders@@YAXXZ  005122f0 f   grass.obj
 0001:00111300       ?loadgrassshader@@YAPAUShader@@XZ 00512300 f   grass.obj
 0001:00111350       ?generategrass@@YAXXZ      00512350 f   grass.obj
 0001:00112b90       ?var_grasscolour@@YAXPAUident@@@Z 00513b90 f   grass.obj
 0001:00112c50       ?loadgrassshaders@@YAXXZ   00513c50 f   grass.obj
 0001:00113870       ?renderminimapmaterials@@YAXXZ 00514870 f   material.obj
 0001:001138a0       ?rendereditmaterials@@YAXXZ 005148a0 f   material.obj
 0001:00113bb0       ?rendersolidmaterials@@YAXXZ 00514bb0 f   material.obj
 0001:00113bd0       ?renderliquidmaterials@@YAXXZ 00514bd0 f   material.obj
 0001:00113c00       ?renderglass@@YAXXZ        00514c00 f   material.obj
 0001:001142e0       ?var_glassenv@@YAXPAUident@@@Z 005152e0 f   material.obj
 0001:001142f0       ?getglassspec@@YAHH@Z      005152f0 f   material.obj
 0001:00114330       ?getglassrefract@@YAMH@Z   00515330 f   material.obj
 0001:00114370       ?getglasscolour@@YAABUbvec@@H@Z 00515370 f   material.obj
 0001:001143b0       ?var_glass4colour@@YAXPAUident@@@Z 005153b0 f   material.obj
 0001:001143f0       ?var_glass3colour@@YAXPAUident@@@Z 005153f0 f   material.obj
 0001:00114430       ?var_glass2colour@@YAXPAUident@@@Z 00515430 f   material.obj
 0001:00114470       ?var_glasscolour@@YAXPAUident@@@Z 00515470 f   material.obj
 0001:001144b0       ?rendermaterialmask@@YAXXZ 005154b0 f   material.obj
 0001:001145a0       ?findmaterials@@YAHXZ      005155a0 f   material.obj
 0001:00115420       ?rendermatgrid@@YAXXZ      00516420 f   material.obj
 0001:001156d0       ?sorteditmaterials@@YAXXZ  005166d0 f   material.obj
 0001:00115930       ?preloadglassshaders@@YAX_N@Z 00516930 f   material.obj
 0001:001159c0       ?var_optmats@@YAXPAUident@@@Z 005169c0 f   material.obj
 0001:00115e90       ?visiblematerial@@YAHABUcube@@HABUivec@@HG@Z 00516e90 f   material.obj
 0001:00115f60       ?findmaterialname@@YAPBDH@Z 00516f60 f   material.obj
 0001:00116200       ?optimizematsurfs@@YAHPAUmaterialsurface@@H@Z 00517200 f   material.obj
 0001:00116730       ?genmatsurfs@@YAXABUcube@@ABUivec@@HAAU?$vector@Umaterialsurface@@@@@Z 00517730 f   material.obj
 0001:00116820       ?calcmatbb@@YAXPAUvtxarray@@ABUivec@@HAAU?$vector@Umaterialsurface@@@@@Z 00517820 f   material.obj
 0001:00116a50       ?getmaterialdesc@@YAPBDHPBD@Z 00517a50 f   material.obj
 0001:00116b80       ?setupmaterials@@YAXHH@Z   00517b80 f   material.obj
 0001:001170a0       ?findmaterial@@YAHPBD@Z    005180a0 f   material.obj
 0001:001174d0       ?cleanupgl@@YAXXZ          005184d0 f   rendergl.obj
 0001:00117590       ?gl_drawframe@@YAXXZ       00518590 f   rendergl.obj
 0001:001177f0       ?gl_setupframe@@YAX_N@Z    005187f0 f   rendergl.obj
 0001:00117850       ?gl_drawhud@@YAXXZ         00518850 f   rendergl.obj
 0001:00118490       ?drawcrosshair@@YAXHH@Z    00519490 f   rendergl.obj
 0001:001187f0       ?writecrosshairs@@YAXPAUstream@@@Z 005197f0 f   rendergl.obj
 0001:00118850       ?run@?$_icmd_getcrosshair@$0KFC@@@SAXPAH@Z 00519850 f   rendergl.obj
 0001:001188e0       ?loadcrosshair_@@YAXPBDPAH@Z 005198e0 f   rendergl.obj
 0001:00118960       ?loadcrosshair@@YAXPBDH@Z  00519960 f   rendergl.obj
 0001:001189e0       ?drawdamagescreen@@YAXHH@Z 005199e0 f   rendergl.obj
 0001:00118b00       ?damageblend@@YAXH@Z       00519b00 f   rendergl.obj
 0001:00118b60       ?var_damagescreen@@YAXPAUident@@@Z 00519b60 f   rendergl.obj
 0001:00118b80       ?drawdamagecompass@@YAXHH@Z 00519b80 f   rendergl.obj
 0001:00118f90       ?damagecompass@@YAXHABUvec@@@Z 00519f90 f   rendergl.obj
 0001:00119140       ?gl_drawmainmenu@@YAXXZ    0051a140 f   rendergl.obj
 0001:00119160       ?gl_drawview@@YAXXZ        0051a160 f   rendergl.obj
 0001:00119c60       ?end@modelpreview@@YAXXZ   0051ac60 f   rendergl.obj
 0001:00119d50       ?start@modelpreview@@YAXHHHH_N0@Z 0051ad50 f   rendergl.obj
 0001:0011a050       ?drawcubemap@@YAXHABUvec@@MMABUcubemapside@@_N@Z 0051b050 f   rendergl.obj
 0001:0011a5f0       ?clipminimap@@YAXAAUivec@@0PAUcube@@ABU1@H@Z 0051b5f0 f   rendergl.obj
 0001:0011a710       ?bindminimap@@YAXXZ        0051b710 f   rendergl.obj
 0001:0011a730       ?var_nominimapcolour@@YAXPAUident@@@Z 0051b730 f   rendergl.obj
 0001:0011a770       ?var_showminimap@@YAXPAUident@@@Z 0051b770 f   rendergl.obj
 0001:0011a780       ?var_minimapsize@@YAXPAUident@@@Z 0051b780 f   rendergl.obj
 0001:0011a790       ?var_minimapcolour@@YAXPAUident@@@Z 0051b790 f   rendergl.obj
 0001:0011a7c0       ?clearminimap@@YAXXZ       0051b7c0 f   rendergl.obj
 0001:0011a7f0       ?drawfogoverlay@@YAXHMMH@Z 0051b7f0 f   rendergl.obj
 0001:0011af20       ?calcfogcull@@YAMXZ        0051bf20 f   rendergl.obj
 0001:0011afa0       ?calcfogdensity@@YAMM@Z    0051bfa0 f   rendergl.obj
 0001:0011afe0       ?setfogcolor@@YAXABUvec@@@Z 0051bfe0 f   rendergl.obj
 0001:0011b530       ?var_fogcolour@@YAXPAUident@@@Z 0051c530 f   rendergl.obj
 0001:0011b560       ?hudquad@@YAXMMMMMMMM@Z    0051c560 f   rendergl.obj
 0001:0011b770       ?screenquadoffset@@YAXMMMM@Z 0051c770 f   rendergl.obj
 0001:0011b7a0       ?screenquad@@YAXMMMM@Z     0051c7a0 f   rendergl.obj
 0001:0011b830       ?screenquadflipped@@YAXMM@Z 0051c830 f   rendergl.obj
 0001:0011b8b0       ?screenquad@@YAXXZ         0051c8b0 f   rendergl.obj
 0001:0011ba60       ?calcspotscissor@@YA_NABUvec@@M0H00AAM11111@Z 0051ca60 f   rendergl.obj
 0001:0011c6a0       ?calcspherescissor@@YA_NABUvec@@MAAM11111@Z 0051d6a0 f   rendergl.obj
 0001:0011cc40       ?renderavatar@@YAXXZ       0051dc40 f   rendergl.obj
 0001:0011cea0       ?calcavatarpos@@YA?AUvec@@ABU1@M@Z 0051dea0 f   rendergl.obj
 0001:0011d190       ?calcfrustumboundsphere@@YAMMMABUvec@@0AAU1@@Z 0051e190 f   rendergl.obj
 0001:0011d2f0       ?recomputecamera@@YAXXZ    0051e2f0 f   rendergl.obj
 0001:0011dc00       ?mousemove@@YAXHH@Z        0051ec00 f   rendergl.obj
 0001:0011ddc0       ?modifyorient@@YAXMM@Z     0051edc0 f   rendergl.obj
 0001:0011de60       ?fixcamerarange@@YAXXZ     0051ee60 f   rendergl.obj
 0001:0011dee0       ?isthirdperson@@YA_NXZ     0051eee0 f   rendergl.obj
 0001:0011df00       ?computezoom@@YAXXZ        0051ef00 f   rendergl.obj
 0001:0011e050       ?disablezoom@@YAXXZ        0051f050 f   rendergl.obj
 0001:0011e070       ?pushhudtranslate@@YAXMMMM@Z 0051f070 f   rendergl.obj
 0001:0011e140       ?pushhudscale@@YAXMM@Z     0051f140 f   rendergl.obj
 0001:0011e1b0       ?resethudmatrix@@YAXXZ     0051f1b0 f   rendergl.obj
 0001:0011e280       ?setcamprojmatrix@@YAX_N0@Z 0051f280 f   rendergl.obj
 0001:0011e680       ?setcammatrix@@YAXXZ       0051f680 f   rendergl.obj
 0001:0011eaa0       ?run@?$_icmd_getcampos@$0ENM@@@SAXXZ 0051faa0 f   rendergl.obj
 0001:0011ebd0       ?run@?$_icmd_getcamroll@$0ENH@@@SAXXZ 0051fbd0 f   rendergl.obj
 0001:0011ebf0       ?run@?$_icmd_getcampitch@$0ENG@@@SAXXZ 0051fbf0 f   rendergl.obj
 0001:0011ec10       ?run@?$_icmd_getcamyaw@$0ENF@@@SAXXZ 0051fc10 f   rendergl.obj
 0001:0011ec30       ?gl_init@@YAXXZ            0051fc30 f   rendergl.obj
 0001:0011ee40       ?gl_resize@@YAXXZ          0051fe40 f   rendergl.obj
 0001:0011eea0       ?printtimers@@YAXHH@Z      0051fea0 f   rendergl.obj
 0001:0011f0c0       ?var_timer@@YAXPAUident@@@Z 005200c0 f   rendergl.obj
 0001:0011f0d0       ?cleanuptimers@@YAXXZ      005200d0 f   rendergl.obj
 0001:0011f130       ?synctimers@@YAXXZ         00520130 f   rendergl.obj
 0001:0011f230       ?findtimer@@YAPAUtimer@@PBD_N@Z 00520230 f   rendergl.obj
 0001:0011f440       ?run@?$_icmd_glext@$0EDD@@@SAXPAD@Z 00520440 f   rendergl.obj
 0001:0011f460       ?gl_checkextensions@@YAXXZ 00520460 f   rendergl.obj
 0001:00120ff0       ?checkdepthtexstencilrb@@YA_NXZ 00521ff0 f   rendergl.obj
 0001:001211a0       ?hasext@@YA_NPBD@Z         005221a0 f   rendergl.obj
 0001:00121220       ?parseglexts@@YAXXZ        00522220 f   rendergl.obj
 0001:00121540       ?glerror@@YAXPBDHI@Z       00522540 f   rendergl.obj
 0001:00121640       ?getprocaddress@@YAPAXPBD@Z 00522640 f   rendergl.obj
 0001:00121650       ?calcbbscissor@@YA_NABUivec@@0AAM111@Z 00522650 f   rendergl.obj
 0001:00121dc0       ?zerofogcolor@@YAXXZ       00522dc0 f   rendergl.obj
 0001:00121df0       ?resetfogcolor@@YAXXZ      00522df0 f   rendergl.obj
 0001:00121e00       ?debugquad@@YAXMMMMMMMM@Z  00522e00 f   rendergl.obj
 0001:00122000       ?screenquad@@YAXMM@Z       00523000 f   rendergl.obj
 0001:00122030       ?begintimer@@YAPAUtimer@@PBD_N@Z 00523030 f   rendergl.obj
 0001:001220b0       ?endtimer@@YAXPAUtimer@@@Z 005230b0 f   rendergl.obj
 0001:00122100       ?cleardamagescreen@@YAXXZ  00523100 f   rendergl.obj
 0001:00122120       ?drawminimap@@YAXXZ        00523120 f   rendergl.obj
 0001:00122c70       ?enablepolygonoffset@@YAXI@Z 00523c70 f   rendergl.obj
 0001:00122d30       ?disablepolygonoffset@@YAXI@Z 00523d30 f   rendergl.obj
 0001:00122da0       ?calcmodelpreviewpos@@YA?AUvec@@ABU1@AAM@Z 00523da0 f   rendergl.obj
 0001:00122eb0       ?pushhudmatrix@@YAXXZ      00523eb0 f   rendergl.obj
 0001:00122f00       ?flushhudmatrix@@YAX_N@Z   00523f00 f   rendergl.obj
 0001:00122fe0       ?pophudmatrix@@YAX_N0@Z    00523fe0 f   rendergl.obj
 0001:00123030       ?resethudshader@@YAXXZ     00524030 f   rendergl.obj
 0001:00123fe0       ?cleanuplights@@YAXXZ      00524fe0 f   renderlights.obj
 0001:00124050       ?workinoq@@YAXXZ           00525050 f   renderlights.obj
 0001:001240e0       ?filtershadowcolors@@YAXXZ 005250e0 f   renderlights.obj
 0001:001249f0       ?rendershadowmaps@@YAXH@Z  005259f0 f   renderlights.obj
 0001:00125bb0       ?calcshadowinfo@@YAHABUextentity@@AAUvec@@AAM1AAH2@Z 00526bb0 f   renderlights.obj
 0001:00125d20       ?rendercsmshadowmaps@@YAXXZ 00526d20 f   renderlights.obj
 0001:00126490       ?rendershadowtransparent@@YAXHH_N@Z 00527490 f   renderlights.obj
 0001:00126730       ?cleanupshadowtransparent@@YAXXZ 00527730 f   renderlights.obj
 0001:00126760       ?setupshadowtransparent@@YAXXZ 00527760 f   renderlights.obj
 0001:001267c0       ?renderslices@radiancehints@@QAEXXZ 005277c0 f   renderlights.obj
 0001:0012aea0       ?packlights@@YAXXZ         0052bea0 f   renderlights.obj
 0001:0012bdd0       ?collectlights@@YAXXZ      0052cdd0 f   renderlights.obj
 0001:0012c840       ?viewlightscissor@@YAXXZ   0052d840 f   renderlights.obj
 0001:0012cb00       ?renderlights@@YAXMMMMPBIHH_N@Z 0052db00 f   renderlights.obj
 0001:00131a30       ?disable@lightsphere@@YAXXZ 00532a30 f   renderlights.obj
 0001:00131a60       ?draw@lightsphere@@YAXXZ   00532a60 f   renderlights.obj
 0001:00131aa0       ?enable@lightsphere@@YAXXZ 00532aa0 f   renderlights.obj
 0001:00131b30       ?cleanup@lightsphere@@YAXXZ 00532b30 f   renderlights.obj
 0001:00131b80       ?init@lightsphere@@YAXHH@Z 00532b80 f   renderlights.obj
 0001:00131f40       ?resetlights@@YAXXZ        00532f40 f   renderlights.obj
 0001:00132360       ?calctilesize@@YAXXZ       00533360 f   renderlights.obj
 0001:00132480       ?loaddeferredlightshader@@YAPAUShader@@PBD@Z 00533480 f   renderlights.obj
 0001:00132820       ?var_volcolour@@YAXPAUident@@@Z 00533820 f   renderlights.obj
 0001:00132860       ?var_volsteps@@YAXPAUident@@@Z 00533860 f   renderlights.obj
 0001:00132870       ?var_volblur@@YAXPAUident@@@Z 00533870 f   renderlights.obj
 0001:00132880       ?var_volbilateral@@YAXPAUident@@@Z 00533880 f   renderlights.obj
 0001:00132890       ?var_volreduce@@YAXPAUident@@@Z 00533890 f   renderlights.obj
 0001:001328a0       ?var_volumetric@@YAXPAUident@@@Z 005338a0 f   renderlights.obj
 0001:001328b0       ?setupvolumetric@@YAXHH@Z  005338b0 f   renderlights.obj
 0001:00132c00       ?loadvolumetricshaders@@YAXXZ 00533c00 f   renderlights.obj
 0001:00132d90       ?loadvolumetricshader@@YAPAUShader@@XZ 00533d90 f   renderlights.obj
 0001:00132ec0       ?clearvolumetricshaders@@YAXXZ 00533ec0 f   renderlights.obj
 0001:00132ee0       ?useavatarmask@@YA_NXZ     00533ee0 f   renderlights.obj
 0001:00132f10       ?var_avatarshadowstencil@@YAXPAUident@@@Z 00533f10 f   renderlights.obj
 0001:00132f30       ?useradiancehints@@YA_NXZ  00533f30 f   renderlights.obj
 0001:00132f90       ?bindparams@radiancehints@@QAEXXZ 00533f90 f   renderlights.obj
 0001:00133240       ?setup@radiancehints@@QAEXXZ 00534240 f   renderlights.obj
 0001:00133650       ?updatesplitdist@radiancehints@@QAEXXZ 00534650 f   renderlights.obj
 0001:00133780       ?calcspherersmsplits@@YAHABUvec@@M@Z 00534780 f   renderlights.obj
 0001:00133850       ?calcbbrsmsplits@@YAHABUivec@@0@Z 00534850 f   renderlights.obj
 0001:001339f0       ?gencullplanes@reflectiveshadowmap@@QAEXXZ 005349f0 f   renderlights.obj
 0001:00133c80       ?getprojmatrix@reflectiveshadowmap@@QAEXXZ 00534c80 f   renderlights.obj
 0001:00134110       ?getmodelmatrix@reflectiveshadowmap@@QAEXXZ 00535110 f   renderlights.obj
 0001:001341a0       ?setup@reflectiveshadowmap@@QAEXXZ 005351a0 f   renderlights.obj
 0001:001344c0       ?calcspherecsmsplits@@YAHABUvec@@M@Z 005354c0 f   renderlights.obj
 0001:001345e0       ?calcbbcsmsplits@@YAHABUivec@@0@Z 005355e0 f   renderlights.obj
 0001:001347e0       ?bindparams@cascadedshadowmap@@QAEXXZ 005357e0 f   renderlights.obj
 0001:00134c10       ?gencullplanes@cascadedshadowmap@@QAEXXZ 00535c10 f   renderlights.obj
 0001:00134ed0       ?getprojmatrix@cascadedshadowmap@@QAEXXZ 00535ed0 f   renderlights.obj
 0001:001354f0       ?getmodelmatrix@cascadedshadowmap@@QAEXXZ 005364f0 f   renderlights.obj
 0001:00135580       ?updatesplitdist@cascadedshadowmap@@QAEXXZ 00536580 f   renderlights.obj
 0001:001356b0       ?setup@cascadedshadowmap@@QAEXXZ 005366b0 f   renderlights.obj
 0001:001357f0       ?var_csmshadowmap@@YAXPAUident@@@Z 005367f0 f   renderlights.obj
 0001:00135860       ?var_csmsplits@@YAXPAUident@@@Z 00536860 f   renderlights.obj
 0001:001358d0       ?var_csmmaxsize@@YAXPAUident@@@Z 005368d0 f   renderlights.obj
 0001:00135ae0       ?var_batchsunlight@@YAXPAUident@@@Z 00536ae0 f   renderlights.obj
 0001:00135b10       ?var_lighttilebatch@@YAXPAUident@@@Z 00536b10 f   renderlights.obj
 0001:00135b40       ?var_alphashadowscale@@YAXPAUident@@@Z 00536b40 f   renderlights.obj
 0001:00135b90       ?var_alphashadow@@YAXPAUident@@@Z 00536b90 f   renderlights.obj
 0001:00135bc0       ?var_smalphaprec@@YAXPAUident@@@Z 00536bc0 f   renderlights.obj
 0001:00135bd0       ?var_smalpha@@YAXPAUident@@@Z 00536bd0 f   renderlights.obj
 0001:00135c00       ?var_smgather@@YAXPAUident@@@Z 00536c00 f   renderlights.obj
 0001:00135c40       ?var_smfilter@@YAXPAUident@@@Z 00536c40 f   renderlights.obj
 0001:00135c80       ?var_smcache@@YAXPAUident@@@Z 00536c80 f   renderlights.obj
 0001:00135c90       ?var_smcullside@@YAXPAUident@@@Z 00536c90 f   renderlights.obj
 0001:00135ca0       ?var_smdepthprec@@YAXPAUident@@@Z 00536ca0 f   renderlights.obj
 0001:00135cb0       ?var_smsize@@YAXPAUident@@@Z 00536cb0 f   renderlights.obj
 0001:00135cc0       ?cleanupshadowatlas@@YAXXZ 00536cc0 f   renderlights.obj
 0001:00135dd0       ?setupshadowatlas@@YAXXZ   00536dd0 f   renderlights.obj
 0001:00136520       ?viewshadowatlas@@YAXXZ    00537520 f   renderlights.obj
 0001:001368c0       ?clearsmshaders@@YAXXZ     005378c0 f   renderlights.obj
 0001:001368d0       ?loadsmshaders@@YAXXZ      005378d0 f   renderlights.obj
 0001:00136ad0       ?viewrh@@YAXXZ             00537ad0 f   renderlights.obj
 0001:00137180       ?viewrsm@@YAXXZ            00538180 f   renderlights.obj
 0001:001372e0       ?var_gi@@YAXPAUident@@@Z   005382e0 f   renderlights.obj
 0001:00137310       ?var_giscale@@YAXPAUident@@@Z 00538310 f   renderlights.obj
 0001:00137360       ?var_gidist@@YAXPAUident@@@Z 00538360 f   renderlights.obj
 0001:001373d0       ?var_rhtaps@@YAXPAUident@@@Z 005383d0 f   renderlights.obj
 0001:001373e0       ?var_rhforce@@YAXPAUident@@@Z 005383e0 f   renderlights.obj
 0001:001373f0       ?var_rhcache@@YAXPAUident@@@Z 005383f0 f   renderlights.obj
 0001:00137400       ?var_rsmspread@@YAXPAUident@@@Z 00538400 f   renderlights.obj
 0001:00137440       ?var_rhgrid@@YAXPAUident@@@Z 00538440 f   renderlights.obj
 0001:00137450       ?var_rhsplitweight@@YAXPAUident@@@Z 00538450 f   renderlights.obj
 0001:00137490       ?var_rhworldbias@@YAXPAUident@@@Z 00538490 f   renderlights.obj
 0001:001374d0       ?var_rsmdepthprec@@YAXPAUident@@@Z 005384d0 f   renderlights.obj
 0001:001374e0       ?var_rsmprec@@YAXPAUident@@@Z 005384e0 f   renderlights.obj
 0001:001374f0       ?var_rhprec@@YAXPAUident@@@Z 005384f0 f   renderlights.obj
 0001:00137500       ?var_rsmdepthmargin@@YAXPAUident@@@Z 00538500 f   renderlights.obj
 0001:00137540       ?var_rsmdepthrange@@YAXPAUident@@@Z 00538540 f   renderlights.obj
 0001:00137580       ?var_rhpradiustweak@@YAXPAUident@@@Z 00538580 f   renderlights.obj
 0001:001375c0       ?var_rsmpradiustweak@@YAXPAUident@@@Z 005385c0 f   renderlights.obj
 0001:00137600       ?var_rhfarplane@@YAXPAUident@@@Z 00538600 f   renderlights.obj
 0001:00137640       ?var_rhnearplane@@YAXPAUident@@@Z 00538640 f   renderlights.obj
 0001:00137680       ?var_rsmsize@@YAXPAUident@@@Z 00538680 f   renderlights.obj
 0001:00137690       ?var_rhborder@@YAXPAUident@@@Z 00538690 f   renderlights.obj
 0001:001376a0       ?var_rhsplits@@YAXPAUident@@@Z 005386a0 f   renderlights.obj
 0001:001376d0       ?var_rhrect@@YAXPAUident@@@Z 005386d0 f   renderlights.obj
 0001:001376e0       ?cleanupradiancehints@@YAXXZ 005386e0 f   renderlights.obj
 0001:00137810       ?setupradiancehints@@YAXXZ 00538810 f   renderlights.obj
 0001:00137fa0       ?clearrhshaders@@YAXXZ     00538fa0 f   renderlights.obj
 0001:00137fc0       ?loadrhshaders@@YAXXZ      00538fc0 f   renderlights.obj
 0001:00138110       ?loadradiancehintsshader@@YAPAUShader@@XZ 00539110 f   renderlights.obj
 0001:00138150       ?viewrefract@@YAXXZ        00539150 f   renderlights.obj
 0001:00138290       ?viewstencil@@YAXXZ        00539290 f   renderlights.obj
 0001:00138590       ?viewdepth@@YAXXZ          00539590 f   renderlights.obj
 0001:001386d0       ?viewbloom@@YAXXZ          005396d0 f   renderlights.obj
 0001:00138810       ?getavglum@@YAXPAHPAUident@@@Z 00539810 f   renderlights.obj
 0001:001388b0       ?var_gscalecubicsoft@@YAXPAUident@@@Z 005398b0 f   renderlights.obj
 0001:001388d0       ?var_gscalenearest@@YAXPAUident@@@Z 005398d0 f   renderlights.obj
 0001:001388e0       ?var_gscalecubic@@YAXPAUident@@@Z 005398e0 f   renderlights.obj
 0001:001388f0       ?var_gscale@@YAXPAUident@@@Z 005398f0 f   renderlights.obj
 0001:00138900       ?var_hdrgamma@@YAXPAUident@@@Z 00539900 f   renderlights.obj
 0001:00138920       ?var_hdrprec@@YAXPAUident@@@Z 00539920 f   renderlights.obj
 0001:00138930       ?var_bloomprec@@YAXPAUident@@@Z 00539930 f   renderlights.obj
 0001:00138940       ?var_bloomsize@@YAXPAUident@@@Z 00539940 f   renderlights.obj
 0001:00138950       ?resolvemsaacolor@@YAXHH@Z 00539950 f   renderlights.obj
 0001:00138a20       ?resolvemsaadepth@@YAXHH@Z 00539a20 f   renderlights.obj
 0001:00138ca0       ?setupmsbuffer@@YAXHH@Z    00539ca0 f   renderlights.obj
 0001:00139520       ?bindmsdepth@@YAXXZ        0053a520 f   renderlights.obj
 0001:001395d0       ?cleanupmsbuffer@@YAXXZ    0053a5d0 f   renderlights.obj
 0001:00139730       ?maskgbuffer@@YAXPBD@Z     0053a730 f   renderlights.obj
 0001:001397c0       ?run@?$_icmd_usepacknorm@$0CBL@@@SAXXZ 0053a7c0 f   renderlights.obj
 0001:00139810       ?usepacknorm@@YA_NXZ       0053a810 f   renderlights.obj
 0001:00139840       ?var_forcepacknorm@@YAXPAUident@@@Z 0053a840 f   renderlights.obj
 0001:00139860       ?initgbuffer@@YAXXZ        0053a860 f   renderlights.obj
 0001:00139ad0       ?checkmsaasamples@@YAXXZ   0053aad0 f   renderlights.obj
 0001:00139b40       ?var_msaapreserve@@YAXPAUident@@@Z 0053ab40 f   renderlights.obj
 0001:00139b60       ?var_msaatonemapblit@@YAXPAUident@@@Z 0053ab60 f   renderlights.obj
 0001:00139b70       ?var_msaatonemap@@YAXPAUident@@@Z 0053ab70 f   renderlights.obj
 0001:00139b80       ?var_msaalineardepth@@YAXPAUident@@@Z 0053ab80 f   renderlights.obj
 0001:00139ba0       ?var_msaaedgedetect@@YAXPAUident@@@Z 0053aba0 f   renderlights.obj
 0001:00139bb0       ?var_msaastencil@@YAXPAUident@@@Z 0053abb0 f   renderlights.obj
 0001:00139bd0       ?var_msaadepthstencil@@YAXPAUident@@@Z 0053abd0 f   renderlights.obj
 0001:00139bf0       ?var_msaa@@YAXPAUident@@@Z 0053abf0 f   renderlights.obj
 0001:00139c10       ?var_gdepthstencil@@YAXPAUident@@@Z 0053ac10 f   renderlights.obj
 0001:00139c30       ?var_gstencil@@YAXPAUident@@@Z 0053ac30 f   renderlights.obj
 0001:00139c50       ?var_glineardepth@@YAXPAUident@@@Z 0053ac50 f   renderlights.obj
 0001:00139c70       ?setupscale@@YAXHHHH@Z     0053ac70 f   renderlights.obj
 0001:00139e40       ?cleanupscale@@YAXXZ       0053ae40 f   renderlights.obj
 0001:00139eb0       ?viewao@@YAXXZ             0053aeb0 f   renderlights.obj
 0001:0013a020       ?initao@@YAXXZ             0053b020 f   renderlights.obj
 0001:0013a050       ?var_aoderivnormal@@YAXPAUident@@@Z 0053b050 f   renderlights.obj
 0001:0013a060       ?var_aotaps@@YAXPAUident@@@Z 0053b060 f   renderlights.obj
 0001:0013a070       ?var_aopackdepth@@YAXPAUident@@@Z 0053b070 f   renderlights.obj
 0001:0013a080       ?var_aobilateralupscale@@YAXPAUident@@@Z 0053b080 f   renderlights.obj
 0001:0013a090       ?var_aobilateral@@YAXPAUident@@@Z 0053b090 f   renderlights.obj
 0001:0013a0a0       ?var_aonoise@@YAXPAUident@@@Z 0053b0a0 f   renderlights.obj
 0001:0013a0b0       ?var_aoprec@@YAXPAUident@@@Z 0053b0b0 f   renderlights.obj
 0001:0013a0c0       ?var_aofloatdepth@@YAXPAUident@@@Z 0053b0c0 f   renderlights.obj
 0001:0013a0e0       ?var_aoreducedepth@@YAXPAUident@@@Z 0053b0e0 f   renderlights.obj
 0001:0013a0f0       ?var_aoreduce@@YAXPAUident@@@Z 0053b0f0 f   renderlights.obj
 0001:0013a100       ?var_aosun@@YAXPAUident@@@Z 0053b100 f   renderlights.obj
 0001:0013a130       ?var_ao@@YAXPAUident@@@Z   0053b130 f   renderlights.obj
 0001:0013a160       ?cleanupao@@YAXXZ          0053b160 f   renderlights.obj
 0001:0013a200       ?setupao@@YAXHH@Z          0053b200 f   renderlights.obj
 0001:0013aa00       ?clearaoshaders@@YAXXZ     0053ba00 f   renderlights.obj
 0001:0013aa10       ?loadaoshaders@@YAXXZ      0053ba10 f   renderlights.obj
 0001:0013aab0       ?loadambientobscuranceshader@@YAPAUShader@@XZ 0053bab0 f   renderlights.obj
 0001:0013ab50       ?setbilateralshader@@YAXHHM@Z 0053bb50 f   renderlights.obj
 0001:0013abc0       ?setbilateralparams@@YAXHM@Z 0053bbc0 f   renderlights.obj
 0001:0013af80       ?clearbilateralshaders@@YAXXZ 0053bf80 f   renderlights.obj
 0001:0013afa0       ?loadbilateralshaders@@YAXXZ 0053bfa0 f   renderlights.obj
 0001:0013b0c0       ?loadbilateralshader@@YAPAUShader@@H@Z 0053c0c0 f   renderlights.obj
 0001:0013b1d0       ?cleanupbloom@@YAXXZ       0053c1d0 f   renderlights.obj
 0001:0013b260       ?setupbloom@@YAXHH@Z       0053c260 f   renderlights.obj
 0001:0013b9f0       ?gethdrformat@@YAHHH@Z     0053c9f0 f   renderlights.obj
 0001:0013ba30       ?enableavatarmask@@YAXXZ   0053ca30 f   renderlights.obj
 0001:0013baa0       ?disableavatarmask@@YAXXZ  0053caa0 f   renderlights.obj
 0001:0013bac0       ?rendergbuffer@@YAX_N@Z    0053cac0 f   renderlights.obj
 0001:0013bdb0       ?rendershadowatlas@@YAXXZ  0053cdb0 f   renderlights.obj
 0001:0013c120       ?shademinimap@@YAXABUvec@@@Z 0053d120 f   renderlights.obj
 0001:0013c220       ?copyhdr@@YAXHHIHH_N00@Z   0053d220 f   renderlights.obj
 0001:0013c610       ?preparegbuffer@@YAX_N@Z   0053d610 f   renderlights.obj
 0001:0013d350       ?shadesky@@YAXXZ           0053e350 f   renderlights.obj
 0001:0013d3c0       ?renderradiancehints@@YAXXZ 0053e3c0 f   renderlights.obj
 0001:0013dbb0       ?shadegbuffer@@YAXXZ       0053ebb0 f   renderlights.obj
 0001:0013df10       ?rendertransparent@@YAXXZ  0053ef10 f   renderlights.obj
 0001:0013f3c0       ?setupgbuffer@@YAXXZ       005403c0 f   renderlights.obj
 0001:0013fdd0       ?shademodelpreview@@YAXHHHH_N0@Z 00540dd0 f   renderlights.obj
 0001:00140360       ?shouldscale@@YAIXZ        00541360 f   renderlights.obj
 0001:00140370       ?renderao@@YAXXZ           00541370 f   renderlights.obj
 0001:00140f60       ?rendervolumetric@@YAXXZ   00541f60 f   renderlights.obj
 0001:001426e0       ?processhdr@@YAXIH@Z       005436e0 f   renderlights.obj
 0001:00144350       ?doscale@@YAXI@Z           00545350 f   renderlights.obj
 0001:001446f0       ?debuglights@@YA_NXZ       005456f0 f   renderlights.obj
 0001:00144ea0       ?setuplights@@YAXXZ        00545ea0 f   renderlights.obj
 0001:00145060       ?loadhdrshaders@@YAXH@Z    00546060 f   renderlights.obj
 0001:00145130       ?bindgdepth@@YAXXZ         00546130 f   renderlights.obj
 0001:001451e0       ?cleanupgbuffer@@YAXXZ     005461e0 f   renderlights.obj
 0001:001454c0       ?cleanupvolumetric@@YAXXZ  005464c0 f   renderlights.obj
 0001:00145550       ?cleardeferredlightshaders@@YAXXZ 00546550 f   renderlights.obj
 0001:00145580       ?clearshadowcache@@YAXXZ   00546580 f   renderlights.obj
 0001:001455d0       ?clearradiancehintscache@@YAXXZ 005465d0 f   renderlights.obj
 0001:00145610       ?loaddeferredlightshaders@@YAXXZ 00546610 f   renderlights.obj
 0001:00146720       ?loadskin@@YAXPBD0AAPAUTexture@@1@Z 00547720 f   rendermodel.obj
 0001:00146b60       ?run@?$_icmd_findanims@$0EEK@@@SAXPAD@Z 00547b60 f   rendermodel.obj
 0001:00146e60       ?matchanim@@YA_NPBD0@Z     00547e60 f   rendermodel.obj
 0001:00146ee0       ?rendermodel@@YAXPBDHABUvec@@MMMHPAUdynent@@PAUmodelattach@@HHMABUvec4@@@Z 00547ee0 f   rendermodel.obj
 0001:001474c0       ?rendermapmodel@@YAXHHABUvec@@MMMHHM@Z 005484c0 f   rendermodel.obj
 0001:00147850       ?endmodelquery@@YAXXZ      00548850 f   rendermodel.obj
 0001:00147a50       ?startmodelquery@@YAXPAUoccludequery@@@Z 00548a50 f   rendermodel.obj
 0001:00147a80       ?rendermapmodelbatches@@YAXXZ 00548a80 f   rendermodel.obj
 0001:001484a0       ?addbatchedmodel@@YAXPAUmodel@@AAUbatchedmodel@@H@Z 005494a0 f   rendermodel.obj
 0001:001485f0       ?modeloccluded@@YA_NABUvec@@M@Z 005495f0 f   rendermodel.obj
 0001:001486c0       ?clearmodel@@YAXPAD@Z      005496c0 f   rendermodel.obj
 0001:00148870       ?cleanupmodels@@YAXXZ      00549870 f   rendermodel.obj
 0001:001488b0       ?clear_models@@YAXXZ       005498b0 f   rendermodel.obj
 0001:001488f0       ?preloadmodel@@YAXPBD@Z    005498f0 f   rendermodel.obj
 0001:00148990       ?run@?$_icmd_mapmodelfind@$0BFG@@@SAXPAD@Z 00549990 f   rendermodel.obj
 0001:00148a00       ?run@?$_icmd_nummapmodels@$0BFF@@@SAXXZ 00549a00 f   rendermodel.obj
 0001:00148a20       ?run@?$_icmd_mapmodelloaded@$0BFE@@@SAXPAH@Z 00549a20 f   rendermodel.obj
 0001:00148a70       ?run@?$_icmd_mapmodelname@$0BFD@@@SAXPAH0@Z 00549a70 f   rendermodel.obj
 0001:00148ac0       ?run@?$_icmd_mmodel@$0BFA@@@SAXPAD@Z 00549ac0 f   rendermodel.obj
 0001:00148ad0       ?mapmodelname@@YAPBDH@Z    00549ad0 f   rendermodel.obj
 0001:00148af0       ?mapmodelreset@@YAXPAH@Z   00549af0 f   rendermodel.obj
 0001:00148b30       ?mapmodel@@YAXPAD@Z        00549b30 f   rendermodel.obj
 0001:00148c40       ?rdanimjoints@@YAXPAH@Z    00549c40 f   rendermodel.obj
 0001:00148d30       ?rdlimitrot@@YAXPAH0PAM1111@Z 00549d30 f   rendermodel.obj
 0001:00148f50       ?rdlimitdist@@YAXPAH0PAM1@Z 00549f50 f   rendermodel.obj
 0001:00149100       ?rdjoint@@YAXPAH0000@Z     0054a100 f   rendermodel.obj
 0001:001492d0       ?rdtri@@YAXPAH00@Z         0054a2d0 f   rendermodel.obj
 0001:00149480       ?rdeye@@YAXPAH@Z           0054a480 f   rendermodel.obj
 0001:00149570       ?rdvert@@YAXPAM000@Z       0054a570 f   rendermodel.obj
 0001:00149740       ?mdlname@@YAXXZ            0054a740 f   rendermodel.obj
 0001:00149770       ?mdlextendbb@@YAXPAM00@Z   0054a770 f   rendermodel.obj
 0001:001497d0       ?mdlbb@@YAXPAM00@Z         0054a7d0 f   rendermodel.obj
 0001:00149810       ?mdlalphashadow@@YAXPAH@Z  0054a810 f   rendermodel.obj
 0001:00149840       ?mdlshadow@@YAXPAH@Z       0054a840 f   rendermodel.obj
 0001:00149870       ?mdlroll@@YAXPAM@Z         0054a870 f   rendermodel.obj
 0001:001498a0       ?mdlpitch@@YAXPAM@Z        0054a8a0 f   rendermodel.obj
 0001:001498d0       ?mdlyaw@@YAXPAM@Z          0054a8d0 f   rendermodel.obj
 0001:00149900       ?mdltrans@@YAXPAM00@Z      0054a900 f   rendermodel.obj
 0001:00149960       ?mdlscale@@YAXPAM@Z        0054a960 f   rendermodel.obj
 0001:001499b0       ?mdlspin@@YAXPAM00@Z       0054a9b0 f   rendermodel.obj
 0001:001499f0       ?mdlshader@@YAXPAD@Z       0054a9f0 f   rendermodel.obj
 0001:00149a40       ?mdlfullbright@@YAXPAM@Z   0054aa40 f   rendermodel.obj
 0001:00149a70       ?mdlenvmap@@YAXPAM0PAD@Z   0054aa70 f   rendermodel.obj
 0001:00149ad0       ?mdlglow@@YAXPAM00@Z       0054aad0 f   rendermodel.obj
 0001:00149b50       ?mdldepthoffset@@YAXPAH@Z  0054ab50 f   rendermodel.obj
 0001:00149b80       ?mdldither@@YAXPAH@Z       0054ab80 f   rendermodel.obj
 0001:00149bb0       ?mdlalphatest@@YAXPAM@Z    0054abb0 f   rendermodel.obj
 0001:00149bf0       ?mdlgloss@@YAXPAH@Z        0054abf0 f   rendermodel.obj
 0001:00149c30       ?mdlspec@@YAXPAM@Z         0054ac30 f   rendermodel.obj
 0001:00149c80       ?mdltricollide@@YAXPAD@Z   0054ac80 f   rendermodel.obj
 0001:00149d30       ?mdlellipsecollide@@YAXPAH@Z 0054ad30 f   rendermodel.obj
 0001:00149d60       ?mdlcollide@@YAXPAH@Z      0054ad60 f   rendermodel.obj
 0001:00149db0       ?mdlcolor@@YAXPAM00@Z      0054adb0 f   rendermodel.obj
 0001:00149e10       ?mdlcullface@@YAXPAH@Z     0054ae10 f   rendermodel.obj
 0001:0014a1f0       ?buildhitdata@skelmeshgroup@skelmodel@@QAEXPBE@Z 0054b1f0 f   rendermodel.obj
 0001:0014a2f0       ?build@skelhitdata@@QAEXPAUskelmeshgroup@skelmodel@@PBE@Z 0054b2f0 f   rendermodel.obj
 0001:0014baa0       ?chooseid@skelhitdata@@QAEEPAUskelmeshgroup@skelmodel@@PAUskelmesh@3@ABUtri@3@PBE@Z 0054caa0 f   rendermodel.obj
 0001:0014bb90       ?intersect@skelmeshgroup@skelmodel@@QAEXPAUskelhitdata@@PAUpart@animmodel@@ABUskelcacheentry@2@ABUvec@@3@Z 0054cb90 f   rendermodel.obj
 0001:0014bd80       ?deletehitdata@skelmeshgroup@skelmodel@@QAEXXZ 0054cd80 f   rendermodel.obj
 0001:0014be40       ?cleanuphitdata@skelmeshgroup@skelmodel@@QAEXXZ 0054ce40 f   rendermodel.obj
 0001:0014beb0       ?triintersect@skelhitzone@@SA_NPAUskelmeshgroup@skelmodel@@PAUskin@animmodel@@PBUdualquat@@2HABUtri@skelbih@@ABUvec@@4@Z 0054ceb0 f   rendermodel.obj
 0001:0014c880       ??0skelbih@@QAE@PAUskelmeshgroup@skelmodel@@HPAUtri@0@@Z 0054d880 f   rendermodel.obj
 0001:0014cab0       ?build@skelbih@@QAEXPAUskelmeshgroup@skelmodel@@PAGHABUvec@@2@Z 0054dab0 f   rendermodel.obj
 0001:0014d410       ?intersect@skelbih@@QAEXPAUskelmeshgroup@skelmodel@@PAUskin@animmodel@@ABUvec@@2@Z 0054e410 f   rendermodel.obj
 0001:0014d5a0       ?triintersect@skelbih@@QAE_NPAUskelmeshgroup@skelmodel@@PAUskin@animmodel@@HABUvec@@2@Z 0054e5a0 f   rendermodel.obj
 0001:0014daa0       ?var_dbgcolmesh@@YAXPAUident@@@Z 0054eaa0 f   rendermodel.obj
 0001:0014dab0       ?cleanragdoll@@YAXPAUdynent@@@Z 0054eab0 f   rendermodel.obj
 0001:0014dad0       ?moveragdoll@@YAXPAUdynent@@@Z 0054ead0 f   rendermodel.obj
 0001:0014dc50       ?move@ragdolldata@@QAEXPAUdynent@@M@Z 0054ec50 f   rendermodel.obj
 0001:0014e400       ?constrain@ragdolldata@@QAEXXZ 0054f400 f   rendermodel.obj
 0001:0014e940       ?tryunstick@ragdolldata@@QAEXM@Z 0054f940 f   rendermodel.obj
 0001:0014ec40       ?applyrotfriction@ragdolldata@@QAEXM@Z 0054fc40 f   rendermodel.obj
 0001:0014f2b0       ?calcrotfriction@ragdolldata@@QAEXXZ 005502b0 f   rendermodel.obj
 0001:0014f490       ?constrainrot@ragdolldata@@QAEXXZ 00550490 f   rendermodel.obj
 0001:0014fbf0       ?constraindist@ragdolldata@@QAEXXZ 00550bf0 f   rendermodel.obj
 0001:0014fe10       ?shadowmaskbatchedmodels@@YAX_N@Z 00550e10 f   rendermodel.obj
 0001:0014fe90       ?batcheddynamicmodelbounds@@YAHHAAUvec@@0@Z 00550e90 f   rendermodel.obj
 0001:00150100       ?rendershadowmodelbatches@@YAX_N@Z 00551100 f   rendermodel.obj
 0001:00150270       ?clearbatchedmapmodels@@YAXXZ 00551270 f   rendermodel.obj
 0001:001502a0       ?batcheddynamicmodels@@YAHXZ 005512a0 f   rendermodel.obj
 0001:00150340       ?rendertransparentmodelbatches@@YAXH@Z 00551340 f   rendermodel.obj
 0001:001507d0       ?resetmodelbatches@@YAXXZ  005517d0 f   rendermodel.obj
 0001:001507f0       ?rendermodelbatches@@YAXXZ 005517f0 f   rendermodel.obj
 0001:00151310       ?preloadusedmapmodels@@YAX_N0@Z 00552310 f   rendermodel.obj
 0001:001516b0       ?flushpreloadedmodels@@YAX_N@Z 005526b0 f   rendermodel.obj
 0001:00151780       ?loadmodel@@YAPAUmodel@@PBDH_N@Z 00552780 f   rendermodel.obj
 0001:00152320       ?updateparticles@@YAXXZ    00553320 f   renderparticles.obj
 0001:00153c80       ?particle_fireball@@YAXABUvec@@MHHHM@Z 00554c80 f   renderparticles.obj
 0001:00153d00       ?particle_flare@@YAXABUvec@@0HHHMPAUphysent@@@Z 00554d00 f   renderparticles.obj
 0001:00153d40       ?particle_icon@@YAXABUvec@@HHHHHMH@Z 00554d40 f   renderparticles.obj
 0001:00153da0       ?particle_textcopy@@YAXABUvec@@PBDHHHMH@Z 00554da0 f   renderparticles.obj
 0001:00153e80       ?particle_text@@YAXABUvec@@PBDHHHMH@Z 00554e80 f   renderparticles.obj
 0001:00153f40       ?particle_splash@@YAXHHHABUvec@@HMHH@Z 00554f40 f   renderparticles.obj
 0001:00153f80       ?regular_particle_splash@@YAXHHHABUvec@@HMHHH@Z 00554f80 f   renderparticles.obj
 0001:00153fd0       ?canaddparticles@@YA_NXZ   00554fd0 f   renderparticles.obj
 0001:00154320       ?removetrackedparticles@@YAXPAUphysent@@@Z 00555320 f   renderparticles.obj
 0001:00154350       ?cleanupparticles@@YAXXZ   00555350 f   renderparticles.obj
 0001:00154370       ?initparticles@@YAXXZ      00555370 f   renderparticles.obj
 0001:001544e0       ?var_fewparticles@@YAXPAUident@@@Z 005554e0 f   renderparticles.obj
 0001:001544f0       ?var_maxparticles@@YAXPAUident@@@Z 005554f0 f   renderparticles.obj
 0001:00154f60       ?disable@sphere@@YAXXZ     00555f60 f   renderparticles.obj
 0001:00154f90       ?draw@sphere@@YAXXZ        00555f90 f   renderparticles.obj
 0001:00154fd0       ?enable@sphere@@YAXXZ      00555fd0 f   renderparticles.obj
 0001:00155090       ?cleanup@sphere@@YAXXZ     00556090 f   renderparticles.obj
 0001:001550e0       ?init@sphere@@YAXHH@Z      005560e0 f   renderparticles.obj
 0001:00155c80       ?addparticleemitters@@YAXXZ 00556c80 f   renderparticles.obj
 0001:00155e50       ?renderparticles@@YAXH@Z   00556e50 f   renderparticles.obj
 0001:00156440       ?debugparticles@@YAXXZ     00557440 f   renderparticles.obj
 0001:00156560       ?clearparticleemitters@@YAXXZ 00557560 f   renderparticles.obj
 0001:00156580       ?printparticles@@YA_NAAUextentity@@PADH@Z 00557580 f   renderparticles.obj
 0001:00156690       ?clearparticles@@YAXXZ     00557690 f   renderparticles.obj
 0001:001566c0       ?seedparticles@@YAXXZ      005576c0 f   renderparticles.obj
 0001:00157230       ?hasskybox@@YA_NXZ         00558230 f   rendersky.obj
 0001:00157280       ?var_skyshadow@@YAXPAUident@@@Z 00558280 f   rendersky.obj
 0001:001583d0       ?var_atmosundisk@@YAXPAUident@@@Z 005593d0 f   rendersky.obj
 0001:00158410       ?var_atmosunlight@@YAXPAUident@@@Z 00559410 f   rendersky.obj
 0001:00158450       ?cleanupsky@@YAXXZ         00559450 f   rendersky.obj
 0001:00158750       ?draw@fogdome@@YAXXZ       00559750 f   rendersky.obj
 0001:001589d0       ?cleanup@fogdome@@YAXXZ    005599d0 f   rendersky.obj
 0001:00159110       ?subdivide@fogdome@@YAXHH@Z 0055a110 f   rendersky.obj
 0001:00159300       ?genface@fogdome@@YAXHHHH@Z 0055a300 f   rendersky.obj
 0001:00159340       ?var_fogdomecolour@@YAXPAUident@@@Z 0055a340 f   rendersky.obj
 0001:00159370       ?drawenvoverlay@@YAXPAUTexture@@MM@Z 0055a370 f   rendersky.obj
 0001:00159890       ?drawenvbox@@YAXPAPAUTexture@@MMH@Z 0055a890 f   rendersky.obj
 0001:00159bb0       ?drawenvboxface@@YAXMMHHHMMHHHMMHHHMMHHHPAUTexture@@@Z 0055abb0 f   rendersky.obj
 0001:00159e60       ?var_cloudcolour@@YAXPAUident@@@Z 0055ae60 f   rendersky.obj
 0001:00159e90       ?var_cloudlayer@@YAXPAUident@@@Z 0055ae90 f   rendersky.obj
 0001:00159fb0       ?var_cloudboxcolour@@YAXPAUident@@@Z 0055afb0 f   rendersky.obj
 0001:00159fe0       ?var_cloudbox@@YAXPAUident@@@Z 0055afe0 f   rendersky.obj
 0001:0015a000       ?var_skyboxcolour@@YAXPAUident@@@Z 0055b000 f   rendersky.obj
 0001:0015a030       ?var_skybox@@YAXPAUident@@@Z 0055b030 f   rendersky.obj
 0001:0015a050       ?loadskyoverlay@@YAPAUTexture@@PBD@Z 0055b050 f   rendersky.obj
 0001:0015a160       ?loadsky@@YAXPBDQAPAUTexture@@@Z 0055b160 f   rendersky.obj
 0001:0015a3a0       ?drawskybox@@YAX_N@Z       0055b3a0 f   rendersky.obj
 0001:0015b000       ?limitsky@@YA_NXZ          0055c000 f   rendersky.obj
 0001:0015b280       ?reloadfonts@@YAXXZ        0055c280 f   rendertext.obj
 0001:0015b2f0       ?text_boundsf@@YAXPBDAAM1H@Z 0055c2f0 f   rendertext.obj
 0001:0015b4d0       ?text_posf@@YAXPBDHAAM1H@Z 0055c4d0 f   rendertext.obj
 0001:0015b740       ?text_visible@@YAHPBDMMH@Z 0055c740 f   rendertext.obj
 0001:0015c3b0       ?tabify@@YAXPBDPAH@Z       0055d3b0 f   rendertext.obj
 0001:0015c4a0       ?findfont@@YAPAUfont@@PBD@Z 0055d4a0 f   rendertext.obj
 0001:0015c4b0       ?fontalias@@YAXPBD0@Z      0055d4b0 f   rendertext.obj
 0001:0015c720       ?fontskip@@YAXPAH@Z        0055d720 f   rendertext.obj
 0001:0015c7c0       ?fontchar@@YAXPAM000000@Z  0055d7c0 f   rendertext.obj
 0001:0015c890       ?fonttex@@YAXPAD@Z         0055d890 f   rendertext.obj
 0001:0015c900       ?fontscale@@YAXPAH@Z       0055d900 f   rendertext.obj
 0001:0015c920       ?fontoffset@@YAXPAD@Z      0055d920 f   rendertext.obj
 0001:0015c940       ?fontoutline@@YAXPAM0@Z    0055d940 f   rendertext.obj
 0001:0015c970       ?fontborder@@YAXPAM0@Z     0055d970 f   rendertext.obj
 0001:0015c9a0       ?newfont@@YAXPAD0PAH11@Z   0055d9a0 f   rendertext.obj
 0001:0015cb10       ?text_widthf@@YAMPBD@Z     0055db10 f   rendertext.obj
 0001:0015cb30       ?draw_textf@@YAXPBDMMZZ    0055db30 f   rendertext.obj
 0001:0015cbb0       ?gettextres@@YAXAAH0@Z     0055dbb0 f   rendertext.obj
 0001:0015cc00       ?pushfont@@YAXXZ           0055dc00 f   rendertext.obj
 0001:0015ccf0       ?setfont@@YA_NPBD@Z        0055dcf0 f   rendertext.obj
 0001:0015cd10       ?draw_text@@YAXPBDMMHHHHHH@Z 0055dd10 f   rendertext.obj
 0001:0015d370       ?popfont@@YA_NXZ           0055e370 f   rendertext.obj
 0001:0015e7b0       ?var_smmesh@@YAXPAUident@@@Z 0055f7b0 f   renderva.obj
 0001:00160740       ?cleanupdecals@@YAXAAUdecalrenderer@@@Z 00561740 f   renderva.obj
 0001:001607d0       ?setupdecals@@YAXAAUdecalrenderer@@@Z 005617d0 f   renderva.obj
 0001:00161890       ?var_explicitskycolour@@YAXPAUident@@@Z 00562890 f   renderva.obj
 0001:001618c0       ?cleanupgeom@@YAXAAUrenderstate@@@Z 005628c0 f   renderva.obj
 0001:00161920       ?setupgeom@@YAXAAUrenderstate@@@Z 00562920 f   renderva.obj
 0001:00161a60       ?cleanupva@@YAXXZ          00562a60 f   renderva.obj
 0001:00161af0       ?renderva@@YAXAAUrenderstate@@PAUvtxarray@@H_N@Z 00562af0 f   renderva.obj
 0001:00161de0       ?renderzpass@@YAXAAUrenderstate@@PAUvtxarray@@@Z 00562de0 f   renderva.obj
 0001:00163c00       ?findspotshadowvas@@YAXAAU?$vector@PAUvtxarray@@@@_N@Z 00564c00 f   renderva.obj
 0001:00164000       ?findrsmshadowvas@@YAXAAU?$vector@PAUvtxarray@@@@@Z 00565000 f   renderva.obj
 0001:00164190       ?findcsmshadowvas@@YAXAAU?$vector@PAUvtxarray@@@@_N@Z 00565190 f   renderva.obj
 0001:00164420       ?findshadowvas@@YAXAAU?$vector@PAUvtxarray@@@@_N@Z 00565420 f   renderva.obj
 0001:001647e0       ?sortshadowvas@@YAXXZ      005657e0 f   renderva.obj
 0001:00164880       ?calctrisidemask@@YAHABUvec@@00M@Z 00565880 f   renderva.obj
 0001:00164d00       ?calcbbsidemask@@YAHABUivec@@0ABUvec@@MM@Z 00565d00 f   renderva.obj
 0001:00165090       ?var_blendbrushcolour@@YAXPAUident@@@Z 00566090 f   renderva.obj
 0001:001650c0       ?var_outlinecolour@@YAXPAUident@@@Z 005660c0 f   renderva.obj
 0001:00165320       ?findvisiblemms@@YAXABU?$vector@PAUextentity@@@@_N@Z 00566320 f   renderva.obj
 0001:001658f0       ?var_oqany@@YAXPAUident@@@Z 005668f0 f   renderva.obj
 0001:00165900       ?clearqueries@@YAXXZ       00566900 f   renderva.obj
 0001:00165960       ?setvfcP@@YAXABUvec@@0@Z   00566960 f   renderva.obj
 0001:00165db0       ?calcvfcD@@YAXXZ           00566db0 f   renderva.obj
 0001:00165e60       ?findvisiblevas@@YAXXZ     00566e60 f   renderva.obj
 0001:00165ec0       ?sortvisiblevas@@YAXXZ     00566ec0 f   renderva.obj
 0001:00166100       ?isvisiblecube@@YAHABUivec@@H@Z 00567100 f   renderva.obj
 0001:00166330       ?isvisiblebb@@YAHABUivec@@0@Z 00567330 f   renderva.obj
 0001:00166480       ?bboccluded@@YA_NABUivec@@0@Z 00567480 f   renderva.obj
 0001:001666a0       ?calcspheresidemask@@YAHABUvec@@MM@Z 005676a0 f   renderva.obj
 0001:00166830       ?checkquery@@YA_NPAUoccludequery@@_N@Z 00567830 f   renderva.obj
 0001:001668b0       ?clearshadowmeshes@@YAXXZ  005678b0 f   renderva.obj
 0001:00166990       ?newquery@@YAPAUoccludequery@@PAX@Z 00567990 f   renderva.obj
 0001:00166a10       ?startbb@@YAX_N@Z          00567a10 f   renderva.obj
 0001:00166b50       ?startquery@@YAXPAUoccludequery@@@Z 00567b50 f   renderva.obj
 0001:00166ba0       ?drawbb@@YAXABUivec@@0@Z   00567ba0 f   renderva.obj
 0001:00166f50       ?endquery@@YAXPAUoccludequery@@@Z 00567f50 f   renderva.obj
 0001:00166fa0       ?endbb@@YAX_N@Z            00567fa0 f   renderva.obj
 0001:00166ff0       ?findshadowvas@@YAX_N@Z    00567ff0 f   renderva.obj
 0001:001670b0       ?findshadowmms@@YAXXZ      005680b0 f   renderva.obj
 0001:00167450       ?batchshadowmapmodels@@YAX_N@Z 00568450 f   renderva.obj
 0001:00167560       ?dynamicshadowvabounds@@YAHHAAUvec@@0@Z 00568560 f   renderva.obj
 0001:00167630       ?renderrsmgeom@@YAX_N@Z    00568630 f   renderva.obj
 0001:00167a20       ?renderalphashadow@@YAX_N@Z 00568a20 f   renderva.obj
 0001:00167bb0       ?rendershadowmapworld@@YAXXZ 00568bb0 f   renderva.obj
 0001:00167e90       ?cullfrustumsides@@YAHABUvec@@MMM@Z 00568e90 f   renderva.obj
 0001:00168570       ?findshadowmesh@@YAPAUshadowmesh@@HAAUextentity@@@Z 00569570 f   renderva.obj
 0001:00168640       ?dynamicshadowvas@@YAHXZ   00569640 f   renderva.obj
 0001:00168670       ?rendershadowmesh@@YAXPAUshadowmesh@@@Z 00569670 f   renderva.obj
 0001:00168830       ?findalphavas@@YAHXZ       00569830 f   renderva.obj
 0001:00168d80       ?renderrefractmask@@YAXXZ  00569d80 f   renderva.obj
 0001:00168eb0       ?renderalphageom@@YAXH@Z   00569eb0 f   renderva.obj
 0001:00168ff0       ?rendergeom@@YAXXZ         00569ff0 f   renderva.obj
 0001:001698a0       ?renderdecals@@YAXXZ       0056a8a0 f   renderva.obj
 0001:00169da0       ?rendermapmodels@@YAXXZ    0056ada0 f   renderva.obj
 0001:0016a2a0       ?flipqueries@@YAXXZ        0056b2a0 f   renderva.obj
 0001:0016a340       ?visiblecubes@@YAX_N@Z     0056b340 f   renderva.obj
 0001:0016a490       ?renderexplicitsky@@YA_N_N@Z 0056b490 f   renderva.obj
 0001:0016a890       ?renderoutline@@YAXXZ      0056b890 f   renderva.obj
 0001:0016abf0       ?isfoggedsphere@@YA_NMABUvec@@@Z 0056bbf0 f   renderva.obj
 0001:0016ac90       ?resetqueries@@YAXXZ       0056bc90 f   renderva.obj
 0001:0016acc0       ?genshadowmeshes@@YAXXZ    0056bcc0 f   renderva.obj
 0001:0016ad20       ?isvisiblesphere@@YAHMABUvec@@@Z 0056bd20 f   renderva.obj
 0001:0016ada0       ?getnumqueries@@YAHXZ      0056bda0 f   renderva.obj
 0001:0016adc0       ?renderblendbrush@@YAXIMMMM@Z 0056bdc0 f   renderva.obj
 0001:0016b2d0       ?resetshaders@@YAXXZ       0056c2d0 f   shader.obj
 0001:0016b330       ?reloadshaders@@YAXXZ      0056c330 f   shader.obj
 0001:0016b470       ?cleanupshaders@@YAXXZ     0056c470 f   shader.obj
 0001:0016b500       ?run@?$_icmd_setpostfx@$0FOO@@@SAXPADPAM111@Z 0056c500 f   shader.obj
 0001:0016b580       ?run@?$_icmd_addpostfx@$0FOI@@@SAXPADPAH10PAM222@Z 0056c580 f   shader.obj
 0001:0016b670       ?clearpostfx@@YAXXZ        0056c670 f   shader.obj
 0001:0016ba10       ?run@?$_icmd_reuseuniformparam@$0FDD@@@SAXPADPAM111@Z 0056ca10 f   shader.obj
 0001:0016ba50       ?run@?$_icmd_defuniformparam@$0FDC@@@SAXPADPAM111@Z 0056ca50 f   shader.obj
 0001:0016ba90       ?run@?$_icmd_setshaderparam@$0FDB@@@SAXPADPAM111@Z 0056ca90 f   shader.obj
 0001:0016bad0       ?run@?$_icmd_setuniformparam@$0FDA@@@SAXPADPAM111@Z 0056cad0 f   shader.obj
 0001:0016bb10       ?addslotparam@@YAXPBDMMMMH@Z 0056cb10 f   shader.obj
 0001:0016bc10       ?run@?$_icmd_isshaderdefined@$0FBB@@@SAXPAD@Z 0056cc10 f   shader.obj
 0001:0016bc50       ?run@?$_icmd_dumpshader@$0FAP@@@SAXPBDPAH1@Z 0056cc50 f   shader.obj
 0001:0016bce0       ?linkvslotshader@@YAXAAUVSlot@@_N@Z 0056cce0 f   shader.obj
 0001:0016be00       ?linkslotshader@@YAXAAUSlot@@_N@Z 0056ce00 f   shader.obj
 0001:0016bf20       ?setslotshader@@YAXAAUSlot@@@Z 0056cf20 f   shader.obj
 0001:0016bfb0       ?resetslotshader@@YAXXZ    0056cfb0 f   shader.obj
 0001:0016bfd0       ?setshader@@YAXPAD@Z       0056cfd0 f   shader.obj
 0001:0016c080       ?variantshader@@YAXPAHPAD0110@Z 0056d080 f   shader.obj
 0001:0016c3a0       ?shader@@YAXPAHPAD11@Z     0056d3a0 f   shader.obj
 0001:0016c6a0       ?run@?$_icmd_forceshader@$0EGJ@@@SAXPBD@Z 0056d6a0 f   shader.obj
 0001:0016c6e0       ?force@Shader@@QAEXXZ      0056d6e0 f   shader.obj
 0001:0016c7b0       ?defershader@@YAXPAHPBD1@Z 0056d7b0 f   shader.obj
 0001:0016d390       ?newshader@@YAPAUShader@@HPBD00PAU1@H@Z 0056e390 f   shader.obj
 0001:0016e360       ?cleanup@Shader@@QAEX_N@Z  0056f360 f   shader.obj
 0001:0016e4c0       ?compile@Shader@@QAE_NXZ   0056f4c0 f   shader.obj
 0001:0016ef80       ?findfragdatalocs@@YAXAAUShader@@PAD@Z 0056ff80 f   shader.obj
 0001:00170180       ?loadshaders@@YAXXZ        00571180 f   shader.obj
 0001:00170300       ?setslotparams@Shader@@QAEXAAUSlot@@AAUVSlot@@@Z 00571300 f   shader.obj
 0001:00170df0       ?setslotparams@Shader@@QAEXAAUSlot@@@Z 00571df0 f   shader.obj
 0001:00171250       ?uniformlocversion@Shader@@SAHXZ 00572250 f   shader.obj
 0001:001712d0       ?setupblurkernel@@YAXHPAM0@Z 005722d0 f   shader.obj
 0001:00171820       ?setblurshader@@YAXHHHPAM0I@Z 00572820 f   shader.obj
 0001:00171aa0       ?cleanuppostfx@@YAX_N@Z    00572aa0 f   shader.obj
 0001:00171b30       ?setupshaders@@YAXXZ       00572b30 f   shader.obj
 0001:00171cc0       ?setuppostfx@@YAIHHI@Z     00572cc0 f   shader.obj
 0001:00171dd0       ?renderpostfx@@YAXI@Z      00572dd0 f   shader.obj
 0001:00172290       ?getlocalparam@@YAHPBD@Z   00573290 f   shader.obj
 0001:00172330       ?generateshader@@YAPAUShader@@PBD0ZZ 00573330 f   shader.obj
 0001:00172400       ?shouldreuseparams@@YA_NAAUSlot@@AAUVSlot@@@Z 00573400 f   shader.obj
 0001:001724b0       ?allocparams@Shader@@QAEXPAUSlot@@@Z 005734b0 f   shader.obj
 0001:001724c0       ?bindprograms@Shader@@QAEXXZ 005734c0 f   shader.obj
 0001:001724f0       ?isnull@Shader@@SA_NPBU1@@Z 005734f0 f   shader.obj
 0001:00172500       ?useshaderbyname@@YAPAUShader@@PBD@Z 00573500 f   shader.obj
 0001:00172540       ?lookupshaderbyname@@YAPAUShader@@PBD@Z 00573540 f   shader.obj
 0001:00172560       ?getshaderparamname@@YAPBDPBD_N@Z 00573560 f   shader.obj
 0001:00172610       ?resetversions@GlobalShaderParamState@@QAEXXZ 00573610 f   shader.obj
 0001:00172730       ?getglobalparam@@YAPAUGlobalShaderParamState@@PBD@Z 00573730 f   shader.obj
 0001:001753b0       ?removealphachannel@@YAXPAD0@Z 005763b0 f   texture.obj
 0001:00175560       ?normalizenormalmap@@YAXPAD0@Z 00576560 f   texture.obj
 0001:001757b0       ?mergenormalmaps@@YAXPAD0@Z 005767b0 f   texture.obj
 0001:00175b30       ?flipnormalmapy@@YAXPAD0@Z 00576b30 f   texture.obj
 0001:00175cf0       ?screenshot@@YAXPAD@Z      00576cf0 f   texture.obj
 0001:001761f0       ?saveimage@@YAXPBDHAAUImageData@@_N@Z 005771f0 f   texture.obj
 0001:00176560       ?guessimageformat@@YAHPBDH@Z 00577560 f   texture.obj
 0001:001765d0       ?savetga@@YAXPBDAAUImageData@@_N@Z 005775d0 f   texture.obj
 0001:001768b0       ?writepngchunk@@YAXPAUstream@@PBDPAEI@Z 005778b0 f   texture.obj
 0001:00176930       ?gendds@@YAXPAD0@Z         00577930 f   texture.obj
 0001:00176f10       ?loaddds@@YA_NPBDAAUImageData@@H@Z 00577f10 f   texture.obj
 0001:001788c0       ?reloadtextures@@YAXXZ     005798c0 f   texture.obj
 0001:00178930       ?reloadtex@@YAXPAD@Z       00579930 f   texture.obj
 0001:00178a60       ?reloadtexture@@YA_NPBD@Z  00579a60 f   texture.obj
 0001:00178ad0       ?cleanuptextures@@YAXXZ    00579ad0 f   texture.obj
 0001:00178ce0       ?cleanuptexture@@YAXPAUTexture@@@Z 00579ce0 f   texture.obj
 0001:00178dc0       ?lookupenvmap@@YAIAAUSlot@@@Z 00579dc0 f   texture.obj
 0001:00178e30       ?genenvmap@@YAIABUvec@@HH_N@Z 00579e30 f   texture.obj
 0001:00179550       ?clearenvmaps@@YAXXZ       0057a550 f   texture.obj
 0001:001795b0       ?cubemaploadwildcard@@YAPAUTexture@@PAU1@PBD_N22@Z 0057a5b0 f   texture.obj
 0001:00179f00       ?var_envmapsize@@YAXPAUident@@@Z 0057af00 f   texture.obj
 0001:00179f10       ?loadthumbnail@Slot@@QAEPAUTexture@@XZ 0057af10 f   texture.obj
 0001:0017ad40       ?load@Slot@@QAEXXZ         0057bd40 f   texture.obj
 0001:0017ae70       ?load@Slot@@QAEXHAAUTex@1@@Z 0057be70 f   texture.obj
 0001:0017b980       ?shouldpremul@DecalSlot@@UBE_NH@Z 0057c980 f   texture.obj
 0001:0017b990       ?cancombine@DecalSlot@@UBEHH@Z 0057c990 f   texture.obj
 0001:0017b9d0       ?cancombine@Slot@@UBEHH@Z  0057c9d0 f   texture.obj
 0001:0017ba10       ?findtextype@Slot@@QBEHHH@Z 0057ca10 f   texture.obj
 0001:0017d0a0       ?decaldepth@@YAXPAM0@Z     0057e0a0 f   texture.obj
 0001:0017d100       ?texsmooth@@YAXPAH0@Z      0057e100 f   texture.obj
 0001:0017d130       ?texrefract@@YAXPAM000@Z   0057e130 f   texture.obj
 0001:0017d200       ?texcolor@@YAXPAM00@Z      0057e200 f   texture.obj
 0001:0017d280       ?texalpha@@YAXPAM0@Z       0057e280 f   texture.obj
 0001:0017d2e0       ?texdetail@@YAXPAH@Z       0057e2e0 f   texture.obj
 0001:0017d320       ?texlayer@@YAXPAH@Z        0057e320 f   texture.obj
 0001:0017d360       ?texscale@@YAXPAM@Z        0057e360 f   texture.obj
 0001:0017d3a0       ?texrotate_@@YAXPAH@Z      0057e3a0 f   texture.obj
 0001:0017d3e0       ?texoffset_@@YAXPAH0@Z     0057e3e0 f   texture.obj
 0001:0017d430       ?texscroll@@YAXPAM0@Z      0057e430 f   texture.obj
 0001:0017d4a0       ?texgrass@@YAXPAD@Z        0057e4a0 f   texture.obj
 0001:0017d4f0       ?texture@@YAXPAD0PAH11PAM@Z 0057e4f0 f   texture.obj
 0001:0017dac0       ?findslottex@@YAHPBD@Z     0057eac0 f   texture.obj
 0001:0017db20       ?run@?$_icmd_fixinsidefaces@$0JBH@@@SAXPAH@Z 0057eb20 f   texture.obj
 0001:0017dd60       ?packvslot@@YAXAAU?$vector@E@@PBUVSlot@@@Z 0057ed60 f   texture.obj
 0001:0017ddb0       ?packvslot@@YAXAAU?$vector@E@@H@Z 0057edb0 f   texture.obj
 0001:0017dfe0       ?emptyvslot@Slot@@UAEAAUVSlot@@XZ 0057efe0 f   texture.obj
 0001:0017e810       ?run@?$_icmd_compactvslots@$0HKG@@@SAXPAH@Z 0057f810 f   texture.obj
 0001:0017e8f0       ?decalreset@@YAXPAH@Z      0057f8f0 f   texture.obj
 0001:0017e940       ?materialreset@@YAXXZ      0057f940 f   texture.obj
 0001:0017ea00       ?texturereset@@YAXPAH@Z    0057fa00 f   texture.obj
 0001:0017eb40       ?name@DecalSlot@@UBEPBDXZ  0057fb40 f   texture.obj
 0001:0017eb60       ?name@MatSlot@@UBEPBDXZ    0057fb60 f   texture.obj
 0001:0017ebb0       ??0MatSlot@@QAE@XZ         0057fbb0 f   texture.obj
 0001:0017ec80       ?name@Slot@@UBEPBDXZ       0057fc80 f   texture.obj
 0001:0017eca0       ?settexture@@YA_NPBDH@Z    0057fca0 f   texture.obj
 0001:00180290       ?loadsurface@@YAPAUSDL_Surface@@PBD@Z 00581290 f   texture.obj
 0001:00180460       ?canloadsurface@@YA_NPBD@Z 00581460 f   texture.obj
 0001:001804a0       ?texblur@@YAXAAUImageData@@HH@Z 005814a0 f   texture.obj
 0001:00180690       ?blurtexture@@YAXHHHHPAEPBEH@Z 00581690 f   texture.obj
 0001:00180750       ?texnormal@@YAXAAUImageData@@H@Z 00581750 f   texture.obj
 0001:001809d0       ?texflip@@YAXAAUImageData@@@Z 005819d0 f   texture.obj
 0001:00180af0       ?fixsurfaceformat@@YAPAUSDL_Surface@@PAU1@@Z 00581af0 f   texture.obj
 0001:00180c10       ?checkgrayscale@@YA_NPAUSDL_Surface@@@Z 00581c10 f   texture.obj
 0001:00180c70       ?creatergbasurface@@YAPAUSDL_Surface@@PAU1@@Z 00581c70 f   texture.obj
 0001:00180cd0       ?creatergbsurface@@YAPAUSDL_Surface@@PAU1@@Z 00581cd0 f   texture.obj
 0001:00180d20       ?wrapsurface@@YAPAUSDL_Surface@@PAXHHH@Z 00581d20 f   texture.obj
 0001:00181330       ?texalign@@YAHPBXHH@Z      00582330 f   texture.obj
 0001:00181420       ?createcompressedtexture@@YAXHHHPBEHHHHHII_N@Z 00582420 f   texture.obj
 0001:001819b0       ?setuptexparameters@@YAXHPBXHHII_N@Z 005829b0 f   texture.obj
 0001:00181b60       ?swizzlemask@@YAPBHI@Z     00582b60 f   texture.obj
 0001:00181b80       ?textarget@@YAII@Z         00582b80 f   texture.obj
 0001:00181bb0       ?uploadcompressedtexture@@YAXIIIHHPBEHHH_N1@Z 00582bb0 f   texture.obj
 0001:00181cc0       ?uploadtexture@@YAXHIIHHIIPBXHHH_N1@Z 00582cc0 f   texture.obj
 0001:001821e0       ?var_gpumipmap@@YAXPAUident@@@Z 005831e0 f   texture.obj
 0001:00182210       ?cleanupmipmaps@@YAXXZ     00583210 f   texture.obj
 0001:00182240       ?resizetexture@@YAXHH_N0IHAAH1@Z 00583240 f   texture.obj
 0001:001823a0       ?var_usenp2@@YAXPAUident@@@Z 005833a0 f   texture.obj
 0001:001823c0       ?sizedformat@@YAII@Z       005833c0 f   texture.obj
 0001:00182400       ?formatsize@@YAHI@Z        00583400 f   texture.obj
 0001:00182460       ?uncompressedformat@@YAII@Z 00583460 f   texture.obj
 0001:00182510       ?compressedformat@@YAIIHHH@Z 00583510 f   texture.obj
 0001:00182680       ?var_aniso@@YAXPAUident@@@Z 00583680 f   texture.obj
 0001:001826a0       ?var_bilinear@@YAXPAUident@@@Z 005836a0 f   texture.obj
 0001:001826c0       ?var_trilinear@@YAXPAUident@@@Z 005836c0 f   texture.obj
 0001:001826e0       ?var_texcompressquality@@YAXPAUident@@@Z 005836e0 f   texture.obj
 0001:00182730       ?var_texcompress@@YAXPAUident@@@Z 00583730 f   texture.obj
 0001:00182750       ?var_texreduce@@YAXPAUident@@@Z 00583750 f   texture.obj
 0001:00182770       ?var_reducefilter@@YAXPAUident@@@Z 00583770 f   texture.obj
 0001:00182790       ?var_maxtexsize@@YAXPAUident@@@Z 00583790 f   texture.obj
 0001:001827b0       ?texblend@@YAXAAUImageData@@00@Z 005837b0 f   texture.obj
 0001:00182cb0       ?texagrad@@YAXAAUImageData@@MMMM@Z 00583cb0 f   texture.obj
 0001:00182e50       ?texpremul@@YAXAAUImageData@@@Z 00583e50 f   texture.obj
 0001:00182f50       ?texgrey@@YAXAAUImageData@@@Z 00583f50 f   texture.obj
 0001:001830f0       ?texmix@@YAXAAUImageData@@HHHH@Z 005840f0 f   texture.obj
 0001:001832a0       ?texdup@@YAXAAUImageData@@HH@Z 005842a0 f   texture.obj
 0001:00183310       ?texcolormask@@YAXAAUImageData@@ABUvec@@1@Z 00584310 f   texture.obj
 0001:00183520       ?texcolorify@@YAXAAUImageData@@ABUvec@@U2@@Z 00584520 f   texture.obj
 0001:00183640       ?texmad@@YAXAAUImageData@@ABUvec@@1@Z 00584640 f   texture.obj
 0001:00183760       ?texcrop@@YAXAAUImageData@@HHHH@Z 00584760 f   texture.obj
 0001:001838e0       ?texoffset@@YAXAAUImageData@@HH@Z 005848e0 f   texture.obj
 0001:00183a50       ?texrotate@@YAXAAUImageData@@HH@Z 00584a50 f   texture.obj
 0001:00183a80       ?texreorient@@YAXAAUImageData@@_N11H@Z 00584a80 f   texture.obj
 0001:00183f20       ?scaleimage@@YAXAAUImageData@@HH@Z 00584f20 f   texture.obj
 0001:00184020       ?swizzleimage@@YAXAAUImageData@@@Z 00585020 f   texture.obj
 0001:00184290       ?forcergbimage@@YAXAAUImageData@@@Z 00585290 f   texture.obj
 0001:00185ab0       ?linkslotshaders@@YAXXZ    00586ab0 f   texture.obj
 0001:00185bf0       ?reloadtexture@@YA_NAAUTexture@@@Z 00586bf0 f   texture.obj
 0001:00186120       ?cubemapload@@YAPAUTexture@@PBD_N11@Z 00587120 f   texture.obj
 0001:00186230       ?floatformat@@YA_NI@Z      00587230 f   texture.obj
 0001:00186290       ?create3dtexture@@YAXHHHHPBXHHII_N@Z 00587290 f   texture.obj
 0001:001862f0       ?setuptexcompress@@YAXXZ   005872f0 f   texture.obj
 0001:00186340       ?lookupmaterialslot@@YAAAUMatSlot@@H_N@Z 00587340 f   texture.obj
 0001:00186390       ?lookupenvmap@@YAIG@Z      00587390 f   texture.obj
 0001:00186400       ?loadalphamask@@YAPAEPAUTexture@@@Z 00587400 f   texture.obj
 0001:00186580       ?compactvslots@@YAH_N@Z    00587580 f   texture.obj
 0001:00186b70       ?textureload@@YAPAUTexture@@PBDH_N1@Z 00587b70 f   texture.obj
 0001:00187080       ?clearslots@@YAXXZ         00588080 f   texture.obj
 0001:00187210       ?lookupdecalslot@@YAAAUDecalSlot@@H_N@Z 00588210 f   texture.obj
 0001:00187260       ?closestenvmap@@YAGABUvec@@@Z 00588260 f   texture.obj
 0001:00187420       ?closestenvmap@@YAGHABUivec@@H@Z 00588420 f   texture.obj
 0001:001874b0       ?initenvmaps@@YAXXZ        005884b0 f   texture.obj
 0001:00187700       ?genenvmaps@@YAXXZ         00588700 f   texture.obj
 0001:00187880       ?packvslot@@YAXAAU?$vector@E@@ABUVSlot@@@Z 00588880 f   texture.obj
 0001:00187dd0       ?lookupslot@@YAAAUSlot@@H_N@Z 00588dd0 f   texture.obj
 0001:00187e00       ?unpackvslot@@YA_NAAU?$databuf@E@@AAUVSlot@@_N@Z 00588e00 f   texture.obj
 0001:00188400       ?editvslot@@YAPAUVSlot@@ABU1@0@Z 00589400 f   texture.obj
 0001:00188520       ?compactvslot@@YAXAAH@Z    00589520 f   texture.obj
 0001:00188570       ?compactvslot@@YAXAAUVSlot@@@Z 00589570 f   texture.obj
 0001:00188590       ?compactvslots@@YAXPAUcube@@H@Z 00589590 f   texture.obj
 0001:00188680       ?mergevslot@@YAXAAUVSlot@@ABU1@1@Z 00589680 f   texture.obj
 0001:00188790       ?findvslot@@YAPAUVSlot@@AAUSlot@@ABU1@1@Z 00589790 f   texture.obj
 0001:001889e0       ?lookupvslot@@YAAAUVSlot@@H_N@Z 005899e0 f   texture.obj
 0001:00188a40       ?createtexture@@YAXHHHPBXHHIIHHH_NI1@Z 00589a40 f   texture.obj
 0001:00188c40       ?savepng@@YAXPBDAAUImageData@@_N@Z 00589c40 f   texture.obj
 0001:00189030       ?loadimage@@YA_NPBDAAUImageData@@@Z 0058a030 f   texture.obj
 0001:00189770       ?update@UI@@YAXXZ          0058a770 f   ui.obj
 0001:00189af0       ?calctextscale@UI@@YAXXZ   0058aaf0 f   ui.obj
 0001:00189bc0       ?cleanup@UI@@YAXXZ         0058abc0 f   ui.obj
 0001:00189c90       ?setup@UI@@YAXXZ           0058ac90 f   ui.obj
 0001:00189d00       ?textinput@UI@@YA_NPBDH@Z  0058ad00 f   ui.obj
 0001:00189d20       ?keypress@UI@@YA_NH_N@Z    0058ad20 f   ui.obj
 0001:00189e20       ?movecursor@UI@@YA_NHH@Z   0058ae20 f   ui.obj
 0001:00189eb0       ?run@?$_icmd_uivslotview@$0NII@@UI@@SAXPAHPAM1PAI@Z 0058aeb0 f   ui.obj
 0001:0018a0b0       ?run@?$_icmd_uislotview@$0NIF@@UI@@SAXPAHPAM1PAI@Z 0058b0b0 f   ui.obj
 0001:0018a2c0       ?run@?$_icmd_uiprefabpreview@$0NIC@@UI@@SAXPADPAHPAM2PAI@Z 0058b2c0 f   ui.obj
 0001:0018a5a0       ?run@?$_icmd_uiplayerpreview@$0NHP@@UI@@SAXPAH000PAM1PAI@Z 0058b5a0 f   ui.obj
 0001:0018a7b0       ?run@?$_icmd_uimodelpreview@$0NHM@@UI@@SAXPAD0PAM1PAI@Z 0058b7b0 f   ui.obj
 0001:0018aae0       ?run@?$_icmd_uitiledimage@$0NHJ@@UI@@SAXPADPAM111PAI@Z 0058bae0 f   ui.obj
 0001:0018ad30       ?run@?$_icmd_uiborderedimage@$0NHD@@UI@@SAXPADPAUtagval@@PAMPAI@Z 0058bd30 f   ui.obj
 0001:0018aff0       ?run@?$_icmd_uicroppedimage@$0NGL@@UI@@SAXPADPAM1PAUtagval@@222PAI@Z 0058bff0 f   ui.obj
 0001:0018b550       ?run@?$_icmd_uistretchedimage@$0NFC@@UI@@SAXPADPAM1PAI@Z 0058c550 f   ui.obj
 0001:0018b760       ?run@?$_icmd_uiimage@$0NEP@@UI@@SAXPADPAM1PAI@Z 0058c760 f   ui.obj
 0001:0018b970       ?run@?$_icmd_uikeyfield@$0NEM@@UI@@SAXPAUident@@PAHPAIPAM2@Z 0058c970 f   ui.obj
 0001:0018bb90       ?run@?$_icmd_uifield@$0NEJ@@UI@@SAXPAUident@@PAHPAIPAM2@Z 0058cb90 f   ui.obj
 0001:0018bde0       ?run@?$_icmd_uiconsole@$0NEG@@UI@@SAXPAM0PAI@Z 0058cde0 f   ui.obj
 0001:0018bff0       ?run@?$_icmd_uiabovehud@$0NED@@UI@@SAXXZ 0058cff0 f   ui.obj
 0001:0018c000       ?run@?$_icmd_uifont@$0NEB@@UI@@SAXPADPAI@Z 0058d000 f   ui.obj
 0001:0018c1d0       ?run@?$_icmd_uitexteditor@$0NDO@@UI@@SAXPADPAH1PAM01PAI@Z 0058d1d0 f   ui.obj
 0001:0018c5c0       ?run@?$_icmd_uiwrapcontext@$0NDL@@UI@@SAXPAUtagval@@PAM1PAI@Z 0058d5c0 f   ui.obj
 0001:0018c610       ?run@?$_icmd_uiwrapcolorcontext@$0NDI@@UI@@SAXPAUtagval@@PAMPAH1PAI@Z 0058d610 f   ui.obj
 0001:0018c680       ?run@?$_icmd_uicontextfill@$0NDF@@UI@@SAXPAM0PAI@Z 0058d680 f   ui.obj
 0001:0018c8b0       ?run@?$_icmd_uicontext@$0NDC@@UI@@SAXPAUtagval@@PAMPAI@Z 0058d8b0 f   ui.obj
 0001:0018c900       ?run@?$_icmd_uicolorcontext@$0NCP@@UI@@SAXPAUtagval@@PAHPAMPAI@Z 0058d900 f   ui.obj
 0001:0018c970       ?run@?$_icmd_uiwraptext@$0NCM@@UI@@SAXPAUtagval@@PAM1PAI@Z 0058d970 f   ui.obj
 0001:0018c9b0       ?run@?$_icmd_uiwrapcolortext@$0NCJ@@UI@@SAXPAUtagval@@PAMPAH1PAI@Z 0058d9b0 f   ui.obj
 0001:0018ca10       ?run@?$_icmd_uitextfill@$0NCG@@UI@@SAXPAM0PAI@Z 0058da10 f   ui.obj
 0001:0018cc30       ?run@?$_icmd_uitext@$0NCD@@UI@@SAXPAUtagval@@PAMPAI@Z 0058dc30 f   ui.obj
 0001:0018cc70       ?run@?$_icmd_uicolortext@$0NCA@@UI@@SAXPAUtagval@@PAHPAMPAI@Z 0058dc70 f   ui.obj
 0001:0018d3a0       ?run@?$_icmd_uimodcircle@$0NAC@@UI@@SAXPAHPAMPAI@Z 0058e3a0 f   ui.obj
 0001:0018d5e0       ?run@?$_icmd_uicircleoutline@$0MPP@@UI@@SAXPAHPAMPAI@Z 0058e5e0 f   ui.obj
 0001:0018d820       ?run@?$_icmd_uicircle@$0MPM@@UI@@SAXPAHPAMPAI@Z 0058e820 f   ui.obj
 0001:0018da60       ?run@?$_icmd_uimodtriangle@$0MPJ@@UI@@SAXPAHPAM10PAI@Z 0058ea60 f   ui.obj
 0001:0018df20       ?run@?$_icmd_uitriangleoutline@$0MPG@@UI@@SAXPAHPAM10PAI@Z 0058ef20 f   ui.obj
 0001:0018e3e0       ?run@?$_icmd_uitriangle@$0MPD@@UI@@SAXPAHPAM10PAI@Z 0058f3e0 f   ui.obj
 0001:0018e8a0       ?run@?$_icmd_uiline@$0MPA@@UI@@SAXPAHPAM1PAI@Z 0058f8a0 f   ui.obj
 0001:0018ead0       ?run@?$_icmd_uioutline@$0MON@@UI@@SAXPAHPAM1PAI@Z 0058fad0 f   ui.obj
 0001:0018ed00       ?run@?$_icmd_uimodhgradient@$0MOK@@UI@@SAXPAH0PAM1PAI@Z 0058fd00 f   ui.obj
 0001:0018ef60       ?run@?$_icmd_uihgradient@$0MOH@@UI@@SAXPAH0PAM1PAI@Z 0058ff60 f   ui.obj
 0001:0018f1c0       ?run@?$_icmd_uimodvgradient@$0MOE@@UI@@SAXPAH0PAM1PAI@Z 005901c0 f   ui.obj
 0001:0018f420       ?run@?$_icmd_uivgradient@$0MOB@@UI@@SAXPAH0PAM1PAI@Z 00590420 f   ui.obj
 0001:0018f680       ?run@?$_icmd_uimodcolor@$0MNO@@UI@@SAXPAHPAM1PAI@Z 00590680 f   ui.obj
 0001:0018f8c0       ?run@?$_icmd_uicolor@$0MNL@@UI@@SAXPAHPAM1PAI@Z 005908c0 f   ui.obj
 0001:0018fb00       ?run@?$_icmd_uisliderbutton@$0MNI@@UI@@SAXPAI@Z 00590b00 f   ui.obj
 0001:0018fcf0       ?run@?$_icmd_uisliderarrow@$0MNF@@UI@@SAXPAMPAI@Z 00590cf0 f   ui.obj
 0001:0018ff00       ?run@?$_icmd_uivslider@$0MNC@@UI@@SAXPAUident@@PAM11PAI2@Z 00590f00 f   ui.obj
 0001:00190160       ?run@?$_icmd_uihslider@$0MMP@@UI@@SAXPAUident@@PAM11PAI2@Z 00591160 f   ui.obj
 0001:001903c0       ?run@?$_icmd_uiscrollbutton@$0MMM@@UI@@SAXPAI@Z 005913c0 f   ui.obj
 0001:001905b0       ?run@?$_icmd_uiscrollarrow@$0MMJ@@UI@@SAXPAMPAI@Z 005915b0 f   ui.obj
 0001:001907b0       ?run@?$_icmd_uivscrollbar@$0MMG@@UI@@SAXPAI@Z 005917b0 f   ui.obj
 0001:001909c0       ?run@?$_icmd_uihscrollbar@$0MMD@@UI@@SAXPAI@Z 005919c0 f   ui.obj
 0001:00190bd0       ?run@?$_icmd_uivscrolloffset@$0MMA@@UI@@SAXXZ 00591bd0 f   ui.obj
 0001:00190c10       ?run@?$_icmd_uihscrolloffset@$0MLH@@UI@@SAXXZ 00591c10 f   ui.obj
 0001:00190c50       ?run@?$_icmd_uiscroll@$0MKO@@UI@@SAXPAM0PAI@Z 00591c50 f   ui.obj
 0001:00190e70       ?run@?$_icmd_uiclip@$0MKL@@UI@@SAXPAM0PAI@Z 00591e70 f   ui.obj
 0001:00191080       ?run@?$_icmd_uitarget@$0MKI@@UI@@SAXPAM0PAI@Z 00592080 f   ui.obj
 0001:00191290       ?run@?$_icmd_uifill@$0MKF@@UI@@SAXPAM0PAI@Z 00592290 f   ui.obj
 0001:001914a0       ?run@?$_icmd_uioffset@$0MKC@@UI@@SAXPAM0PAI@Z 005924a0 f   ui.obj
 0001:001916b0       ?run@?$_icmd_uispace@$0MJP@@UI@@SAXPAM0PAI@Z 005926b0 f   ui.obj
 0001:001918c0       ?run@?$_icmd_uitable@$0MJM@@UI@@SAXPAM0PAI@Z 005928c0 f   ui.obj
 0001:00191ae0       ?run@?$_icmd_uitablerow@$0MJK@@UI@@SAXPAI0@Z 00592ae0 f   ui.obj
 0001:00191d00       ?run@?$_icmd_uitableheader@$0MJI@@UI@@SAXPAI0@Z 00592d00 f   ui.obj
 0001:00191f10       ?run@?$_icmd_uigrid@$0MJF@@UI@@SAXPAHPAM1PAI@Z 00592f10 f   ui.obj
 0001:00192160       ?run@?$_icmd_uilist@$0MJC@@UI@@SAXPAMPAI@Z 00593160 f   ui.obj
 0001:00192560       ?run@?$_icmd_uivlist@$0MIF@@UI@@SAXPAMPAI@Z 00593560 f   ui.obj
 0001:00192760       ?run@?$_icmd_uihlist@$0MIC@@UI@@SAXPAMPAI@Z 00593760 f   ui.obj
 0001:00192960       ?run@?$_icmd_uigroup@$0MHP@@UI@@SAXPAI@Z 00593960 f   ui.obj
 0001:00192b50       ?run@?$uiclamp__@$0MHM@@UI@@SAXPAH000@Z 00593b50 f   ui.obj
 0001:00192be0       ?run@?$uiclamp_@$0MHI@@UI@@SAXPAH000@Z 00593be0 f   ui.obj
 0001:00192c50       ?run@?$_icmd_uiclamp@$0MHE@@UI@@SAXPAH000@Z 00593c50 f   ui.obj
 0001:00192cb0       ?run@?$uialign__@$0MGP@@UI@@SAXPAH0@Z 00593cb0 f   ui.obj
 0001:00192d30       ?run@?$uialign_@$0MGL@@UI@@SAXPAH0@Z 00593d30 f   ui.obj
 0001:00192da0       ?run@?$_icmd_uialign@$0MGH@@UI@@SAXPAH0@Z 00593da0 f   ui.obj
 0001:00192e00       ?run@?$uinextfocus__@$0MGC@@UI@@SAXPAUtagval@@0@Z 00593e00 f   ui.obj
 0001:00192e80       ?run@?$uinextfocus_@$0MGA@@UI@@SAXPAI0@Z 00593e80 f   ui.obj
 0001:00192ec0       ?run@?$uifocus__@$0MFO@@UI@@SAXPAUtagval@@0@Z 00593ec0 f   ui.obj
 0001:00192f30       ?run@?$uifocus_@$0MFM@@UI@@SAXPAI0@Z 00593f30 f   ui.obj
 0001:00192f60       ?run@?$uinextscrolldown__@$0MFI@@UI@@SAXPAUtagval@@0@Z 00593f60 f   ui.obj
 0001:00192ff0       ?run@?$uinextnotscrolldown__@$0MFI@@UI@@SAXPAUtagval@@0@Z 00593ff0 f   ui.obj
 0001:00193080       ?run@?$uinextscrolldown_@$0MFI@@UI@@SAXPAI0@Z 00594080 f   ui.obj
 0001:001930d0       ?run@?$uinextnotscrolldown_@$0MFI@@UI@@SAXPAI0@Z 005940d0 f   ui.obj
 0001:00193120       ?run@?$uiscrolldown__@$0MFI@@UI@@SAXPAUtagval@@0@Z 00594120 f   ui.obj
 0001:00193190       ?run@?$uinotscrolldown__@$0MFI@@UI@@SAXPAUtagval@@0@Z 00594190 f   ui.obj
 0001:00193200       ?run@?$uiscrolldown_@$0MFI@@UI@@SAXPAI0@Z 00594200 f   ui.obj
 0001:00193240       ?run@?$uinotscrolldown_@$0MFI@@UI@@SAXPAI0@Z 00594240 f   ui.obj
 0001:00193270       ?run@?$uinextscrollup__@$0MFI@@UI@@SAXPAUtagval@@0@Z 00594270 f   ui.obj
 0001:00193300       ?run@?$uinextnotscrollup__@$0MFI@@UI@@SAXPAUtagval@@0@Z 00594300 f   ui.obj
 0001:00193390       ?run@?$uinextscrollup_@$0MFI@@UI@@SAXPAI0@Z 00594390 f   ui.obj
 0001:001933e0       ?run@?$uinextnotscrollup_@$0MFI@@UI@@SAXPAI0@Z 005943e0 f   ui.obj
 0001:00193430       ?run@?$uiscrollup__@$0MFI@@UI@@SAXPAUtagval@@0@Z 00594430 f   ui.obj
 0001:001934a0       ?run@?$uinotscrollup__@$0MFI@@UI@@SAXPAUtagval@@0@Z 005944a0 f   ui.obj
 0001:00193510       ?run@?$uiscrollup_@$0MFI@@UI@@SAXPAI0@Z 00594510 f   ui.obj
 0001:00193550       ?run@?$uinotscrollup_@$0MFI@@UI@@SAXPAI0@Z 00594550 f   ui.obj
 0001:00193580       ?run@?$uinextescrelease__@$0MFI@@UI@@SAXPAUtagval@@0@Z 00594580 f   ui.obj
 0001:00193610       ?run@?$uinextnotescrelease__@$0MFI@@UI@@SAXPAUtagval@@0@Z 00594610 f   ui.obj
 0001:001936a0       ?run@?$uinextescrelease_@$0MFI@@UI@@SAXPAI0@Z 005946a0 f   ui.obj
 0001:001936f0       ?run@?$uinextnotescrelease_@$0MFI@@UI@@SAXPAI0@Z 005946f0 f   ui.obj
 0001:00193740       ?run@?$uiescrelease__@$0MFI@@UI@@SAXPAUtagval@@0@Z 00594740 f   ui.obj
 0001:001937b0       ?run@?$uinotescrelease__@$0MFI@@UI@@SAXPAUtagval@@0@Z 005947b0 f   ui.obj
 0001:00193820       ?run@?$uiescrelease_@$0MFI@@UI@@SAXPAI0@Z 00594820 f   ui.obj
 0001:00193860       ?run@?$uinotescrelease_@$0MFI@@UI@@SAXPAI0@Z 00594860 f   ui.obj
 0001:00193890       ?run@?$uinextescpress__@$0MFI@@UI@@SAXPAUtagval@@0@Z 00594890 f   ui.obj
 0001:00193920       ?run@?$uinextnotescpress__@$0MFI@@UI@@SAXPAUtagval@@0@Z 00594920 f   ui.obj
 0001:001939a0       ?run@?$uinextescpress_@$0MFI@@UI@@SAXPAI0@Z 005949a0 f   ui.obj
 0001:001939f0       ?run@?$uinextnotescpress_@$0MFI@@UI@@SAXPAI0@Z 005949f0 f   ui.obj
 0001:00193a40       ?run@?$uiescpress__@$0MFI@@UI@@SAXPAUtagval@@0@Z 00594a40 f   ui.obj
 0001:00193ab0       ?run@?$uinotescpress__@$0MFI@@UI@@SAXPAUtagval@@0@Z 00594ab0 f   ui.obj
 0001:00193b20       ?run@?$uiescpress_@$0MFI@@UI@@SAXPAI0@Z 00594b20 f   ui.obj
 0001:00193b50       ?run@?$uinotescpress_@$0MFI@@UI@@SAXPAI0@Z 00594b50 f   ui.obj
 0001:00193b80       ?run@?$uinexteschold__@$0MFI@@UI@@SAXPAUtagval@@0@Z 00594b80 f   ui.obj
 0001:00193c00       ?run@?$uinextnoteschold__@$0MFI@@UI@@SAXPAUtagval@@0@Z 00594c00 f   ui.obj
 0001:00193c90       ?run@?$uinexteschold_@$0MFI@@UI@@SAXPAI0@Z 00594c90 f   ui.obj
 0001:00193cd0       ?run@?$uinextnoteschold_@$0MFI@@UI@@SAXPAI0@Z 00594cd0 f   ui.obj
 0001:00193d20       ?run@?$uieschold__@$0MFI@@UI@@SAXPAUtagval@@0@Z 00594d20 f   ui.obj
 0001:00193d90       ?run@?$uinoteschold__@$0MFI@@UI@@SAXPAUtagval@@0@Z 00594d90 f   ui.obj
 0001:00193e00       ?run@?$uieschold_@$0MFI@@UI@@SAXPAI0@Z 00594e00 f   ui.obj
 0001:00193e30       ?run@?$uinoteschold_@$0MFI@@UI@@SAXPAI0@Z 00594e30 f   ui.obj
 0001:00193e60       ?run@?$uinextaltrelease__@$0MFI@@UI@@SAXPAUtagval@@0@Z 00594e60 f   ui.obj
 0001:00193ef0       ?run@?$uinextnotaltrelease__@$0MFI@@UI@@SAXPAUtagval@@0@Z 00594ef0 f   ui.obj
 0001:00193f70       ?run@?$uinextaltrelease_@$0MFI@@UI@@SAXPAI0@Z 00594f70 f   ui.obj
 0001:00193fc0       ?run@?$uinextnotaltrelease_@$0MFI@@UI@@SAXPAI0@Z 00594fc0 f   ui.obj
 0001:00194010       ?run@?$uialtrelease__@$0MFI@@UI@@SAXPAUtagval@@0@Z 00595010 f   ui.obj
 0001:00194080       ?run@?$uinotaltrelease__@$0MFI@@UI@@SAXPAUtagval@@0@Z 00595080 f   ui.obj
 0001:001940f0       ?run@?$uialtrelease_@$0MFI@@UI@@SAXPAI0@Z 005950f0 f   ui.obj
 0001:00194120       ?run@?$uinotaltrelease_@$0MFI@@UI@@SAXPAI0@Z 00595120 f   ui.obj
 0001:00194150       ?run@?$uinextaltpress__@$0MFI@@UI@@SAXPAUtagval@@0@Z 00595150 f   ui.obj
 0001:001941e0       ?run@?$uinextnotaltpress__@$0MFI@@UI@@SAXPAUtagval@@0@Z 005951e0 f   ui.obj
 0001:00194260       ?run@?$uinextaltpress_@$0MFI@@UI@@SAXPAI0@Z 00595260 f   ui.obj
 0001:001942b0       ?run@?$uinextnotaltpress_@$0MFI@@UI@@SAXPAI0@Z 005952b0 f   ui.obj
 0001:00194300       ?run@?$uialtpress__@$0MFI@@UI@@SAXPAUtagval@@0@Z 00595300 f   ui.obj
 0001:00194370       ?run@?$uinotaltpress__@$0MFI@@UI@@SAXPAUtagval@@0@Z 00595370 f   ui.obj
 0001:001943e0       ?run@?$uialtpress_@$0MFI@@UI@@SAXPAI0@Z 005953e0 f   ui.obj
 0001:00194410       ?run@?$uinotaltpress_@$0MFI@@UI@@SAXPAI0@Z 00595410 f   ui.obj
 0001:00194440       ?run@?$uinextalthold__@$0MFI@@UI@@SAXPAUtagval@@0@Z 00595440 f   ui.obj
 0001:001944d0       ?run@?$uinextnotalthold__@$0MFI@@UI@@SAXPAUtagval@@0@Z 005954d0 f   ui.obj
 0001:00194550       ?run@?$uinextalthold_@$0MFI@@UI@@SAXPAI0@Z 00595550 f   ui.obj
 0001:001945a0       ?run@?$uinextnotalthold_@$0MFI@@UI@@SAXPAI0@Z 005955a0 f   ui.obj
 0001:001945f0       ?run@?$uialthold__@$0MFI@@UI@@SAXPAUtagval@@0@Z 005955f0 f   ui.obj
 0001:00194660       ?run@?$uinotalthold__@$0MFI@@UI@@SAXPAUtagval@@0@Z 00595660 f   ui.obj
 0001:001946d0       ?run@?$uialthold_@$0MFI@@UI@@SAXPAI0@Z 005956d0 f   ui.obj
 0001:00194700       ?run@?$uinotalthold_@$0MFI@@UI@@SAXPAI0@Z 00595700 f   ui.obj
 0001:00194730       ?run@?$uinextrelease__@$0MFI@@UI@@SAXPAUtagval@@0@Z 00595730 f   ui.obj
 0001:001947c0       ?run@?$uinextnotrelease__@$0MFI@@UI@@SAXPAUtagval@@0@Z 005957c0 f   ui.obj
 0001:00194840       ?run@?$uinextrelease_@$0MFI@@UI@@SAXPAI0@Z 00595840 f   ui.obj
 0001:00194890       ?run@?$uinextnotrelease_@$0MFI@@UI@@SAXPAI0@Z 00595890 f   ui.obj
 0001:001948e0       ?run@?$uirelease__@$0MFI@@UI@@SAXPAUtagval@@0@Z 005958e0 f   ui.obj
 0001:00194950       ?run@?$uinotrelease__@$0MFI@@UI@@SAXPAUtagval@@0@Z 00595950 f   ui.obj
 0001:001949c0       ?run@?$uirelease_@$0MFI@@UI@@SAXPAI0@Z 005959c0 f   ui.obj
 0001:001949f0       ?run@?$uinotrelease_@$0MFI@@UI@@SAXPAI0@Z 005959f0 f   ui.obj
 0001:00194a20       ?run@?$uinexthold__@$0MFI@@UI@@SAXPAUtagval@@0@Z 00595a20 f   ui.obj
 0001:00194ab0       ?run@?$uinextnothold__@$0MFI@@UI@@SAXPAUtagval@@0@Z 00595ab0 f   ui.obj
 0001:00194b30       ?run@?$uinexthold_@$0MFI@@UI@@SAXPAI0@Z 00595b30 f   ui.obj
 0001:00194b80       ?run@?$uinextnothold_@$0MFI@@UI@@SAXPAI0@Z 00595b80 f   ui.obj
 0001:00194bd0       ?run@?$uihold__@$0MFI@@UI@@SAXPAUtagval@@0@Z 00595bd0 f   ui.obj
 0001:00194c40       ?run@?$uinothold__@$0MFI@@UI@@SAXPAUtagval@@0@Z 00595c40 f   ui.obj
 0001:00194cb0       ?run@?$uihold_@$0MFI@@UI@@SAXPAI0@Z 00595cb0 f   ui.obj
 0001:00194ce0       ?run@?$uinothold_@$0MFI@@UI@@SAXPAI0@Z 00595ce0 f   ui.obj
 0001:00194d10       ?run@?$uinextpress__@$0MFI@@UI@@SAXPAUtagval@@0@Z 00595d10 f   ui.obj
 0001:00194d90       ?run@?$uinextnotpress__@$0MFI@@UI@@SAXPAUtagval@@0@Z 00595d90 f   ui.obj
 0001:00194e10       ?run@?$uinextpress_@$0MFI@@UI@@SAXPAI0@Z 00595e10 f   ui.obj
 0001:00194e60       ?run@?$uinextnotpress_@$0MFI@@UI@@SAXPAI0@Z 00595e60 f   ui.obj
 0001:00194eb0       ?run@?$uipress__@$0MFI@@UI@@SAXPAUtagval@@0@Z 00595eb0 f   ui.obj
 0001:00194f20       ?run@?$uinotpress__@$0MFI@@UI@@SAXPAUtagval@@0@Z 00595f20 f   ui.obj
 0001:00194f90       ?run@?$uipress_@$0MFI@@UI@@SAXPAI0@Z 00595f90 f   ui.obj
 0001:00194fc0       ?run@?$uinotpress_@$0MFI@@UI@@SAXPAI0@Z 00595fc0 f   ui.obj
 0001:00194ff0       ?run@?$uinexthover__@$0MFI@@UI@@SAXPAUtagval@@0@Z 00595ff0 f   ui.obj
 0001:00195070       ?run@?$uinextnothover__@$0MFI@@UI@@SAXPAUtagval@@0@Z 00596070 f   ui.obj
 0001:001950f0       ?run@?$uinexthover_@$0MFI@@UI@@SAXPAI0@Z 005960f0 f   ui.obj
 0001:00195130       ?run@?$uinextnothover_@$0MFI@@UI@@SAXPAI0@Z 00596130 f   ui.obj
 0001:00195180       ?run@?$uihover__@$0MFI@@UI@@SAXPAUtagval@@0@Z 00596180 f   ui.obj
 0001:001951f0       ?run@?$uinothover__@$0MFI@@UI@@SAXPAUtagval@@0@Z 005961f0 f   ui.obj
 0001:00195260       ?run@?$uihover_@$0MFI@@UI@@SAXPAI0@Z 00596260 f   ui.obj
 0001:00195290       ?run@?$uinothover_@$0MFI@@UI@@SAXPAI0@Z 00596290 f   ui.obj
 0001:001952c0       ?run@?$_icmd_uiname@$0MEE@@UI@@SAXXZ 005962c0 f   ui.obj
 0001:001952e0       ?run@?$_icmd_uivisible@$0MED@@UI@@SAXPAD@Z 005962e0 f   ui.obj
 0001:00195370       ?run@?$_icmd_holdui@$0MEC@@UI@@SAXPADPAH@Z 00596370 f   ui.obj
 0001:001953c0       ?run@?$_icmd_toggleui@$0MEB@@UI@@SAXPAD@Z 005963c0 f   ui.obj
 0001:00195430       ?run@?$_icmd_hideallui@$0MEA@@UI@@SAXXZ 00596430 f   ui.obj
 0001:00195450       ?run@?$_icmd_hidetopui@$0MDP@@UI@@SAXXZ 00596450 f   ui.obj
 0001:001954c0       ?run@?$_icmd_hideui@$0MDO@@UI@@SAXPAD@Z 005964c0 f   ui.obj
 0001:00195540       ?run@?$_icmd_showui@$0MDN@@UI@@SAXPAD@Z 00596540 f   ui.obj
 0001:00195560       ?holdui@UI@@YAXPBD_N@Z     00596560 f   ui.obj
 0001:001955b0       ?toggleui@UI@@YA_NPBD@Z    005965b0 f   ui.obj
 0001:00195610       ?hideui@UI@@YA_NPBD@Z      00596610 f   ui.obj
 0001:00195660       ?showui@UI@@YA_NPBD@Z      00596660 f   ui.obj
 0001:00195720       ?run@?$_icmd_uieschide@$0MBK@@UI@@SAXPAH@Z 00596720 f   ui.obj
 0001:00195760       ?run@?$_icmd_uiallowinput@$0MBJ@@UI@@SAXPAH@Z 00596760 f   ui.obj
 0001:001957a0       ?run@?$_icmd_newui@$0MBH@@UI@@SAXPAD000@Z 005967a0 f   ui.obj
 0001:00195c00       ?wheelscroll@Slider@UI@@QAEXM@Z 00596c00 f   ui.obj
 0001:00195f20       ?wheelscroll@ScrollBar@UI@@QAEXM@Z 00596f20 f   ui.obj
 0001:00195f90       ?scrolldown@Scroller@UI@@UAEXMM@Z 00596f90 f   ui.obj
 0001:00196020       ?scrollup@Scroller@UI@@UAEXMM@Z 00597020 f   ui.obj
 0001:001960b0       ?run@?$_icmd_uicontextscale@$0HPG@@UI@@SAXXZ 005970b0 f   ui.obj
 0001:001961a0       ?build@Window@UI@@QAEXXZ   005971a0 f   ui.obj
 0001:00196220       ?escrelease@Window@UI@@UAEXMM@Z 00597220 f   ui.obj
 0001:00196260       ?scissor@ClipArea@UI@@QAEXXZ 00597260 f   ui.obj
 0001:001962e0       ?modblend@UI@@YAXXZ        005972e0 f   ui.obj
 0001:00196310       ?resetblend@UI@@YAXXZ      00597310 f   ui.obj
 0001:00196a50       ?run@?$_icmd_textexec@$0DBF@@@SAXPAH@Z 00597a50 f   ui.obj
 0001:00196b20       ?run@?$_icmd_textcurrentline@$0DAP@@@SAXXZ 00597b20 f   ui.obj
 0001:00196b40       ?run@?$_icmd_textclear@$0DAO@@@SAXXZ 00597b40 f   ui.obj
 0001:00196b60       ?run@?$_icmd_textselectall@$0DAN@@@SAXXZ 00597b60 f   ui.obj
 0001:00196b90       ?run@?$_icmd_textmark@$0DAM@@@SAXPAH@Z 00597b90 f   ui.obj
 0001:00196c10       ?run@?$_icmd_textpaste@$0DAI@@@SAXXZ 00597c10 f   ui.obj
 0001:00196c40       ?run@?$_icmd_textcopy@$0DAH@@@SAXXZ 00597c40 f   ui.obj
 0001:00196c70       ?run@?$_icmd_textinit@$0DAD@@@SAXPAD00@Z 00597c70 f   ui.obj
 0001:00196d50       ?run@?$_icmd_textload@$0CPI@@@SAXPAD@Z 00597d50 f   ui.obj
 0001:00196da0       ?run@?$_icmd_textsave@$0CPA@@@SAXPAD@Z 00597da0 f   ui.obj
 0001:00196e30       ?run@?$_icmd_textmode@$0COM@@@SAXPAH@Z 00597e30 f   ui.obj
 0001:00196e70       ?run@?$_icmd_textprev@$0COI@@@SAXXZ 00597e70 f   ui.obj
 0001:00196ed0       ?run@?$_icmd_textfocus@$0COH@@@SAXPADPAH@Z 00597ed0 f   ui.obj
 0001:00196f30       ?run@?$_icmd_textshow@$0COC@@@SAXXZ 00597f30 f   ui.obj
 0001:00196f90       ?run@?$_icmd_textlist@$0CNM@@@SAXXZ 00597f90 f   ui.obj
 0001:001974c0       ?getcursorpos@UI@@YAXAAM0@Z 005984c0 f   ui.obj
 0001:00197500       ?abovehud@UI@@YAMXZ        00598500 f   ui.obj
 0001:00197560       ?uivisible@UI@@YA_NPBD@Z   00598560 f   ui.obj
 0001:001975d0       ?render@UI@@YAXXZ          005985d0 f   ui.obj
 0001:00197630       ?hascursor@UI@@YA_NXZ      00598630 f   ui.obj
 0001:00197b40       ?var_waterfallenv@@YAXPAUident@@@Z 00598b40 f   water.obj
 0001:00197b50       ?var_waterenvmap@@YAXPAUident@@@Z 00598b50 f   water.obj
 0001:00197b60       ?var_waterreflect@@YAXPAUident@@@Z 00598b60 f   water.obj
 0001:00197b70       ?getlavaspec@@YAHH@Z       00598b70 f   water.obj
 0001:00197bb0       ?getlavaglowmax@@YAMH@Z    00598bb0 f   water.obj
 0001:00197bf0       ?getlavaglowmin@@YAMH@Z    00598bf0 f   water.obj
 0001:00197c30       ?var_lava4colour@@YAXPAUident@@@Z 00598c30 f   water.obj
 0001:00197c70       ?var_lava3colour@@YAXPAUident@@@Z 00598c70 f   water.obj
 0001:00197cb0       ?var_lava2colour@@YAXPAUident@@@Z 00598cb0 f   water.obj
 0001:00197cf0       ?var_lavacolour@@YAXPAUident@@@Z 00598cf0 f   water.obj
 0001:00197d30       ?getwaterfallrefract@@YAMH@Z 00598d30 f   water.obj
 0001:00197d70       ?getwaterfallspec@@YAHH@Z  00598d70 f   water.obj
 0001:00197db0       ?getwaterrefract@@YAMH@Z   00598db0 f   water.obj
 0001:00197df0       ?getwaterspec@@YAHH@Z      00598df0 f   water.obj
 0001:00197e30       ?getwaterfallrefractcolour@@YAABUbvec@@H@Z 00598e30 f   water.obj
 0001:00197e70       ?getwaterrefractcolour@@YAABUbvec@@H@Z 00598e70 f   water.obj
 0001:00197eb0       ?getwaterdeepfade@@YAABUbvec@@H@Z 00598eb0 f   water.obj
 0001:00197ef0       ?var_water4fallrefractcolour@@YAXPAUident@@@Z 00598ef0 f   water.obj
 0001:00197f20       ?var_water4fallcolour@@YAXPAUident@@@Z 00598f20 f   water.obj
 0001:00197f50       ?var_water4refractcolour@@YAXPAUident@@@Z 00598f50 f   water.obj
 0001:00197f90       ?var_water4deepfade@@YAXPAUident@@@Z 00598f90 f   water.obj
 0001:00197fd0       ?var_water4deepcolour@@YAXPAUident@@@Z 00598fd0 f   water.obj
 0001:00198010       ?var_water4colour@@YAXPAUident@@@Z 00599010 f   water.obj
 0001:00198050       ?var_water3fallrefractcolour@@YAXPAUident@@@Z 00599050 f   water.obj
 0001:00198080       ?var_water3fallcolour@@YAXPAUident@@@Z 00599080 f   water.obj
 0001:001980b0       ?var_water3refractcolour@@YAXPAUident@@@Z 005990b0 f   water.obj
 0001:001980f0       ?var_water3deepfade@@YAXPAUident@@@Z 005990f0 f   water.obj
 0001:00198130       ?var_water3deepcolour@@YAXPAUident@@@Z 00599130 f   water.obj
 0001:00198170       ?var_water3colour@@YAXPAUident@@@Z 00599170 f   water.obj
 0001:001981b0       ?var_water2fallrefractcolour@@YAXPAUident@@@Z 005991b0 f   water.obj
 0001:001981e0       ?var_water2fallcolour@@YAXPAUident@@@Z 005991e0 f   water.obj
 0001:00198210       ?var_water2refractcolour@@YAXPAUident@@@Z 00599210 f   water.obj
 0001:00198250       ?var_water2deepfade@@YAXPAUident@@@Z 00599250 f   water.obj
 0001:00198290       ?var_water2deepcolour@@YAXPAUident@@@Z 00599290 f   water.obj
 0001:001982d0       ?var_water2colour@@YAXPAUident@@@Z 005992d0 f   water.obj
 0001:00198310       ?var_waterfallrefractcolour@@YAXPAUident@@@Z 00599310 f   water.obj
 0001:00198340       ?var_waterfallcolour@@YAXPAUident@@@Z 00599340 f   water.obj
 0001:00198370       ?var_waterrefractcolour@@YAXPAUident@@@Z 00599370 f   water.obj
 0001:001983b0       ?var_waterdeepfade@@YAXPAUident@@@Z 005993b0 f   water.obj
 0001:001983f0       ?var_waterdeepcolour@@YAXPAUident@@@Z 005993f0 f   water.obj
 0001:00198430       ?var_watercolour@@YAXPAUident@@@Z 00599430 f   water.obj
 0001:00198640       ?var_vertwater@@YAXPAUident@@@Z 00599640 f   water.obj
 0001:00198650       ?renderflatwater@@YAXHHHHHH@Z 00599650 f   water.obj
 0001:001987c0       ?renderwaterlod@@YAHHHHHH@Z 005997c0 f   water.obj
 0001:00198970       ?calcwatersubdiv@@YAHHHHH@Z 00599970 f   water.obj
 0001:00198a80       ?rendervertwater@@YAXHHHHHH@Z 00599a80 f   water.obj
 0001:00198b40       ?flushwater@@YAXH_N@Z      00599b40 f   water.obj
 0001:00198e60       ?flushwaterstrips@@YAXXZ   00599e60 f   water.obj
 0001:001995c0       ?rendercaustics@@YAXMMM@Z  0059a5c0 f   water.obj
 0001:00199740       ?setupcaustics@@YAXHM@Z    0059a740 f   water.obj
 0001:00199bb0       ?var_caustics@@YAXPAUident@@@Z 0059abb0 f   water.obj
 0001:00199bc0       ?var_causticmillis@@YAXPAUident@@@Z 0059abc0 f   water.obj
 0001:00199bd0       ?var_causticscale@@YAXPAUident@@@Z 0059abd0 f   water.obj
 0001:00199be0       ?getwaterfallcolour@@YAABUbvec@@H@Z 0059abe0 f   water.obj
 0001:00199c20       ?getwatercolour@@YAABUbvec@@H@Z 0059ac20 f   water.obj
 0001:00199c60       ?getwaterdeepcolour@@YAABUbvec@@H@Z 0059ac60 f   water.obj
 0001:00199ca0       ?getwaterfog@@YAHH@Z       0059aca0 f   water.obj
 0001:00199ce0       ?getwaterdeep@@YAHH@Z      0059ace0 f   water.obj
 0001:00199d20       ?getlavacolour@@YAABUbvec@@H@Z 0059ad20 f   water.obj
 0001:00199d60       ?getlavafog@@YAHH@Z        0059ad60 f   water.obj
 0001:00199da0       ?renderwaterfog@@YAXHM@Z   0059ada0 f   water.obj
 0001:0019a840       ?loadcaustics@@YAX_N@Z     0059b840 f   water.obj
 0001:0019a8f0       ?preloadwatershaders@@YAX_N@Z 0059b8f0 f   water.obj
 0001:0019aaa0       ?renderlava@@YAXXZ         0059baa0 f   water.obj
 0001:0019be20       ?renderwater@@YAXXZ        0059ce20 f   water.obj
 0001:0019d1b0       ?renderwaterfalls@@YAXXZ   0059e1b0 f   water.obj
 0001:0019f400       ?clearsleep_@@YAXPAH@Z     005a0400 f   command.obj
 0001:0019f420       ?checksleep@@YAXH@Z        005a0420 f   command.obj
 0001:0019f510       ?addsleep@@YAXPAHPAD@Z     005a0510 f   command.obj
 0001:0019f640       ?run@?$_stdcmd@$0BBBN@@@SAXPAH@Z 005a0640 f   command.obj
 0001:0019f670       ?strsplice@@YAXPBD0PAH1@Z  005a0670 f   command.obj
 0001:0019f760       ?run@?$_stdcmd@$0BBAM@@@SAXPAD000@Z 005a0760 f   command.obj
 0001:0019f7a0       ?strreplace@@YAPADPBD000@Z 005a07a0 f   command.obj
 0001:0019fb50       ?run@?$_stdcmd@$0BAPC@@@SAXPAD@Z 005a0b50 f   command.obj
 0001:0019fbd0       ?run@?$_stdcmd@$0BAPB@@@SAXPAD@Z 005a0bd0 f   command.obj
 0001:0019fc50       ?run@?$_stdcmd@$0BAOF@@@SAXPAD0@Z 005a0c50 f   command.obj
 0001:0019fdc0       ?naturalsort@@YAHPBD0@Z    005a0dc0 f   command.obj
 0001:0019ff20       ?run@?$_stdcmd@$0BAML@@@SAXPAH@Z 005a0f20 f   command.obj
 0001:0019ff80       ?run@?$_stdcmd@$0BAMK@@@SAXPADPAH@Z 005a0f80 f   command.obj
 0001:0019fff0       ?run@?$_stdcmd@$0BAMJ@@@SAXPAH@Z 005a0ff0 f   command.obj
 0001:001a0020       ?run@?$_stdcmd@$0BAMI@@@SAXPADPAH@Z 005a1020 f   command.obj
 0001:001a0080       ?run@?$_stdcmd@$0BAMH@@@SAXPAD@Z 005a1080 f   command.obj
 0001:001a00a0       ?run@?$_stdcmd@$0BAMG@@@SAXPAD0@Z 005a10a0 f   command.obj
 0001:001a00d0       ?run@?$_stdcmd@$0BAMF@@@SAXPAD@Z 005a10d0 f   command.obj
 0001:001a00f0       ?run@?$_stdcmd@$0BAME@@@SAXPAD@Z 005a10f0 f   command.obj
 0001:001a0110       ?run@?$_stdcmd@$0BAMC@@@SAXPAUtagval@@H@Z 005a1110 f   command.obj
 0001:001a01c0       ?run@?$_stdcmd@$0BAMB@@@SAXPAUtagval@@H@Z 005a11c0 f   command.obj
 0001:001a0270       ?run@?$_stdcmd@$0BAMA@@@SAXPAUtagval@@H@Z 005a1270 f   command.obj
 0001:001a0320       ?run@?$_stdcmd@$0BALP@@@SAXPAUtagval@@H@Z 005a1320 f   command.obj
 0001:001a03d0       ?run@?$_stdcmd@$0BALO@@@SAXPAUtagval@@H@Z 005a13d0 f   command.obj
 0001:001a0480       ?run@?$_stdcmd@$0BALN@@@SAXPAUtagval@@H@Z 005a1480 f   command.obj
 0001:001a0530       ?run@?$_stdcmd@$0BALM@@@SAXPAUtagval@@H@Z 005a1530 f   command.obj
 0001:001a05e0       ?run@?$_stdcmd@$0BAKN@@@SAXPAH0@Z 005a15e0 f   command.obj
 0001:001a0630       ?run@?$_stdcmd@$0BAKF@@@SAXPAH@Z 005a1630 f   command.obj
 0001:001a06c0       ?run@?$_stdcmd@$0BAJF@@@SAXPAH0@Z 005a16c0 f   command.obj
 0001:001a0700       ?run@?$_stdcmd@$0BAJD@@@SAXPAUtagval@@H@Z 005a1700 f   command.obj
 0001:001a0810       ?run@?$_stdcmd@$0BAJC@@@SAXPAUtagval@@H@Z 005a1810 f   command.obj
 0001:001a0940       ?run@?$_stdcmd@$0BAJB@@@SAXPAUtagval@@H@Z 005a1940 f   command.obj
 0001:001a0a30       ?run@?$_stdcmd@$0BAIA@@@SAXPAUtagval@@H@Z 005a1a30 f   command.obj
 0001:001a0b30       ?run@?$_stdcmd@$0BAGM@@@SAXPAM0@Z 005a1b30 f   command.obj
 0001:001a0c50       ?run@?$_stdcmd@$0BAGA@@@SAXPAM@Z 005a1c50 f   command.obj
 0001:001a0c80       ?run@?$_stdcmd@$0BAFP@@@SAXPAM@Z 005a1c80 f   command.obj
 0001:001a0cf0       ?run@?$_stdcmd@$0BAFN@@@SAXPAM@Z 005a1cf0 f   command.obj
 0001:001a0d10       ?run@?$_stdcmd@$0BAFM@@@SAXPAH@Z 005a1d10 f   command.obj
 0001:001a0d30       ?run@?$_stdcmd@$0BAFK@@@SAXPAH@Z 005a1d30 f   command.obj
 0001:001a0d50       ?run@?$_stdcmd@$0BAFI@@@SAXPAUtagval@@H@Z 005a1d50 f   command.obj
 0001:001a0df0       ?run@?$_stdcmd@$0BAFH@@@SAXPAUtagval@@H@Z 005a1df0 f   command.obj
 0001:001a0e90       ?run@?$_stdcmd@$0BAFG@@@SAXPAUtagval@@H@Z 005a1e90 f   command.obj
 0001:001a0ef0       ?run@?$_stdcmd@$0BAFF@@@SAXPAUtagval@@H@Z 005a1ef0 f   command.obj
 0001:001a0f50       ?run@?$_stdcmd@$0BAEL@@@SAXPAM@Z 005a1f50 f   command.obj
 0001:001a0f70       ?run@?$_stdcmd@$0BAEK@@@SAXPAM@Z 005a1f70 f   command.obj
 0001:001a0f90       ?run@?$_stdcmd@$0BAEJ@@@SAXPAM@Z 005a1f90 f   command.obj
 0001:001a0fc0       ?run@?$_stdcmd@$0BAEI@@@SAXPAM@Z 005a1fc0 f   command.obj
 0001:001a0fe0       ?run@?$_stdcmd@$0BAEH@@@SAXPAM@Z 005a1fe0 f   command.obj
 0001:001a1000       ?run@?$_stdcmd@$0BAEG@@@SAXPAM0@Z 005a2000 f   command.obj
 0001:001a1040       ?run@?$_stdcmd@$0BAEF@@@SAXPAM@Z 005a2040 f   command.obj
 0001:001a1070       ?run@?$_stdcmd@$0BAEE@@@SAXPAM@Z 005a2070 f   command.obj
 0001:001a10a0       ?run@?$_stdcmd@$0BAED@@@SAXPAM@Z 005a20a0 f   command.obj
 0001:001a10d0       ?run@?$_stdcmd@$0BAEC@@@SAXPAM@Z 005a20d0 f   command.obj
 0001:001a1100       ?run@?$_stdcmd@$0BAEB@@@SAXPAM@Z 005a2100 f   command.obj
 0001:001a1130       ?run@?$_stdcmd@$0BAEA@@@SAXPAM@Z 005a2130 f   command.obj
 0001:001a1160       ?run@?$_stdcmd@$0BADO@@@SAXPAUtagval@@H@Z 005a2160 f   command.obj
 0001:001a11f0       ?run@?$_stdcmd@$0BADN@@@SAXPAUtagval@@H@Z 005a21f0 f   command.obj
 0001:001a12c0       ?run@?$_stdcmd@$0BADM@@@SAXPAUtagval@@H@Z 005a22c0 f   command.obj
 0001:001a1400       ?run@?$_stdcmd@$0BADL@@@SAXPAUtagval@@H@Z 005a2400 f   command.obj
 0001:001a1490       ?run@?$_stdcmd@$0BADK@@@SAXPAUtagval@@H@Z 005a2490 f   command.obj
 0001:001a1520       ?run@?$_stdcmd@$0BADF@@@SAXPAUtagval@@H@Z 005a2520 f   command.obj
 0001:001a1610       ?run@?$_stdcmd@$0BACK@@@SAXPAUtagval@@H@Z 005a2610 f   command.obj
 0001:001a1710       ?run@?$_stdcmd@$0BABP@@@SAXPAUtagval@@@Z 005a2710 f   command.obj
 0001:001a1730       ?run@?$_stdcmd@$0BABN@@@SAXPAUtagval@@H@Z 005a2730 f   command.obj
 0001:001a1800       ?run@?$_stdcmd@$0BABM@@@SAXPAUtagval@@H@Z 005a2800 f   command.obj
 0001:001a18d0       ?run@?$_stdcmd@$0BABL@@@SAXPAUtagval@@H@Z 005a28d0 f   command.obj
 0001:001a19a0       ?run@?$_stdcmd@$0BABK@@@SAXPAUtagval@@H@Z 005a29a0 f   command.obj
 0001:001a1a70       ?run@?$_stdcmd@$0BABJ@@@SAXPAUtagval@@H@Z 005a2a70 f   command.obj
 0001:001a1b70       ?run@?$_stdcmd@$0BABI@@@SAXPAUtagval@@H@Z 005a2b70 f   command.obj
 0001:001a1c70       ?run@?$_stdcmd@$0BABH@@@SAXPAUtagval@@H@Z 005a2c70 f   command.obj
 0001:001a1d20       ?run@?$_stdcmd@$0BABG@@@SAXPAUtagval@@H@Z 005a2d20 f   command.obj
 0001:001a1de0       ?run@?$_stdcmd@$0BABF@@@SAXPAUtagval@@H@Z 005a2de0 f   command.obj
 0001:001a1e90       ?run@?$_stdcmd@$0BABD@@@SAXPAUtagval@@H@Z 005a2e90 f   command.obj
 0001:001a1f20       ?run@?$_stdcmd@$0BABC@@@SAXPAUtagval@@H@Z 005a2f20 f   command.obj
 0001:001a1fb0       ?run@?$_stdcmd@$0BABB@@@SAXPAUtagval@@H@Z 005a2fb0 f   command.obj
 0001:001a2020       ?run@?$_stdcmd@$0BABA@@@SAXPAUtagval@@H@Z 005a3020 f   command.obj
 0001:001a2090       ?run@?$_stdcmd@$0BAAP@@@SAXPAUtagval@@H@Z 005a3090 f   command.obj
 0001:001a2100       ?run@?$_stdcmd@$0BAAO@@@SAXPAUtagval@@H@Z 005a3100 f   command.obj
 0001:001a2170       ?run@?$_stdcmd@$0BAAN@@@SAXPAUtagval@@H@Z 005a3170 f   command.obj
 0001:001a21e0       ?run@?$_stdcmd@$0BAAM@@@SAXPAUtagval@@H@Z 005a31e0 f   command.obj
 0001:001a2250       ?run@?$_stdcmd@$0BAAL@@@SAXPAUtagval@@H@Z 005a3250 f   command.obj
 0001:001a22c0       ?run@?$_stdcmd@$0BAAK@@@SAXPAUtagval@@H@Z 005a32c0 f   command.obj
 0001:001a2330       ?run@?$_stdcmd@$0BAAJ@@@SAXPAUtagval@@H@Z 005a3330 f   command.obj
 0001:001a23a0       ?run@?$_stdcmd@$0BAAI@@@SAXPAUtagval@@H@Z 005a33a0 f   command.obj
 0001:001a2410       ?run@?$_stdcmd@$0BAAH@@@SAXPAUtagval@@H@Z 005a3410 f   command.obj
 0001:001a2480       ?run@?$_stdcmd@$0BAAG@@@SAXPAUtagval@@H@Z 005a3480 f   command.obj
 0001:001a24f0       ?run@?$_stdcmd@$0BAAF@@@SAXPAUtagval@@H@Z 005a34f0 f   command.obj
 0001:001a2560       ?run@?$_stdcmd@$0BAAE@@@SAXPAUtagval@@H@Z 005a3560 f   command.obj
 0001:001a25f0       ?run@?$_stdcmd@$0BAAD@@@SAXPAUtagval@@H@Z 005a35f0 f   command.obj
 0001:001a2660       ?run@?$_stdcmd@$0BAAC@@@SAXPAUtagval@@H@Z 005a3660 f   command.obj
 0001:001a2700       ?run@?$_stdcmd@$0PNM@@@SAXPADPAUident@@1PAI@Z 005a3700 f   command.obj
 0001:001a2720       ?sortlist@@YAXPADPAUident@@1PAI2@Z 005a3720 f   command.obj
 0001:001a2b10       ?findfile_@@YAXPAD@Z       005a3b10 f   command.obj
 0001:001a2c40       ?run@?$_stdcmd@$0PFN@@@SAXPAUident@@PAD1PAI@Z 005a3c40 f   command.obj
 0001:001a2ef0       ?listsplice@@YAXPBD0PAH1@Z 005a3ef0 f   command.obj
 0001:001a33b0       ?run@?$_stdcmd@$0PDC@@@SAXPBD0@Z 005a43b0 f   command.obj
 0001:001a3690       ?run@?$_stdcmd@$0PDB@@@SAXPBD0@Z 005a4690 f   command.obj
 0001:001a3910       ?run@?$_stdcmd@$0PDA@@@SAXPBD0@Z 005a4910 f   command.obj
 0001:001a3b90       ?run@?$_stdcmd@$0PBM@@@SAXPAD0@Z 005a4b90 f   command.obj
 0001:001a3bd0       ?listincludes@@YAHPBD0H@Z  005a4bd0 f   command.obj
 0001:001a3e40       ?prettylist@@YAXPBD0@Z     005a4e40 f   command.obj
 0001:001a4360       ?listcount@@YAXPAUident@@PBDPBI@Z 005a5360 f   command.obj
 0001:001a4570       ?listfilter@@YAXPAUident@@PBDPBI@Z 005a5570 f   command.obj
 0001:001a49c0       ?run@?$_stdcmd@$0ONA@@@SAXPAUident@@PADPAI@Z 005a59c0 f   command.obj
 0001:001a49e0       ?run@?$_stdcmd@$0OMP@@@SAXPAUident@@PADPAI@Z 005a59e0 f   command.obj
 0001:001a4a00       ?looplistconc@@YAXPAUident@@PBDPBI_N@Z 005a5a00 f   command.obj
 0001:001a4eb0       ?looplist3@@YAXPAUident@@00PBDPBI@Z 005a5eb0 f   command.obj
 0001:001a5110       ?looplist2@@YAXPAUident@@0PBDPBI@Z 005a6110 f   command.obj
 0001:001a54c0       ?loopsublist@@YAXPAUident@@PBDPAH2PBI@Z 005a64c0 f   command.obj
 0001:001a55f0       ?looplist@@YAXPAUident@@PBDPBI@Z 005a65f0 f   command.obj
 0001:001a57e0       ?run@?$_stdcmd@$0OHK@@@SAXPAD0@Z 005a67e0 f   command.obj
 0001:001a5930       ?run@?$_stdcmd@$0OHJ@@@SAXPADPAM@Z 005a6930 f   command.obj
 0001:001a5aa0       ?run@?$_stdcmd@$0OHI@@@SAXPADPAH@Z 005a6aa0 f   command.obj
 0001:001a5bc0       ?run@?$_stdcmd@$0OGM@@@SAXPAD0PAH@Z 005a6bc0 f   command.obj
 0001:001a5ee0       ?run@?$_stdcmd@$0OGL@@@SAXPADPAMPAH@Z 005a6ee0 f   command.obj
 0001:001a6010       ?run@?$_stdcmd@$0OGK@@@SAXPADPAH1@Z 005a7010 f   command.obj
 0001:001a62a0       ?listassoc@@YAXPAUident@@PBDPBI@Z 005a72a0 f   command.obj
 0001:001a6500       ?listfind@@YAXPAUident@@PBDPBI@Z 005a7500 f   command.obj
 0001:001a67f0       ?run@?$_stdcmd@$0OCI@@@SAXPAD@Z 005a77f0 f   command.obj
 0001:001a6870       ?sublist@@YAXPBDPAH11@Z    005a7870 f   command.obj
 0001:001a69f0       ?chopstr@@YAXPADPAH0@Z     005a79f0 f   command.obj
 0001:001a6ac0       ?substr@@YAXPADPAH11@Z     005a7ac0 f   command.obj
 0001:001a6b60       ?at@@YAXPAUtagval@@H@Z     005a7b60 f   command.obj
 0001:001a6ce0       ?run@?$_stdcmd@$0NOG@@@SAXPAD@Z 005a7ce0 f   command.obj
 0001:001a6d00       ?listlen@@YAHPBD@Z         005a7d00 f   command.obj
 0001:001a7240       ?format@@YAXPAUtagval@@H@Z 005a8240 f   command.obj
 0001:001a7600       ?run@?$_stdcmd@$0NHP@@@SAXPAUtagval@@@Z 005a8600 f   command.obj
 0001:001a7620       ?run@?$_stdcmd@$0NGJ@@@SAXPAUident@@PAUtagval@@@Z 005a8620 f   command.obj
 0001:001a7640       ?run@?$_stdcmd@$0NGI@@@SAXPAUident@@PAUtagval@@@Z 005a8640 f   command.obj
 0001:001a7660       ?append@@YAXPAUident@@PAUtagval@@_N@Z 005a8660 f   command.obj
 0001:001a7700       ?concatword@@YAXPAUtagval@@H@Z 005a8700 f   command.obj
 0001:001a7730       ?concat@@YAXPAUtagval@@H@Z 005a8730 f   command.obj
 0001:001a7760       ?run@?$_stdcmd@$0NFB@@@SAXPAUident@@PAH11PAI@Z 005a8760 f   command.obj
 0001:001a7790       ?run@?$_stdcmd@$0NFA@@@SAXPAUident@@PAH1PAI@Z 005a8790 f   command.obj
 0001:001a77c0       ?run@?$_stdcmd@$0NEP@@@SAXPAUident@@PAH1PAI@Z 005a87c0 f   command.obj
 0001:001a77f0       ?run@?$_stdcmd@$0NEO@@@SAXPAUident@@PAHPAI@Z 005a87f0 f   command.obj
 0001:001a7810       ?run@?$_stdcmd@$0NEN@@@SAXPAUident@@PAH11PAI@Z 005a8810 f   command.obj
 0001:001a7840       ?run@?$_stdcmd@$0NEM@@@SAXPAUident@@PAH1PAI@Z 005a8840 f   command.obj
 0001:001a7870       ?run@?$_stdcmd@$0NEL@@@SAXPAUident@@PAH1PAI@Z 005a8870 f   command.obj
 0001:001a78a0       ?run@?$_stdcmd@$0NEK@@@SAXPAUident@@PAHPAI@Z 005a88a0 f   command.obj
 0001:001a7cf0       ?run@?$_stdcmd@$0NDE@@@SAXPAI0@Z 005a8cf0 f   command.obj
 0001:001a7d30       ?run@?$_stdcmd@$0NDC@@@SAXPAUident@@PAH11PAI2@Z 005a8d30 f   command.obj
 0001:001a7d60       ?run@?$_stdcmd@$0NDB@@@SAXPAUident@@PAH1PAI2@Z 005a8d60 f   command.obj
 0001:001a7d90       ?run@?$_stdcmd@$0NDA@@@SAXPAUident@@PAH1PAI2@Z 005a8d90 f   command.obj
 0001:001a7dc0       ?run@?$_stdcmd@$0NCP@@@SAXPAUident@@PAHPAI2@Z 005a8dc0 f   command.obj
 0001:001a7f40       ?run@?$_stdcmd@$0NCB@@@SAXPAUident@@PAH11PAI@Z 005a8f40 f   command.obj
 0001:001a7f70       ?run@?$_stdcmd@$0NCA@@@SAXPAUident@@PAH1PAI@Z 005a8f70 f   command.obj
 0001:001a7f90       ?run@?$_stdcmd@$0NBP@@@SAXPAUident@@PAH1PAI@Z 005a8f90 f   command.obj
 0001:001a7fb0       ?run@?$_stdcmd@$0NBO@@@SAXPAUident@@PAHPAI@Z 005a8fb0 f   command.obj
 0001:001a81e0       ?run@?$_stdcmd@$0MOI@@@SAXPAUident@@PAUtagval@@PAI@Z 005a91e0 f   command.obj
 0001:001a8240       ?run@?$_stdcmd@$0MNK@@@SAXPAUtagval@@00@Z 005a9240 f   command.obj
 0001:001a8270       ?run@?$_stdcmd@$0MNJ@@@SAXPAUtagval@@PAI1@Z 005a9270 f   command.obj
 0001:001a8490       ?run@?$_stdcmd@$0MML@@@SAXPAI@Z 005a9490 f   command.obj
 0001:001a84a0       ?changedvars@@YAXXZ        005a94a0 f   command.obj
 0001:001a8620       ?writecfg@@YAXPBD@Z        005a9620 f   command.obj
 0001:001a8b80       ?validateblock@@YA_NPBD@Z  005a9b80 f   command.obj
 0001:001a8c70       ?run@?$_icmd_unescape@$0MEK@@@SAXPAD@Z 005a9c70 f   command.obj
 0001:001a8cd0       ?run@?$_icmd_escape@$0MED@@@SAXPAD@Z 005a9cd0 f   command.obj
 0001:001a8d30       ?run@?$_icmd_exec@$0MCO@@@SAXPADPAH@Z 005a9d30 f   command.obj
 0001:001a8d60       ?execidentbool@@YA_NPBD_N1@Z 005a9d60 f   command.obj
 0001:001a8e30       ?executebool@@YA_NPAUident@@PAUtagval@@H_N@Z 005a9e30 f   command.obj
 0001:001adc10       ?run@?$_icmd_printvar@$0IFH@@@SAXPAUident@@@Z 005aec10 f   command.obj
 0001:001adc20       ?printvar@@YAXPAUident@@@Z 005aec20 f   command.obj
 0001:001adda0       ?printsvar@@YAXPAUident@@PBD@Z 005aeda0 f   command.obj
 0001:001adde0       ?printvar@@YAXPAUident@@H@Z 005aede0 f   command.obj
 0001:001b28b0       ?unescapestring@@YAHPADPBD1@Z 005b38b0 f   command.obj
 0001:001b2910       ?parsestring@@YAPBDPBD@Z   005b3910 f   command.obj
 0001:001b29b0       ?run@?$_icmd_set@$0DEM@@@SAXPAUident@@PAUtagval@@@Z 005b39b0 f   command.obj
 0001:001b2a80       ?clampfvar@@YAMPAUident@@MMM@Z 005b3a80 f   command.obj
 0001:001b2ba0       ?clampvar@@YAHPAUident@@HHH@Z 005b3ba0 f   command.obj
 0001:001b2c00       ?run@?$_icmd_getalias@$0CNF@@@SAXPAD@Z 005b3c00 f   command.obj
 0001:001b2c90       ?getalias@@YAPBDPBD@Z      005b3c90 f   command.obj
 0001:001b2ce0       ?run@?$_icmd_identexists@$0CLO@@@SAXPAD@Z 005b3ce0 f   command.obj
 0001:001b2d10       ?identexists@@YA_NPBD@Z    005b3d10 f   command.obj
 0001:001b2d30       ?run@?$_icmd_getfvarmax@$0CLL@@@SAXPAD@Z 005b3d30 f   command.obj
 0001:001b2d80       ?run@?$_icmd_getfvarmin@$0CLK@@@SAXPAD@Z 005b3d80 f   command.obj
 0001:001b2dd0       ?run@?$_icmd_getvarmax@$0CLJ@@@SAXPAD@Z 005b3dd0 f   command.obj
 0001:001b2e10       ?run@?$_icmd_getvarmin@$0CLI@@@SAXPAD@Z 005b3e10 f   command.obj
 0001:001b2e50       ?getfvarmax@@YAMPBD@Z      005b3e50 f   command.obj
 0001:001b2e80       ?getfvarmin@@YAMPBD@Z      005b3e80 f   command.obj
 0001:001b2eb0       ?getvarmax@@YAHPBD@Z       005b3eb0 f   command.obj
 0001:001b2ed0       ?getvarmin@@YAHPBD@Z       005b3ed0 f   command.obj
 0001:001b2ef0       ?run@?$_icmd_defsvarp@$0CGL@@@SAXPAD00@Z 005b3ef0 f   command.obj
 0001:001b2fa0       ?run@?$_icmd_defsvar@$0CGK@@@SAXPAD00@Z 005b3fa0 f   command.obj
 0001:001b3050       ?run@?$_icmd_deffvarp@$0CGJ@@@SAXPADPAM110@Z 005b4050 f   command.obj
 0001:001b3160       ?run@?$_icmd_deffvar@$0CGI@@@SAXPADPAM110@Z 005b4160 f   command.obj
 0001:001b3260       ?run@?$_icmd_defvarp@$0CGH@@@SAXPADPAH110@Z 005b4260 f   command.obj
 0001:001b3350       ?run@?$_icmd_defvar@$0CGG@@@SAXPADPAH110@Z 005b4350 f   command.obj
 0001:001b3450       ?run@?$_icmd_alias@$0CCG@@@SAXPBDPAUtagval@@@Z 005b4450 f   command.obj
 0001:001b3720       ?resetvar@@YAXPAD@Z        005b4720 f   command.obj
 0001:001b3750       ?readident@@YAPAUident@@PBD@Z 005b4750 f   command.obj
 0001:001b3790       ?newident@@YAPAUident@@PBDH@Z 005b4790 f   command.obj
 0001:001b39a0       ?run@?$_icmd_push@$0BHE@@@SAXPAUident@@PAUtagval@@PAI@Z 005b49a0 f   command.obj
 0001:001b3b80       ?run@?$_icmd_nodebug@$0BBL@@@SAXPAI@Z 005b4b80 f   command.obj
 0001:001b4210       ?clearoverride@@YAXAAUident@@@Z 005b5210 f   command.obj
 0001:001b42b0       ?clear_command@@YAXXZ      005b52b0 f   command.obj
 0001:001b46a0       ?executeret@@YAXPBIAAUtagval@@@Z 005b56a0 f   command.obj
 0001:001b46b0       ?compilecode@@YAPAIPBD@Z   005b56b0 f   command.obj
 0001:001b4910       ?freecode@@YAXPAI@Z        005b5910 f   command.obj
 0001:001b4990       ?executeret@@YAXPAUident@@PAUtagval@@H_NAAU2@@Z 005b5990 f   command.obj
 0001:001b4cb0       ?cleanup@tagval@@QAEXXZ    005b5cb0 f   command.obj
 0001:001b4cf0       ?setvarchecked@@YAXPAUident@@H@Z 005b5cf0 f   command.obj
 0001:001b4de0       ?setfvarchecked@@YAXPAUident@@M@Z 005b5de0 f   command.obj
 0001:001b4f80       ?setsvarchecked@@YAXPAUident@@PBD@Z 005b5f80 f   command.obj
 0001:001b5070       ?numberstr@@YAPBDN@Z       005b6070 f   command.obj
 0001:001b5100       ?alias@@YAXPBD0@Z          005b6100 f   command.obj
 0001:001b5160       ?execute@@YAHPAUident@@PAUtagval@@H_N@Z 005b6160 f   command.obj
 0001:001b5210       ?executestr@@YAPADPAUident@@PAUtagval@@H_N@Z 005b6210 f   command.obj
 0001:001b5250       ?result@@YAXAAUtagval@@@Z  005b6250 f   command.obj
 0001:001b5270       ?explodelist@@YAXPBDAAU?$vector@PAD@@H@Z 005b6270 f   command.obj
 0001:001b5390       ?printfvar@@YAXPAUident@@M@Z 005b6390 f   command.obj
 0001:001b53f0       ?escapestring@@YAPBDPBD@Z  005b63f0 f   command.obj
 0001:001b5630       ?escapeid@@YAPBDPBD@Z      005b6630 f   command.obj
 0001:001b5660       ?getident@@YAPAUident@@PBD@Z 005b6660 f   command.obj
 0001:001b5670       ?setfvar@@YAXPBDM_N1@Z     005b6670 f   command.obj
 0001:001b5700       ?setsvar@@YAXPBD0_N@Z      005b6700 f   command.obj
 0001:001b57c0       ?intstr@@YAPBDH@Z          005b67c0 f   command.obj
 0001:001b5810       ?svariable@@YAPADPBD0PAPADP6AXPAUident@@@ZH@Z 005b6810 f   command.obj
 0001:001b5890       ?executebool@@YA_NPBI@Z    005b6890 f   command.obj
 0001:001b5940       ?clearoverrides@@YAXXZ     005b6940 f   command.obj
 0001:001b5a60       ?clearsleep@@YAX_N@Z       005b6a60 f   command.obj
 0001:001b5ad0       ?setvar@@YAXPBDH_N1@Z      005b6ad0 f   command.obj
 0001:001b5b80       ?execfile@@YA_NPBD_N@Z     005b6b80 f   command.obj
 0001:001b5d20       ?execident@@YAHPBDH_N@Z    005b6d20 f   command.obj
 0001:001b5d50       ?floatstr@@YAPBDM@Z        005b6d50 f   command.obj
 0001:001b5d90       ?execute@@YAHPBI@Z         005b6d90 f   command.obj
 0001:001b5e30       ?floatret@@YAXM@Z          005b6e30 f   command.obj
 0001:001b5e50       ?stringret@@YAXPAD@Z       005b6e50 f   command.obj
 0001:001b5e60       ?loopiter@@YAXPAUident@@AAUidentstack@@ABUtagval@@@Z 005b6e60 f   command.obj
 0001:001b5ee0       ?loopend@@YAXPAUident@@AAUidentstack@@@Z 005b6ee0 f   command.obj
 0001:001b5ef0       ?fvariable@@YAMPBDMMMPAMP6AXPAUident@@@ZH@Z 005b6ef0 f   command.obj
 0001:001b5f50       ?result@@YAXPBD@Z          005b6f50 f   command.obj
 0001:001b5fa0       ?intret@@YAXH@Z            005b6fa0 f   command.obj
 0001:001b5fb0       ?variable@@YAHPBDHHHPAHP6AXPAUident@@@ZH@Z 005b6fb0 f   command.obj
 0001:001b6010       ?execute@@YAHPBD@Z         005b7010 f   command.obj
 0001:001b62d0       ?addcommand@@YA_NPBDP6AXPAUident@@@Z0H@Z 005b72d0 f   command.obj
 0001:001b6b10       ?complete@@YAXPADHPBD@Z    005b7b10 f   console.obj
 0001:001b6fb0       ?addlistcomplete@@YAXPAD0@Z 005b7fb0 f   console.obj
 0001:001b6fd0       ?addvarcomplete@@YAXPAD00@Z 005b7fd0 f   console.obj
 0001:001b6ff0       ?addfilecomplete@@YAXPAD00@Z 005b7ff0 f   console.obj
 0001:001b7010       ?addcomplete@@YAXPADH00@Z  005b8010 f   console.obj
 0001:001b7390       ?resetcomplete@@YAXXZ      005b8390 f   console.obj
 0001:001b7490       ?clear_console@@YAXXZ      005b8490 f   console.obj
 0001:001b74e0       ?processkey@@YAXH_NH@Z     005b84e0 f   console.obj
 0001:001b7660       ?processtextinput@@YAXPBDH@Z 005b8660 f   console.obj
 0001:001b7720       ?consolekey@@YA_NH_N@Z     005b8720 f   console.obj
 0001:001b8030       ?consoleinput@@YA_NPBDH@Z  005b9030 f   console.obj
 0001:001b80e0       ?execbind@@YAXAAUkeym@@_N@Z 005b90e0 f   console.obj
 0001:001b8260       ?onrelease@@YAXPBD@Z       005b9260 f   console.obj
 0001:001b82d0       ?addreleaseaction@@YAPBDPAD@Z 005b92d0 f   console.obj
 0001:001b8310       ?history_@@YAXPAH@Z        005b9310 f   console.obj
 0001:001b8350       ?pasteconsole@@YAXXZ       005b9350 f   console.obj
 0001:001b83c0       ?run@?$_icmd_saycommand@$0BDF@@@SAXPAD@Z 005b93c0 f   console.obj
 0001:001b84d0       ?inputcommand@@YAXPAD000@Z 005b94d0 f   console.obj
 0001:001b8650       ?run@?$_icmd_clearallbinds@$0BBO@@@SAXXZ 005b9650 f   console.obj
 0001:001b86e0       ?run@?$_icmd_cleareditbinds@$0BBN@@@SAXXZ 005b96e0 f   console.obj
 0001:001b8760       ?run@?$_icmd_clearspecbinds@$0BBM@@@SAXXZ 005b9760 f   console.obj
 0001:001b87e0       ?run@?$_icmd_clearbinds@$0BBL@@@SAXXZ 005b97e0 f   console.obj
 0001:001b8860       ?clear@keym@@QAEXH@Z       005b9860 f   console.obj
 0001:001b88b0       ?run@?$_icmd_searcheditbinds@$0BAP@@@SAXPAD@Z 005b98b0 f   console.obj
 0001:001b88c0       ?run@?$_icmd_searchspecbinds@$0BAO@@@SAXPAD@Z 005b98c0 f   console.obj
 0001:001b88d0       ?run@?$_icmd_searchbinds@$0BAN@@@SAXPAD@Z 005b98d0 f   console.obj
 0001:001b88e0       ?run@?$_icmd_geteditbind@$0BAM@@@SAXPAD@Z 005b98e0 f   console.obj
 0001:001b88f0       ?run@?$_icmd_getspecbind@$0BAL@@@SAXPAD@Z 005b98f0 f   console.obj
 0001:001b8900       ?run@?$_icmd_getbind@$0BAK@@@SAXPAD@Z 005b9900 f   console.obj
 0001:001b8910       ?run@?$_icmd_editbind@$0BAJ@@@SAXPAD0@Z 005b9910 f   console.obj
 0001:001b8930       ?run@?$_icmd_specbind@$0BAI@@@SAXPAD0@Z 005b9930 f   console.obj
 0001:001b8950       ?run@?$_icmd_bind@$0BAH@@@SAXPAD0@Z 005b9950 f   console.obj
 0001:001b8970       ?bindkey@@YAXPAD0HPBD@Z    005b9970 f   console.obj
 0001:001b8a30       ?getbind@@YAXPADH@Z        005b9a30 f   console.obj
 0001:001b8a90       ?findbind@@YAPAUkeym@@PAD@Z 005b9a90 f   console.obj
 0001:001b8af0       ?searchbinds@@YAXPADH@Z    005b9af0 f   console.obj
 0001:001b8e30       ?keymap@@YAXPAHPAD@Z       005b9e30 f   console.obj
 0001:001b8ef0       ?drawconlines@@YAMHHMMMHMH@Z 005b9ef0 f   console.obj
 0001:001b9180       ?run@?$_icmd_clearconsole@$0GN@@@SAXXZ 005ba180 f   console.obj
 0001:001b91e0       ?run@?$_icmd_miniconskip@$0GL@@@SAXPAH@Z 005ba1e0 f   console.obj
 0001:001b9200       ?run@?$_icmd_conskip@$0GK@@@SAXPAH@Z 005ba200 f   console.obj
 0001:001b9280       ?setconskip@@YAXAAHHH@Z    005ba280 f   console.obj
 0001:001b9330       ?run@?$_icmd_toggleconsole@$0DM@@@SAXXZ 005ba330 f   console.obj
 0001:001b9370       ?run@?$_icmd_fullconsole@$0DL@@@SAXPAH0PAUident@@@Z 005ba370 f   console.obj
 0001:001b9430       ?conline@@YAXHPBD@Z        005ba430 f   console.obj
 0001:001b96f0       ?var_maxcon@@YAXPAUident@@@Z 005ba6f0 f   console.obj
 0001:001b9760       ?conoutfv@@YAXHPBDPAD@Z    005ba760 f   console.obj
 0001:001b97b0       ?addreleaseaction@@YAPAUtagval@@PAUident@@H@Z 005ba7b0 f   console.obj
 0001:001b97f0       ?writebinds@@YAXPAUstream@@@Z 005ba7f0 f   console.obj
 0001:001b9a40       ?writecompletions@@YAXPAUstream@@@Z 005baa40 f   console.obj
 0001:001b9d60       ?renderfullconsole@@YAMMM@Z 005bad60 f   console.obj
 0001:001b9dc0       ?getkeyname@@YAPBDH@Z      005badc0 f   console.obj
 0001:001b9df0       ?rendercommand@@YAMMMM@Z   005badf0 f   console.obj
 0001:001b9ee0       ?renderconsole@@YAMMMM@Z   005baee0 f   console.obj
 0001:001ba330       ?var_clockfix@@YAXPAUident@@@Z 005bb330 f   main.obj
 0001:001ba350       ?var_clockerror@@YAXPAUident@@@Z 005bb350 f   main.obj
 0001:001ba3d0       ?getfps_@@YAXPAH@Z         005bb3d0 f   main.obj
 0001:001ba450       ?updatefpshistory@@YAXH@Z  005bb450 f   main.obj
 0001:001ba490       ?resetfpshistory@@YAXXZ    005bb490 f   main.obj
 0001:001ba4b0       ?stackdumper@@YAXIPAU_EXCEPTION_POINTERS@@@Z 005bb4b0 f   main.obj
 0001:001ba680       ?limitfps@@YAXAAHH@Z       005bb680 f   main.obj
 0001:001ba710       ?swapbuffers@@YAX_N@Z      005bb710 f   main.obj
 0001:001ba870       ?checkinput@@YAXXZ         005bb870 f   main.obj
 0001:001bb450       ?resetgl@@YAXXZ            005bc450 f   main.obj
 0001:001bb980       ?setupscreen@@YAXXZ        005bc980 f   main.obj
 0001:001bbbd0       ?var_vsynctear@@YAXPAUident@@@Z 005bcbd0 f   main.obj
 0001:001bbbe0       ?var_vsync@@YAXPAUident@@@Z 005bcbe0 f   main.obj
 0001:001bbc30       ?restorevsync@@YAXXZ       005bcc30 f   main.obj
 0001:001bbc80       ?cleargamma@@YAXXZ         005bcc80 f   main.obj
 0001:001bbcb0       ?restoregamma@@YAXXZ       005bccb0 f   main.obj
 0001:001bbcd0       ?var_gamma@@YAXPAUident@@@Z 005bccd0 f   main.obj
 0001:001bbd50       ?run@?$_icmd_screenres@$0CAH@@@SAXPAH0@Z 005bcd50 f   main.obj
 0001:001bbe30       ?screenres@@YAXHH@Z        005bce30 f   main.obj
 0001:001bbf00       ?var_fullscreen@@YAXPAUident@@@Z 005bcf00 f   main.obj
 0001:001bbf80       ?setfullscreen@@YAX_N@Z    005bcf80 f   main.obj
 0001:001bbff0       ?inputgrab@@YAX_N0@Z       005bcff0 f   main.obj
 0001:001bc0b0       ?renderprogressview@@YAXHHMPBD@Z 005bd0b0 f   main.obj
 0001:001bc4b0       ?restorebackground@@YAXHH_N@Z 005bd4b0 f   main.obj
 0001:001bc540       ?setbackgroundinfo@@YAXPBDPAUTexture@@00@Z 005bd540 f   main.obj
 0001:001bc600       ?renderbackgroundview@@YAXHHPBDPAUTexture@@00@Z 005bd600 f   main.obj
 0001:001bcd50       ?bgquad@@YAXMMMMMMMM@Z     005bdd50 f   main.obj
 0001:001bd000       ?writeinitcfg@@YAXXZ       005be000 f   main.obj
 0001:001bd0f0       ?var_screenh@@YAXPAUident@@@Z 005be0f0 f   main.obj
 0001:001bd110       ?var_screenw@@YAXPAUident@@@Z 005be110 f   main.obj
 0001:001bd130       ?quit@@YAXXZ               005be130 f   main.obj
 0001:001bd170       ?cleanup@@YAXXZ            005be170 f   main.obj
 0001:001bd530       ?textinput@@YAX_NH@Z       005be530 f   main.obj
 0001:001bd580       ?initwarning@@YA_NPBDHH@Z  005be580 f   main.obj
 0001:001bd700       ?getclockmillis@@YAHXZ     005be700 f   main.obj
 0001:001bd750       ?getfps@@YAXAAH00@Z        005be750 f   main.obj
 0001:001bd8a0       ?fatal@@YAXPBDZZ           005be8a0 f   main.obj
 0001:001bd950       _SDL_main                  005be950 f   main.obj
 0001:001be120       ?keyrepeat@@YAX_NH@Z       005bf120 f   main.obj
 0001:001be140       ?interceptkey@@YA_NH@Z     005bf140 f   main.obj
 0001:001be1e0       ?renderprogress@@YAXMPBD_N@Z 005bf1e0 f   main.obj
 0001:001be3e0       ?renderbackground@@YAXPBDPAUTexture@@00_N@Z 005bf3e0 f   main.obj
 0001:001be610       ?run@?$_icmd_pendingchanges@$0DF@@@SAXPAH@Z 005bf610 f   menus.obj
 0001:001be650       ?applychanges@@YAXXZ       005bf650 f   menus.obj
 0001:001be7a0       ?notifywelcome@@YAXXZ      005bf7a0 f   menus.obj
 0001:001be7e0       ?addchange@@YAXPBDH@Z      005bf7e0 f   menus.obj
 0001:001be940       ?menuprocess@@YAXXZ        005bf940 f   menus.obj
 0001:001be9c0       ?clearchanges@@YAXH@Z      005bf9c0 f   menus.obj
 0001:001bea90       ?clearmainmenu@@YAXXZ      005bfa90 f   menus.obj
 0001:001beb10       ?run@?$_icmd_movierecording@$0EIN@@@SAXXZ 005bfb10 f   movie.obj
 0001:001beb30       ?movie@@YAXPAD@Z           005bfb30 f   movie.obj
 0001:001beb80       ?drawhud@recorder@@YAXXZ   005bfb80 f   movie.obj
 0001:001beda0       ?readbuffer@recorder@@YA_NXZ 005bfda0 f   movie.obj
 0001:001beed0       ?readbuffer@recorder@@YAXAAUvideobuffer@1@I@Z 005bfed0 f   movie.obj
 0001:001bf920       ?start@recorder@@YAXPBDHHH_N@Z 005c0920 f   movie.obj
 0001:001bfc90       ?soundencoder@recorder@@YAXPAXPAEH@Z 005c0c90 f   movie.obj
 0001:001bfdb0       ?videoencoder@recorder@@YAHPAX@Z 005c0db0 f   movie.obj
 0001:001c0090       ?gettime@recorder@@YAHXZ   005c1090 f   movie.obj
 0001:001c00f0       ?calcquality@recorder@@YAMXZ 005c10f0 f   movie.obj
 0001:001c0150       ?isrecording@recorder@@YA_NXZ 005c1150 f   movie.obj
 0001:001c0160       ?stop@recorder@@YAXXZ      005c1160 f   movie.obj
 0001:001c02e0       ?cleanup@recorder@@YAXXZ   005c12e0 f   movie.obj
 0001:001c0380       ?capture@recorder@@YAX_N@Z 005c1380 f   movie.obj
 0001:001c0590       ?updatemumble@@YAXXZ       005c1590 f   sound.obj
 0001:001c0740       ?closemumble@@YAXXZ        005c1740 f   sound.obj
 0001:001c0780       ?var_mumble@@YAXPAUident@@@Z 005c1780 f   sound.obj
 0001:001c07d0       ?resetsound@@YAXXZ         005c17d0 f   sound.obj
 0001:001c0940       ?run@?$_icmd_playsound@$0COA@@@SAXPAH@Z 005c1940 f   sound.obj
 0001:001c0960       ?playsound@@YAHHPBUvec@@PAUextentity@@HHHHHH@Z 005c1960 f   sound.obj
 0001:001c0d70       ?preloadmapsound@@YAXH@Z   005c1d70 f   sound.obj
 0001:001c0d80       ?preloadsound@@YAXH@Z      005c1d80 f   sound.obj
 0001:001c0d90       ?syncchannels@@YAXXZ       005c1d90 f   sound.obj
 0001:001c0e20       ?reclaimchannels@@YAXXZ    005c1e20 f   sound.obj
 0001:001c0ea0       ?updatechannel@@YA_NAAUsoundchannel@@@Z 005c1ea0 f   sound.obj
 0001:001c1090       ?checkmapsounds@@YAXXZ     005c2090 f   sound.obj
 0001:001c11c0       ?stopmapsound@@YAXPAUextentity@@@Z 005c21c0 f   sound.obj
 0001:001c1240       ?stopmapsounds@@YAXXZ      005c2240 f   sound.obj
 0001:001c12c0       ?resetchannels@@YAXXZ      005c22c0 f   sound.obj
 0001:001c1320       ?mapsoundreset@@YAXXZ      005c2320 f   sound.obj
 0001:001c1330       ?soundreset@@YAXXZ         005c2330 f   sound.obj
 0001:001c1340       ?run@?$_icmd_nummapsounds@$0BMG@@@SAXXZ 005c2340 f   sound.obj
 0001:001c1360       ?run@?$_icmd_numsounds@$0BMF@@@SAXXZ 005c2360 f   sound.obj
 0001:001c1380       ?altmapsound@@YAXPADPAH@Z  005c2380 f   sound.obj
 0001:001c13b0       ?altsound@@YAXPADPAH@Z     005c23b0 f   sound.obj
 0001:001c13e0       ?mapsound@@YAXPADPAH1@Z    005c23e0 f   sound.obj
 0001:001c1420       ?registersound@@YAXPADPAH@Z 005c2420 f   sound.obj
 0001:001c1450       ?load@soundsample@@QAE_NPBD_N@Z 005c2450 f   sound.obj
 0001:001c1650       ?startmusic@@YAXPAD0@Z     005c2650 f   sound.obj
 0001:001c17a0       ?loadmusic@@YAPAU_Mix_Music@@PBD@Z 005c27a0 f   sound.obj
 0001:001c18a0       ?musicdone@@YAXXZ          005c28a0 f   sound.obj
 0001:001c1950       ?initaudio@@YA_NXZ         005c2950 f   sound.obj
 0001:001c1b20       ?var_soundbufferlen@@YAXPAUident@@@Z 005c2b20 f   sound.obj
 0001:001c1b40       ?var_soundfreq@@YAXPAUident@@@Z 005c2b40 f   sound.obj
 0001:001c1b60       ?var_soundchans@@YAXPAUident@@@Z 005c2b60 f   sound.obj
 0001:001c1b80       ?var_sound@@YAXPAUident@@@Z 005c2b80 f   sound.obj
 0001:001c1ba0       ?var_audiodriver@@YAXPAUident@@@Z 005c2ba0 f   sound.obj
 0001:001c1bc0       ?stopmusic@@YAXXZ          005c2bc0 f   sound.obj
 0001:001c1c70       ?setmusicvol@@YAXH@Z       005c2c70 f   sound.obj
 0001:001c1cb0       ?var_musicvol@@YAXPAUident@@@Z 005c2cb0 f   sound.obj
 0001:001c1d00       ?var_soundvol@@YAXPAUident@@@Z 005c2d00 f   sound.obj
 0001:001c1df0       ?stopchannels@@YAXXZ       005c2df0 f   sound.obj
 0001:001c1e60       ?syncchannel@@YAXAAUsoundchannel@@@Z 005c2e60 f   sound.obj
 0001:001c1eb0       ?freechannel@@YAXH@Z       005c2eb0 f   sound.obj
 0001:001c1ef0       ?newchannel@@YAAAUsoundchannel@@HPAUsoundslot@@PBUvec@@PAUextentity@@HH@Z 005c2ef0 f   sound.obj
 0001:001c2110       ?stopsounds@@YAXXZ         005c3110 f   sound.obj
 0001:001c2180       ?initsound@@YAXXZ          005c3180 f   sound.obj
 0001:001c2440       ?initmumble@@YAXXZ         005c3440 f   sound.obj
 0001:001c2500       ?updatesounds@@YAXXZ       005c3500 f   sound.obj
 0001:001c2990       ?clear_sound@@YAXXZ        005c3990 f   sound.obj
 0001:001c2aa0       ?preloadmapsounds@@YAXXZ   005c3aa0 f   sound.obj
 0001:001c2b20       ?clearmapsounds@@YAXXZ     005c3b20 f   sound.obj
 0001:001c2d40       ?var_stainfade@@YAXPAUident@@@Z 005c3d40 f   stain.obj
 0001:001c2d50       ?var_maxstaintris@@YAXPAUident@@@Z 005c3d50 f   stain.obj
 0001:001c2d60       ?cleanupstains@@YAXXZ      005c3d60 f   stain.obj
 0001:001c2db0       ?initstains@@YAXXZ         005c3db0 f   stain.obj
 0001:001c2f80       ?addstain@@YAXHABUvec@@0MABUbvec@@H@Z 005c3f80 f   stain.obj
 0001:001c3030       ?renderstains@@YA_NH_NH@Z  005c4030 f   stain.obj
 0001:001c3320       ?genstainmmtri@@YAXPAUstainrenderer@@QBUvec@@@Z 005c4320 f   stain.obj
 0001:001c3330       ?clearstains@@YAXXZ        005c4330 f   stain.obj
 0001:001c3760       ?checkchallenge@@YA_NPBDPAX@Z 005c4760 f   crypto.obj
 0001:001c37b0       ?freechallenge@@YAXPAX@Z   005c47b0 f   crypto.obj
 0001:001c37c0       ?genchallenge@@YAPAXPAXPBXHAAU?$vector@D@@@Z 005c47c0 f   crypto.obj
 0001:001c3980       ?freepubkey@@YAXPAX@Z      005c4980 f   crypto.obj
 0001:001c3990       ?parsepubkey@@YAPAXPBD@Z   005c4990 f   crypto.obj
 0001:001c39f0       ?answerchallenge@@YAXPBD0AAU?$vector@D@@@Z 005c49f0 f   crypto.obj
 0001:001c3a60       ?hashstring@@YA_NPBDPADH@Z 005c4a60 f   crypto.obj
 0001:001c3b70       ?genprivkey@@YAXPBDAAU?$vector@D@@1@Z 005c4b70 f   crypto.obj
 0001:001c3ca0       ?calcpubkey@@YA_NPBDAAU?$vector@D@@@Z 005c4ca0 f   crypto.obj
 0001:001c3cf0       ?calcpubkey@@YAXU?$bigint@$0N@@@AAU?$vector@D@@@Z 005c4cf0 f   crypto.obj
 0001:001c3dc0       ?hash@tiger@@YAXPBEHAAThashval@1@@Z 005c4dc0 f   crypto.obj
 0001:001c3ee0       ?gensboxes@tiger@@YAXXZ    005c4ee0 f   crypto.obj
 0001:001c40d0       ?compress@tiger@@YAXPB_KQA_K@Z 005c50d0 f   crypto.obj
 0001:001c4b10       ?linecylinderintersect@@YA_NABUvec@@000MAAM@Z 005c5b10 f   geom.obj
 0001:001c4fa0       ?invert@matrix4@@QAE_NABU1@N@Z 005c5fa0 f   geom.obj
 0001:001c5660       ?polyclip@@YAHPBUvec@@HABU1@MMPAU1@@Z 005c6660 f   geom.obj
 0001:001c5a20       ?rayboxintersect@@YA_NABUvec@@000AAMAAH@Z 005c6a20 f   geom.obj
 0001:001c5e10       ?multidraw@gle@@YAXXZ      005c6e10 f   glemu.obj
 0001:001c5eb0       ?setup@gle@@YAXXZ          005c6eb0 f   glemu.obj
 0001:001c5f20       ?cleanup@gle@@YAXXZ        005c6f20 f   glemu.obj
 0001:001c5fa0       ?enablequads@gle@@YAXXZ    005c6fa0 f   glemu.obj
 0001:001c6060       ?drawquads@gle@@YAXHH@Z    005c7060 f   glemu.obj
 0001:001c60d0       ?disablequads@gle@@YAXXZ   005c70d0 f   glemu.obj
 0001:001c6100       ?begin@gle@@YAXIH@Z        005c7100 f   glemu.obj
 0001:001c61f0       ?defattrib@gle@@YAXHHH@Z   005c71f0 f   glemu.obj
 0001:001c6420       ?begin@gle@@YAXI@Z         005c7420 f   glemu.obj
 0001:001c6430       ?end@gle@@YAHXZ            005c7430 f   glemu.obj
 0001:001c6720       ?forcedisable@gle@@YAXXZ   005c7720 f   glemu.obj
 0001:001c6860       ?opentempfile@@YAPAUstream@@PBD0@Z 005c7860 f   stream.obj
 0001:001c6910       ?openrawfile@@YAPAUstream@@PBD0@Z 005c7910 f   stream.obj
 0001:001c69c0       ?printf@stream@@UAAIPBDZZ  005c79c0 f   stream.obj
 0001:001c6a90       ?getline@stream@@UAE_NPADI@Z 005c7a90 f   stream.obj
 0001:001c6b00       ?size@stream@@UAE_JXZ      005c7b00 f   stream.obj
 0001:001c6c50       ?listdir@@YA_NPBD_N0AAU?$vector@PAD@@@Z 005c7c50 f   stream.obj
 0001:001c6e70       ?subhomedir@@YA_NPADHPBD@Z 005c7e70 f   stream.obj
 0001:001c6f20       ?fixpackagedir@@YAIPAD@Z   005c7f20 f   stream.obj
 0001:001c6f50       ?sethomedir@@YAPBDPBD@Z    005c7f50 f   stream.obj
 0001:001c7020       ?addpackagedir@@YAPBDPBD@Z 005c8020 f   stream.obj
 0001:001c73a0       ?decodeutf8@@YAIPAEIPBEIPAI@Z 005c83a0 f   stream.obj
 0001:001c7590       ?conoutf@@YAXHHPBDZZ       005c8590 f   stream.obj
 0001:001c75f0       ?loadfile@@YAPADPBDPAI_N@Z 005c85f0 f   stream.obj
 0001:001c76f0       ?listfiles@@YAHPBD0AAU?$vector@PAD@@@Z 005c86f0 f   stream.obj
 0001:001c7890       ?rwops@stream@@QAEPAUSDL_RWops@@XZ 005c8890 f   stream.obj
 0001:001c78c0       ?createdir@@YA_NPBD@Z      005c88c0 f   stream.obj
 0001:001c7920       ?parentdir@@YAPBDPBD@Z     005c8920 f   stream.obj
 0001:001c7990       ?encodeutf8@@YAIPAEIPBEIPAI@Z 005c8990 f   stream.obj
 0001:001c7af0       ?findfile@@YAPBDPBD0@Z     005c8af0 f   stream.obj
 0001:001c7d30       ?openfile@@YAPAUstream@@PBD0@Z 005c8d30 f   stream.obj
 0001:001c7d50       ?makerelpath@@YAPADPBD000@Z 005c8d50 f   stream.obj
 0001:001c7ec0       ?conoutf@@YAXPBDZZ         005c8ec0 f   stream.obj
 0001:001c7f10       ?openutf8file@@YAPAUstream@@PBD0PAU1@@Z 005c8f10 f   stream.obj
 0001:001c8050       ?path@@YAPADPBD_N@Z        005c9050 f   stream.obj
 0001:001c80a0       ?fileexists@@YA_NPBD0@Z    005c90a0 f   stream.obj
 0001:001c80e0       ?opengzfile@@YAPAUstream@@PBD0PAU1@H@Z 005c90e0 f   stream.obj
 0001:001c8300       ?path@@YAPADPAD@Z          005c9300 f   stream.obj
 0001:001c8450       ?conoutf@@YAXHPBDZZ        005c9450 f   stream.obj
 0001:001c8cd0       ?parse@ipmask@@QAEXPBD@Z   005c9cd0 f   tools.obj
 0001:001c8db0       ?sendstring@@YAXPBDAAU?$databuf@E@@@Z 005c9db0 f   tools.obj
 0001:001c8de0       ?putfloat@@YAXAAU?$databuf@E@@M@Z 005c9de0 f   tools.obj
 0001:001c8e20       ?putuint@@YAXAAUpacketbuf@@H@Z 005c9e20 f   tools.obj
 0001:001c8f00       ?putuint@@YAXAAU?$databuf@E@@H@Z 005c9f00 f   tools.obj
 0001:001c8f10       ?seedMT@@YAXI@Z            005c9f10 f   tools.obj
 0001:001c8f50       ??3@YAXPAX@Z               005c9f50 f   tools.obj
 0001:001c8f90       ?sendstring@@YAXPBDAAU?$vector@E@@@Z 005c9f90 f   tools.obj
 0001:001c8fc0       ?putfloat@@YAXAAU?$vector@E@@M@Z 005c9fc0 f   tools.obj
 0001:001c9000       ?putint@@YAXAAU?$vector@E@@H@Z 005ca000 f   tools.obj
 0001:001c9010       ?putuint@@YAXAAU?$vector@E@@H@Z 005ca010 f   tools.obj
 0001:001c9020       ?getfloat@@YAMAAU?$databuf@E@@@Z 005ca020 f   tools.obj
 0001:001c9070       ?getint@@YAHAAU?$databuf@E@@@Z 005ca070 f   tools.obj
 0001:001c9180       ?putint@@YAXAAU?$databuf@E@@H@Z 005ca180 f   tools.obj
 0001:001c9190       ?filtertext@@YAXPADPBD_N2I@Z 005ca190 f   tools.obj
 0001:001c91f0       ?putint@@YAXAAUpacketbuf@@H@Z 005ca1f0 f   tools.obj
 0001:001c92c0       ?putfloat@@YAXAAUpacketbuf@@M@Z 005ca2c0 f   tools.obj
 0001:001c92e0       ?sendstring@@YAXPBDAAUpacketbuf@@@Z 005ca2e0 f   tools.obj
 0001:001c9320       ?randomMT@@YAIXZ           005ca320 f   tools.obj
 0001:001c9400       ?tempformatstring@@YAPADPBDZZ 005ca400 f   tools.obj
 0001:001c9470       ??_U@YAPAXI_N@Z            005ca470 f   tools.obj
 0001:001c9480       ??_V@YAXPAX@Z              005ca480 f   tools.obj
 0001:001c94c0       ??_U@YAPAXI@Z              005ca4c0 f   tools.obj
 0001:001c94e0       ??2@YAPAXI@Z               005ca4e0 f   tools.obj
 0001:001c9500       ?getuint@@YAHAAU?$databuf@E@@@Z 005ca500 f   tools.obj
 0001:001c95d0       ?getstring@@YAXPADAAU?$databuf@E@@I@Z 005ca5d0 f   tools.obj
 0001:001c97d0       ?run@?$_icmd_removezip@$0CEK@@@SAXPBD@Z 005ca7d0 f   zip.obj
 0001:001c97e0       ?run@?$_icmd_addzip@$0CEJ@@@SAXPBD00@Z 005ca7e0 f   zip.obj
 0001:001c9810       ?removezip@@YA_NPBD@Z      005ca810 f   zip.obj
 0001:001c9a10       ?addzip@@YA_NPBD00@Z       005caa10 f   zip.obj
 0001:001ca270       ?findzip@@YAPAUziparchive@@PBD@Z 005cb270 f   zip.obj
 0001:001ca800       ?listzipfiles@@YAHPBD0AAU?$vector@PAD@@@Z 005cb800 f   zip.obj
 0001:001caab0       ?findzipfile@@YA_NPBD@Z    005cbab0 f   zip.obj
 0001:001cab60       ?openzipfile@@YAPAUstream@@PBD0@Z 005cbb60 f   zip.obj
 0001:001cae50       ?render@ai@@YAXXZ          005cbe50 f   ai.obj
 0001:001cb5a0       ?drawroute@ai@@YAXPAUgameent@@M@Z 005cc5a0 f   ai.obj
 0001:001cba10       ?think@ai@@YAXPAUgameent@@_N@Z 005cca10 f   ai.obj
 0001:001cbfc0       ?avoid@ai@@YAXXZ           005ccfc0 f   ai.obj
 0001:001cc0f0       ?logic@ai@@YAXPAUgameent@@AAUaistate@1@_N@Z 005cd0f0 f   ai.obj
 0001:001cc3d0       ?timeouts@ai@@YAXPAUgameent@@AAUaistate@1@@Z 005cd3d0 f   ai.obj
 0001:001cc5f0       ?request@ai@@YA_NPAUgameent@@AAUaistate@1@@Z 005cd5f0 f   ai.obj
 0001:001cc770       ?hasrange@ai@@YA_NPAUgameent@@0H@Z 005cd770 f   ai.obj
 0001:001cc840       ?process@ai@@YAHPAUgameent@@AAUaistate@1@@Z 005cd840 f   ai.obj
 0001:001cd640       ?lockon@ai@@YA_NPAUgameent@@H0M@Z 005ce640 f   ai.obj
 0001:001cd700       ?scaleyawpitch@ai@@YAXAAM0MMMM@Z 005ce700 f   ai.obj
 0001:001cd870       ?getyawpitch@ai@@YAXABUvec@@0AAM1@Z 005ce870 f   ai.obj
 0001:001cd950       ?fixrange@ai@@YAXAAM0@Z    005ce950 f   ai.obj
 0001:001cd9e0       ?fixfullrange@ai@@YAXAAM00_N@Z 005ce9e0 f   ai.obj
 0001:001cdaa0       ?jumpto@ai@@YAXPAUgameent@@AAUaistate@1@ABUvec@@@Z 005ceaa0 f   ai.obj
 0001:001cdca0       ?hunt@ai@@YA_NPAUgameent@@AAUaistate@1@@Z 005ceca0 f   ai.obj
 0001:001cdd80       ?checkroute@ai@@YA_NPAUgameent@@H@Z 005ced80 f   ai.obj
 0001:001ce000       ?anynode@ai@@YA_NPAUgameent@@AAUaistate@1@H@Z 005cf000 f   ai.obj
 0001:001ce140       ?randomlink@ai@@YAHPAUgameent@@H@Z 005cf140 f   ai.obj
 0001:001ce3a0       ?wpspot@ai@@YAHPAUgameent@@H_N@Z 005cf3a0 f   ai.obj
 0001:001ce4b0       ?closenode@ai@@YAHPAUgameent@@@Z 005cf4b0 f   ai.obj
 0001:001ce660       ?dopursue@ai@@YAHPAUgameent@@AAUaistate@1@@Z 005cf660 f   ai.obj
 0001:001ce7c0       ?dointerest@ai@@YAHPAUgameent@@AAUaistate@1@@Z 005cf7c0 f   ai.obj
 0001:001ce8e0       ?dodefend@ai@@YAHPAUgameent@@AAUaistate@1@@Z 005cf8e0 f   ai.obj
 0001:001cea30       ?dowait@ai@@YAHPAUgameent@@AAUaistate@1@@Z 005cfa30 f   ai.obj
 0001:001ceaf0       ?check@ai@@YA_NPAUgameent@@AAUaistate@1@@Z 005cfaf0 f   ai.obj
 0001:001ceb20       ?itemspawned@ai@@YAXH@Z    005cfb20 f   ai.obj
 0001:001ceb30       ?killed@ai@@YAXPAUgameent@@0@Z 005cfb30 f   ai.obj
 0001:001ceba0       ?spawned@ai@@YAXPAUgameent@@@Z 005cfba0 f   ai.obj
 0001:001cec90       ?setup@ai@@YAXPAUgameent@@@Z 005cfc90 f   ai.obj
 0001:001ced70       ?findorientation@ai@@YAXAAUvec@@MM0@Z 005cfd70 f   ai.obj
 0001:001ceef0       ?damaged@ai@@YAXPAUgameent@@0@Z 005cfef0 f   ai.obj
 0001:001cf060       ?find@ai@@YA_NPAUgameent@@AAUaistate@1@_N@Z 005d0060 f   ai.obj
 0001:001cf160       ?parseinterests@ai@@YA_NPAUgameent@@AAUaistate@1@AAU?$vector@Uinterest@ai@@@@_N3@Z 005d0160 f   ai.obj
 0001:001cf3a0       ?assist@ai@@YAXPAUgameent@@AAUaistate@1@AAU?$vector@Uinterest@ai@@@@_N3@Z 005d03a0 f   ai.obj
 0001:001cf4d0       ?hasgoodammo@ai@@YA_NPAUgameent@@@Z 005d04d0 f   ai.obj
 0001:001cf4f0       ?isgoodammo@ai@@YAHH@Z     005d04f0 f   ai.obj
 0001:001cf510       ?target@ai@@YA_NPAUgameent@@AAUaistate@1@H_NM@Z 005d0510 f   ai.obj
 0001:001cf8e0       ?violence@ai@@YA_NPAUgameent@@AAUaistate@1@0H@Z 005d08e0 f   ai.obj
 0001:001cf9e0       ?defend@ai@@YA_NPAUgameent@@AAUaistate@1@ABUvec@@MMH@Z 005d09e0 f   ai.obj
 0001:001cfcc0       ?patrol@ai@@YA_NPAUgameent@@AAUaistate@1@ABUvec@@MMH_N@Z 005d0cc0 f   ai.obj
 0001:001cfe40       ?enemy@ai@@YA_NPAUgameent@@AAUaistate@1@ABUvec@@MH@Z 005d0e40 f   ai.obj
 0001:001d0020       ?badhealth@ai@@YA_NPAUgameent@@@Z 005d1020 f   ai.obj
 0001:001d0030       ?randomnode@ai@@YA_NPAUgameent@@AAUaistate@1@MM@Z 005d1030 f   ai.obj
 0001:001d0090       ?randomnode@ai@@YA_NPAUgameent@@AAUaistate@1@ABUvec@@MM@Z 005d1090 f   ai.obj
 0001:001d02d0       ?makeroute@ai@@YA_NPAUgameent@@AAUaistate@1@ABUvec@@_NH@Z 005d12d0 f   ai.obj
 0001:001d0310       ?makeroute@ai@@YA_NPAUgameent@@AAUaistate@1@H_NH@Z 005d1310 f   ai.obj
 0001:001d0390       ?checkothers@ai@@YA_NAAU?$vector@H@@PAUgameent@@HHH_NPAH@Z 005d1390 f   ai.obj
 0001:001d04b0       ?update@ai@@YAXXZ          005d14b0 f   ai.obj
 0001:001d06f0       ?init@ai@@YAXPAUgameent@@HHHHHHPBDH@Z 005d16f0 f   ai.obj
 0001:001d0b00       ?destroy@ai@@YAXPAUgameent@@@Z 005d1b00 f   ai.obj
 0001:001d0b20       ?create@ai@@YAXPAUgameent@@@Z 005d1b20 f   ai.obj
 0001:001d0c40       ?getaimpos@ai@@YA?AUvec@@PAUgameent@@H0@Z 005d1c40 f   ai.obj
 0001:001d0df0       ?hastarget@ai@@YA_NPAUgameent@@HAAUaistate@1@0MMM@Z 005d1df0 f   ai.obj
 0001:001d0f40       ?canshoot@ai@@YA_NPAUgameent@@H0@Z 005d1f40 f   ai.obj
 0001:001d1010       ?cansee@ai@@YA_NPAUgameent@@AAUvec@@11@Z 005d2010 f   ai.obj
 0001:001d1090       ?getsight@ai@@YA_NAAUvec@@MM00MMM@Z 005d2090 f   ai.obj
 0001:001d1330       ?targetable@ai@@YA_NPAUgameent@@0@Z 005d2330 f   ai.obj
 0001:001d1380       ?attackrange@ai@@YA_NPAUgameent@@HM@Z 005d2380 f   ai.obj
 0001:001d13d0       ?attackmaxdist@ai@@YAMH@Z  005d23d0 f   ai.obj
 0001:001d13f0       ?attackmindist@ai@@YAMH@Z  005d23f0 f   ai.obj
 0001:001d1410       ?canmove@ai@@YA_NPAUgameent@@@Z 005d2410 f   ai.obj
 0001:001d1430       ?viewfieldy@ai@@YAMH@Z     005d2430 f   ai.obj
 0001:001d1470       ?viewfieldx@ai@@YAMH@Z     005d2470 f   ai.obj
 0001:001d14a0       ?viewdist@ai@@YAMH@Z       005d24a0 f   ai.obj
 0001:001d14e0       ?run@?$_icmd_botbalance@$0BD@@ai@@SAXPAH@Z 005d24e0 f   ai.obj
 0001:001d1500       ?run@?$_icmd_botlimit@$0BC@@ai@@SAXPAH@Z 005d2500 f   ai.obj
 0001:001d1520       ?run@?$_icmd_delbot@$0BB@@ai@@SAXXZ 005d2520 f   ai.obj
 0001:001d1530       ?run@?$_icmd_addbot@$0BA@@ai@@SAXPAD@Z 005d2530 f   ai.obj
 0001:001d1580       ?setspawn@entities@@YAXH_N@Z 005d2580 f   entities.obj
 0001:001d15b0       ?spawnitems@entities@@YAX_N@Z 005d25b0 f   entities.obj
 0001:001d15c0       ?resetspawns@entities@@YAXXZ 005d25c0 f   entities.obj
 0001:001d15f0       ?putitems@entities@@YAXAAUpacketbuf@@@Z 005d25f0 f   entities.obj
 0001:001d1620       ?trypickup@entities@@YAXHPAUgameent@@@Z 005d2620 f   entities.obj
 0001:001d17c0       ?teleport@entities@@YAXHPAUgameent@@@Z 005d27c0 f   entities.obj
 0001:001d1ab0       ?jumppadeffects@entities@@YAXPAUgameent@@H_N@Z 005d2ab0 f   entities.obj
 0001:001d1c40       ?teleporteffects@entities@@YAXPAUgameent@@HH_N@Z 005d2c40 f   entities.obj
 0001:001d1e40       ?pickupeffects@entities@@YAXHPAUgameent@@@Z 005d2e40 f   entities.obj
 0001:001d1e50       ?renderentities@entities@@YAXXZ 005d2e50 f   entities.obj
 0001:001d1f90       ?preloadentities@entities@@YAXXZ 005d2f90 f   entities.obj
 0001:001d2030       ?entmdlname@entities@@YAPBDH@Z 005d3030 f   entities.obj
 0001:001d2040       ?itemicon@entities@@YAHH@Z 005d3040 f   entities.obj
 0001:001d2050       ?checkitems@entities@@YAXPAUgameent@@@Z 005d3050 f   entities.obj
 0001:001d2160       ?animatemapmodel@entities@@YAXABUextentity@@AAH1@Z 005d3160 f   entities.obj
 0001:001d2170       ?readent@entities@@YAXAAUentity@@PADH@Z 005d3170 f   entities.obj
 0001:001d2180       ?extraentinfosize@entities@@YAHXZ 005d3180 f   entities.obj
 0001:001d2190       ?writeent@entities@@YAXAAUentity@@PAD@Z 005d3190 f   entities.obj
 0001:001d21a0       ?entname@entities@@YAPBDH@Z 005d31a0 f   entities.obj
 0001:001d21c0       ?entnameinfo@entities@@YAPBDAAUentity@@@Z 005d31c0 f   entities.obj
 0001:001d21d0       ?mayattach@entities@@YA_NAAUextentity@@@Z 005d31d0 f   entities.obj
 0001:001d21e0       ?attachent@entities@@YA_NAAUextentity@@0@Z 005d31e0 f   entities.obj
 0001:001d21f0       ?editent@entities@@YAXH_N@Z 005d31f0 f   entities.obj
 0001:001d2260       ?entmodel@entities@@YAPBDABUentity@@@Z 005d3260 f   entities.obj
 0001:001d22a0       ?entradius@entities@@YAXAAUextentity@@_N@Z 005d32a0 f   entities.obj
 0001:001d2500       ?fixentity@entities@@YAXAAUextentity@@@Z 005d3500 f   entities.obj
 0001:001d2540       ?deleteentity@entities@@YAXPAUextentity@@@Z 005d3540 f   entities.obj
 0001:001d2550       ?printent@entities@@YA_NAAUextentity@@PADH@Z 005d3550 f   entities.obj
 0001:001d2560       ?clearents@entities@@YAXXZ 005d3560 f   entities.obj
 0001:001d25a0       ?dropheight@entities@@YAMAAUentity@@@Z 005d35a0 f   entities.obj
 0001:001d25c0       ?newentity@entities@@YAPAUextentity@@XZ 005d35c0 f   entities.obj
 0001:001d2650       ?getents@entities@@YAAAU?$vector@PAUextentity@@@@XZ 005d3650 f   entities.obj
 0001:001d2770       ?clientoption@game@@YA_NPBD@Z 005d3770 f   game.obj
 0001:001d2780       ?run@?$_icmd_servinfoicon@$0DHJ@@game@@SAXPAH@Z 005d3780 f   game.obj
 0001:001d2850       ?run@?$_icmd_servinfotime@$0DHD@@game@@SAXPAH0@Z 005d3850 f   game.obj
 0001:001d2950       ?run@?$_icmd_servinfomastermodename@$0DGH@@game@@SAXPAH@Z 005d3950 f   game.obj
 0001:001d2a40       ?run@?$_icmd_servinfomastermode@$0DGB@@game@@SAXPAH@Z 005d3a40 f   game.obj
 0001:001d2a90       ?run@?$_icmd_servinfomodename@$0DGA@@game@@SAXPAH@Z 005d3a90 f   game.obj
 0001:001d2b30       ?run@?$_icmd_servinfomode@$0DFK@@game@@SAXPAH@Z 005d3b30 f   game.obj
 0001:001d2b80       ?mastermodeicon@game@@YAPBDHPBD@Z 005d3b80 f   game.obj
 0001:001d2ba0       ?mastermodecolor@game@@YAPBDHPBD@Z 005d3ba0 f   game.obj
 0001:001d2bc0       ?drawhudicons@game@@YAXPAUgameent@@@Z 005d3bc0 f   game.obj
 0001:001d2bd0       ?drawicon@game@@YAXHMMM@Z  005d3bd0 f   game.obj
 0001:001d2e30       ?run@?$_icmd_suicide@$0CLG@@game@@SAXXZ 005d3e30 f   game.obj
 0001:001d2e40       ?teamsound@game@@YAXPAUgameent@@HPBUvec@@@Z 005d3e40 f   game.obj
 0001:001d2ed0       ?teamsound@game@@YAX_NHPBUvec@@@Z 005d3ed0 f   game.obj
 0001:001d2f30       ?teamcolor@game@@YAPBDPBD0H0@Z 005d3f30 f   game.obj
 0001:001d2f90       ?teamcolorname@game@@YAPBDPAUgameent@@PBD@Z 005d3f90 f   game.obj
 0001:001d3000       ?duplicatename@game@@YA_NPAUgameent@@PBD1@Z 005d4000 f   game.obj
 0001:001d30b0       ?msgsound@game@@YAXHPAUphysent@@@Z 005d40b0 f   game.obj
 0001:001d3120       ?startgame@game@@YAXXZ     005d4120 f   game.obj
 0001:001d3420       ?clearclients@game@@YAX_N@Z 005d4420 f   game.obj
 0001:001d3660       ?clientdisconnected@game@@YAXH_N@Z 005d4660 f   game.obj
 0001:001d3860       ?run@?$_icmd_gettotalshots@$0BNF@@game@@SAXXZ 005d4860 f   game.obj
 0001:001d3880       ?run@?$_icmd_gettotaldamage@$0BNE@@game@@SAXXZ 005d4880 f   game.obj
 0001:001d38a0       ?run@?$_icmd_getaccuracy@$0BND@@game@@SAXXZ 005d48a0 f   game.obj
 0001:001d38e0       ?run@?$_icmd_getdeaths@$0BNC@@game@@SAXXZ 005d48e0 f   game.obj
 0001:001d3900       ?run@?$_icmd_getflags@$0BNB@@game@@SAXXZ 005d4900 f   game.obj
 0001:001d3920       ?run@?$_icmd_getfrags@$0BNA@@game@@SAXXZ 005d4920 f   game.obj
 0001:001d3940       ?timeupdate@game@@YAXH@Z   005d4940 f   game.obj
 0001:001d3ad0       ?killed@game@@YAXPAUgameent@@0@Z 005d4ad0 f   game.obj
 0001:001d3cf0       ?deathstate@game@@YAXPAUgameent@@_N@Z 005d4cf0 f   game.obj
 0001:001d3db0       ?damaged@game@@YAXHPAUgameent@@0_N@Z 005d4db0 f   game.obj
 0001:001d4050       ?taunt@game@@YAXXZ         005d5050 f   game.obj
 0001:001d40a0       ?run@?$_icmd_melee@$0BDA@@game@@SAXPAH@Z 005d50a0 f   game.obj
 0001:001d40e0       ?run@?$_icmd_shoot@$0BCP@@game@@SAXPAH@Z 005d50e0 f   game.obj
 0001:001d4120       ?doaction@game@@YAXH@Z     005d5120 f   game.obj
 0001:001d4150       ?respawn@game@@YAXXZ       005d5150 f   game.obj
 0001:001d4280       ?spawnplayer@game@@YAXPAUgameent@@@Z 005d5280 f   game.obj
 0001:001d4320       ?otherplayers@game@@YAXH@Z 005d5320 f   game.obj
 0001:001d4590       ?predictplayer@game@@YAXPAUgameent@@_N@Z 005d5590 f   game.obj
 0001:001d46d0       ?run@?$_icmd_allowthirdperson@$0JE@@game@@SAXPAH@Z 005d56d0 f   game.obj
 0001:001d4700       ?hudplayer@game@@YAPAUgameent@@XZ 005d5700 f   game.obj
 0001:001d4790       ?respawnself@game@@YAXXZ   005d5790 f   game.obj
 0001:001d4860       ?spawnstate@game@@YAPAUgameent@@PAU2@@Z 005d5860 f   game.obj
 0001:001d4880       ?checkfollow@game@@YAXXZ   005d5880 f   game.obj
 0001:001d48e0       ?run@?$_icmd_nextfollow@$0EF@@game@@SAXPAH@Z 005d58e0 f   game.obj
 0001:001d4900       ?nextfollow@game@@YAXH@Z   005d5900 f   game.obj
 0001:001d4980       ?follow@game@@YAXPAD@Z     005d5980 f   game.obj
 0001:001d49d0       ?stopfollowing@game@@YAXXZ 005d59d0 f   game.obj
 0001:001d49f0       ?run@?$_icmd_getfollow@$0CA@@game@@SAXXZ 005d59f0 f   game.obj
 0001:001d4a50       ?var_specmode@game@@YAXPAUident@@@Z 005d5a50 f   game.obj
 0001:001d4a80       ?followingplayer@game@@YAPAUgameent@@PAU2@@Z 005d5a80 f   game.obj
 0001:001d4ac0       ?newclient@game@@YAPAUgameent@@H@Z 005d5ac0 f   game.obj
 0001:001d4c90       ?colorname@game@@YAPBDPAUgameent@@PBD11@Z 005d5c90 f   game.obj
 0001:001d4db0       ?getclient@game@@YAPAUgameent@@H@Z 005d5db0 f   game.obj
 0001:001d4de0       ?maxsoundradius@game@@YAHH@Z 005d5de0 f   game.obj
 0001:001d4e30       ?initclient@game@@YAXXZ    005d5e30 f   game.obj
 0001:001d4ed0       ?gameconfig@game@@YAPBDXZ  005d5ed0 f   game.obj
 0001:001d4ee0       ?restoreconfig@game@@YAPBDXZ 005d5ee0 f   game.obj
 0001:001d4ef0       ?loadconfigs@game@@YAXXZ   005d5ef0 f   game.obj
 0001:001d4f00       ?updateworld@game@@YAXXZ   005d5f00 f   game.obj
 0001:001d5580       ?clipconsole@game@@YAMMM@Z 005d6580 f   game.obj
 0001:001d55b0       ?savedconfig@game@@YAPBDXZ 005d65b0 f   game.obj
 0001:001d55c0       ?autoexec@game@@YAPBDXZ    005d65c0 f   game.obj
 0001:001d55d0       ?defaultconfig@game@@YAPBDXZ 005d65d0 f   game.obj
 0001:001d55e0       ?getscreenshotinfo@game@@YAPBDXZ 005d65e0 f   game.obj
 0001:001d5600       ?setupcamera@game@@YAXXZ   005d6600 f   game.obj
 0001:001d56c0       ?allowthirdperson@game@@YA_N_N@Z 005d66c0 f   game.obj
 0001:001d5720       ?detachcamera@game@@YA_NXZ 005d6720 f   game.obj
 0001:001d5780       ?collidecamera@game@@YA_NXZ 005d6780 f   game.obj
 0001:001d57e0       ?needminimap@game@@YA_NXZ  005d67e0 f   game.obj
 0001:001d5800       ?defaultcrosshair@game@@YAPBDH@Z 005d6800 f   game.obj
 0001:001d5820       ?selectcrosshair@game@@YAHAAUvec@@@Z 005d6820 f   game.obj
 0001:001d5950       ?gameplayhud@game@@YAXHH@Z 005d6950 f   game.obj
 0001:001d5c40       ?abovegameplayhud@game@@YAMHH@Z 005d6c40 f   game.obj
 0001:001d5c70       ?savedservers@game@@YAPBDXZ 005d6c70 f   game.obj
 0001:001d5c80       ?writegamedata@game@@YAXAAU?$vector@D@@@Z 005d6c80 f   game.obj
 0001:001d5c90       ?getmapinfo@game@@YAPBDXZ  005d6c90 f   game.obj
 0001:001d5cc0       ?readgamedata@game@@YAXAAU?$vector@D@@@Z 005d6cc0 f   game.obj
 0001:001d5cd0       ?startmap@game@@YAXPBD@Z   005d6cd0 f   game.obj
 0001:001d5de0       ?numdynents@game@@YAHXZ    005d6de0 f   game.obj
 0001:001d5df0       ?iterdynents@game@@YAPAUdynent@@H@Z 005d6df0 f   game.obj
 0001:001d5e10       ?dynentcollide@game@@YAXPAUphysent@@0ABUvec@@@Z 005d6e10 f   game.obj
 0001:001d5e20       ?allowmove@game@@YA_NPAUphysent@@@Z 005d6e20 f   game.obj
 0001:001d5e50       ?physicstrigger@game@@YAXPAUphysent@@_NHHH@Z 005d6e50 f   game.obj
 0001:001d5fa0       ?suicide@game@@YAXPAUphysent@@@Z 005d6fa0 f   game.obj
 0001:001d6030       ?canjump@game@@YA_NXZ      005d7030 f   game.obj
 0001:001d6060       ?cancrouch@game@@YA_NXZ    005d7060 f   game.obj
 0001:001d6090       ?resetgamestate@game@@YAXXZ 005d7090 f   game.obj
 0001:001d60b0       ?getclientmap@game@@YAPBDXZ 005d70b0 f   game.obj
 0001:001d6140       ?preloadsounds@game@@YAXXZ 005d7140 f   render.obj
 0001:001d6160       ?preloadweapons@game@@YAXXZ 005d7160 f   render.obj
 0001:001d6250       ?hudgunorigin@game@@YA?AUvec@@HABU2@0PAUgameent@@@Z 005d7250 f   render.obj
 0001:001d6540       ?drawhudgun@game@@YAXXZ    005d7540 f   render.obj
 0001:001d6620       ?drawhudmodel@game@@YAXPAUgameent@@HH@Z 005d7620 f   render.obj
 0001:001d6a60       ?renderplayer@game@@YAXPAUgameent@@ABUplayermodelinfo@1@HHMH_N@Z 005d7a60 f   render.obj
 0001:001d70f0       ?preloadplayermodel@game@@YAXXZ 005d80f0 f   render.obj
 0001:001d7190       ?changedplayercolor@game@@YAXXZ 005d8190 f   render.obj
 0001:001d71c0       ?changedplayermodel@game@@YAXXZ 005d81c0 f   render.obj
 0001:001d7340       ?getplayercolor@game@@YAHPAUgameent@@H@Z 005d8340 f   render.obj
 0001:001d73e0       ?run@?$_icmd_getplayercolor@$0HJ@@game@@SAXPAH0@Z 005d83e0 f   render.obj
 0001:001d7450       ?getplayercolor@game@@YAHHH@Z 005d8450 f   render.obj
 0001:001d7490       ?getplayermodelinfo@game@@YAABUplayermodelinfo@1@PAUgameent@@@Z 005d8490 f   render.obj
 0001:001d74e0       ?getplayermodelinfo@game@@YAPBUplayermodelinfo@1@H@Z 005d84e0 f   render.obj
 0001:001d7500       ?var_playermodel@game@@YAXPAUident@@@Z 005d8500 f   render.obj
 0001:001d7680       ?var_playercolorrojo@game@@YAXPAUident@@@Z 005d8680 f   render.obj
 0001:001d76b0       ?var_playercolorazul@game@@YAXPAUident@@@Z 005d86b0 f   render.obj
 0001:001d76e0       ?var_playercolor@game@@YAXPAUident@@@Z 005d86e0 f   render.obj
 0001:001d7710       ?saveragdoll@game@@YAXPAUgameent@@@Z 005d8710 f   render.obj
 0001:001d7800       ?moveragdolls@game@@YAXXZ  005d8800 f   render.obj
 0001:001d7890       ?swayhudgun@game@@YAXH@Z   005d8890 f   render.obj
 0001:001d7b00       ?clearragdolls@game@@YAXXZ 005d8b00 f   render.obj
 0001:001d7b50       ?syncplayer@game@@YAXXZ    005d8b50 f   render.obj
 0001:001d7bd0       ?chooserandomplayermodel@game@@YAHH@Z 005d8bd0 f   render.obj
 0001:001d7be0       ?renderplayerpreview@game@@YAXHHHH@Z 005d8be0 f   render.obj
 0001:001d7ea0       ?numanims@game@@YAHXZ      005d8ea0 f   render.obj
 0001:001d7eb0       ?findanims@game@@YAXPBDAAU?$vector@H@@@Z 005d8eb0 f   render.obj
 0001:001d7f70       ?rendergame@game@@YAXXZ    005d8f70 f   render.obj
 0001:001d8960       ?renderavatar@game@@YAXXZ  005d9960 f   render.obj
 0001:001d8a40       ?preload@game@@YAXXZ       005d9a40 f   render.obj
 0001:001d9340       ?run@?$_icmd_getteamscore@$0NJ@@game@@SAXPAH@Z 005da340 f   scoreboard.obj
 0001:001d93c0       ?run@?$_icmd_scoreboardtime@$0NA@@game@@SAXXZ 005da3c0 f   scoreboard.obj
 0001:001d9460       ?run@?$_icmd_scoreboardmap@$0MD@@game@@SAXXZ 005da460 f   scoreboard.obj
 0001:001d94c0       ?run@?$_icmd_scoreboardmode@$0LN@@game@@SAXXZ 005da4c0 f   scoreboard.obj
 0001:001d9530       ?run@?$_icmd_scoreboardservinfo@$0LI@@game@@SAXXZ 005da530 f   scoreboard.obj
 0001:001d95c0       ?run@?$_icmd_scoreboardhighlight@$0KI@@game@@SAXPAH@Z 005da5c0 f   scoreboard.obj
 0001:001d9630       ?run@?$_icmd_scoreboardmultiplayer@$0KF@@game@@SAXXZ 005da630 f   scoreboard.obj
 0001:001d9670       ?run@?$_icmd_scoreboardshowclientnum@$0KE@@game@@SAXXZ 005da670 f   scoreboard.obj
 0001:001d96b0       ?run@?$_icmd_scoreboardshowfrags@$0KD@@game@@SAXXZ 005da6b0 f   scoreboard.obj
 0001:001d96f0       ?run@?$_icmd_scoreboardping@$0KB@@game@@SAXPAH@Z 005da6f0 f   scoreboard.obj
 0001:001d9770       ?run@?$_icmd_scoreboardpj@$0JH@@game@@SAXPAH@Z 005da770 f   scoreboard.obj
 0001:001d97f0       ?run@?$_icmd_scoreboardstatus@$0IN@@game@@SAXPAH@Z 005da7f0 f   scoreboard.obj
 0001:001d9870       ?run@?$_icmd_loopscoreboard@$0HO@@game@@SAXPAUident@@PAHPAI@Z 005da870 f   scoreboard.obj
 0001:001d9900       ?run@?$_icmd_numscoreboard@$0HC@@game@@SAXPAH@Z 005da900 f   scoreboard.obj
 0001:001d9950       ?refreshscoreboard@game@@YAXXZ 005da950 f   scoreboard.obj
 0001:001d9cd0       ?setteaminfo@game@@YAXHH@Z 005dacd0 f   scoreboard.obj
 0001:001d9ce0       ?getbestteams@game@@YAXAAU?$vector@H@@@Z 005dace0 f   scoreboard.obj
 0001:001d9e70       ?getbestplayers@game@@YAXAAU?$vector@PAUgameent@@@@@Z 005dae70 f   scoreboard.obj
 0001:001d9fd0       ?showscores@game@@YAX_N@Z  005dafd0 f   scoreboard.obj
 0001:001da020       ?removegroupedplayer@game@@YAXPAUgameent@@@Z 005db020 f   scoreboard.obj
 0001:001da0d0       ?clearteaminfo@game@@YAXXZ 005db0d0 f   scoreboard.obj
 0001:001da1b0       ?run@?$_icmd_movewaypoints@$0DCE@@ai@@SAXPAH00@Z 005db1b0 f   waypoint.obj
 0001:001da310       ?movewaypoints@ai@@YAXABUvec@@@Z 005db310 f   waypoint.obj
 0001:001da460       ?delselwaypoints@ai@@YAXXZ 005db460 f   waypoint.obj
 0001:001da5a0       ?run@?$_icmd_savewaypoints@$0CPD@@ai@@SAXPAD@Z 005db5a0 f   waypoint.obj
 0001:001da5b0       ?run@?$_icmd_loadwaypoints@$0CNG@@ai@@SAXPAD@Z 005db5b0 f   waypoint.obj
 0001:001da5c0       ?getwaypointfile@ai@@YA_NPBDPAD@Z 005db5c0 f   waypoint.obj
 0001:001da600       ?cleanwaypoints@ai@@YA_NXZ 005db600 f   waypoint.obj
 0001:001da6d0       ?remapwaypoints@ai@@YAXXZ  005db6d0 f   waypoint.obj
 0001:001da930       ?seedwaypoints@ai@@YAXXZ   005db930 f   waypoint.obj
 0001:001daa70       ?run@?$_icmd_clearwaypoints@$0CGB@@ai@@SAXXZ 005dba70 f   waypoint.obj
 0001:001daa90       ?navigate@ai@@YAXPAUgameent@@@Z 005dba90 f   waypoint.obj
 0001:001dad20       ?linkwaypoint@ai@@YAXAAUwaypoint@1@H@Z 005dbd20 f   waypoint.obj
 0001:001dae50       ?addwaypoint@ai@@YAHABUvec@@H@Z 005dbe50 f   waypoint.obj
 0001:001daf30       ?var_dropwaypoints@ai@@YAXPAUident@@@Z 005dbf30 f   waypoint.obj
 0001:001daf60       ?buildwpcache@ai@@YAXXZ    005dbf60 f   waypoint.obj
 0001:001db030       ?run@?$_icmd_clearwpcache@$0LL@@ai@@SAXXZ 005dc030 f   waypoint.obj
 0001:001db040       ?clearwpcache@ai@@YAX_N@Z  005dc040 f   waypoint.obj
 0001:001db1d0       ?getweight@ai@@YAHABUvec@@@Z 005dc1d0 f   waypoint.obj
 0001:001db320       ?clipped@ai@@YA_NABUvec@@@Z 005dc320 f   waypoint.obj
 0001:001db350       ?navigate@ai@@YAXXZ        005dc350 f   waypoint.obj
 0001:001db3c0       ?savewaypoints@ai@@YAX_NPBD@Z 005dc3c0 f   waypoint.obj
 0001:001db580       ?clearwaypoints@ai@@YAX_N@Z 005dc580 f   waypoint.obj
 0001:001db5b0       ?inferwaypoints@ai@@YAXPAUgameent@@ABUvec@@1M@Z 005dc5b0 f   waypoint.obj
 0001:001db720       ?loadwaypoints@ai@@YAX_NPBD@Z 005dc720 f   waypoint.obj
 0001:001dbac0       ?route@ai@@YA_NPAUgameent@@HHAAU?$vector@H@@ABUavoidset@1@H@Z 005dcac0 f   waypoint.obj
 0001:001dc2e0       ?closestwaypoint@ai@@YAHABUvec@@M_NPAUgameent@@@Z 005dd2e0 f   waypoint.obj
 0001:001dc6d0       ?findwaypointswithin@ai@@YAXABUvec@@MMAAU?$vector@H@@@Z 005dd6d0 f   waypoint.obj
 0001:001dcb20       ?remap@avoidset@ai@@QAEHPAUgameent@@HAAUvec@@_N@Z 005ddb20 f   waypoint.obj
 0001:001dcd00       ?avoidnear@avoidset@ai@@QAEXPAXMABUvec@@M@Z 005ddd00 f   waypoint.obj
 0001:001dd320       ?raydamage@game@@YAXAAUvec@@0PAUgameent@@H@Z 005de320 f   weapon.obj
 0001:001dd690       ?shorten@game@@YAXABUvec@@AAU2@M@Z 005de690 f   weapon.obj
 0001:001dd6e0       ?shoteffects@game@@YAXHABUvec@@0PAUgameent@@_NHH@Z 005de6e0 f   weapon.obj
 0001:001dd950       ?railhit@game@@YAXABUvec@@0_N@Z 005de950 f   weapon.obj
 0001:001ddc40       ?updateprojectiles@game@@YAXH@Z 005dec40 f   weapon.obj
 0001:001de620       ?projdamage@game@@YA_NPAUdynent@@AAUprojectile@1@ABUvec@@@Z 005df620 f   weapon.obj
 0001:001de800       ?explodeeffects@game@@YAXHPAUgameent@@_NH@Z 005df800 f   weapon.obj
 0001:001de8f0       ?projsplash@game@@YAXAAUprojectile@1@ABUvec@@PAUdynent@@@Z 005df8f0 f   weapon.obj
 0001:001de930       ?pulsestain@game@@YAXABUprojectile@1@ABUvec@@@Z 005df930 f   weapon.obj
 0001:001deae0       ?explode@game@@YAX_NPAUgameent@@ABUvec@@2PAUdynent@@HH@Z 005dfae0 f   weapon.obj
 0001:001deda0       ?radialeffect@game@@YAXPAUdynent@@ABUvec@@1HPAUgameent@@H@Z 005dfda0 f   weapon.obj
 0001:001def80       ?projdist@game@@YAMPAUdynent@@AAUvec@@ABU3@2@Z 005dff80 f   weapon.obj
 0001:001df0e0       ?hitpush@game@@YAXHPAUdynent@@PAUgameent@@AAUvec@@2HH@Z 005e00e0 f   weapon.obj
 0001:001df210       ?hit@game@@YAXHPAUdynent@@PAUgameent@@ABUvec@@HMH@Z 005e0210 f   weapon.obj
 0001:001df5b0       ?removeprojectiles@game@@YAXPAUgameent@@@Z 005e05b0 f   weapon.obj
 0001:001df670       ?newprojectile@game@@YAXABUvec@@0M_NHPAUgameent@@H@Z 005e0670 f   weapon.obj
 0001:001df8a0       ?removebouncers@game@@YAXPAUgameent@@@Z 005e08a0 f   weapon.obj
 0001:001df910       ?updatebouncers@game@@YAXH@Z 005e0910 f   weapon.obj
 0001:001dfa60       ?createrays@game@@YAXHABUvec@@0@Z 005e0a60 f   weapon.obj
 0001:001dfd80       ?offsetray@game@@YAXABUvec@@0HMAAU2@@Z 005e0d80 f   weapon.obj
 0001:001e0040       ?run@?$_icmd_weapon@$0HD@@game@@SAXPAUtagval@@H@Z 005e1040 f   weapon.obj
 0001:001e0120       ?weaponswitch@game@@YAXPAUgameent@@@Z 005e1120 f   weapon.obj
 0001:001e01a0       ?run@?$_icmd_cycleweapon@$0FL@@game@@SAXPAUtagval@@H@Z 005e11a0 f   weapon.obj
 0001:001e0310       ?cycleweapon@game@@YAXHPAH_N@Z 005e1310 f   weapon.obj
 0001:001e03f0       ?run@?$_icmd_setweapon@$0ED@@game@@SAXPADPAH@Z 005e13f0 f   weapon.obj
 0001:001e0440       ?setweapon@game@@YAXPBD_N@Z 005e1440 f   weapon.obj
 0001:001e0490       ?getweapon@game@@YAHPBD@Z  005e1490 f   weapon.obj
 0001:001e0500       ?run@?$_icmd_nextweapon@$0CP@@game@@SAXPAH0@Z 005e1500 f   weapon.obj
 0001:001e05c0       ?nextweapon@game@@YAXH_N@Z 005e15c0 f   weapon.obj
 0001:001e0680       ?run@?$_icmd_getweapon@$0BG@@game@@SAXXZ 005e1680 f   weapon.obj
 0001:001e06a0       ?renderbouncers@game@@YAXXZ 005e16a0 f   weapon.obj
 0001:001e0800       ?renderprojectiles@game@@YAXXZ 005e1800 f   weapon.obj
 0001:001e0810       ?preloadbouncers@game@@YAXXZ 005e1810 f   weapon.obj
 0001:001e0820       ?clearprojectiles@game@@YAXXZ 005e1820 f   weapon.obj
 0001:001e0840       ?clearbouncers@game@@YAXXZ 005e1840 f   weapon.obj
 0001:001e0880       ?intersect@game@@YA_NPAUdynent@@ABUvec@@1MAAM@Z 005e1880 f   weapon.obj
 0001:001e0900       ?updateweapons@game@@YAXH@Z 005e1900 f   weapon.obj
 0001:001e0a70       ?damageeffect@game@@YAXHPAUgameent@@_N@Z 005e1a70 f   weapon.obj
 0001:001e0b20       ?gibeffect@game@@YAXHABUvec@@PAUgameent@@@Z 005e1b20 f   weapon.obj
 0001:001e0b30       ?removeweapons@game@@YAXPAUgameent@@@Z 005e1b30 f   weapon.obj
 0001:001e0c60       ?intersectclosest@game@@YAPAUdynent@@ABUvec@@0PAUgameent@@MAAM@Z 005e1c60 f   weapon.obj
 0001:001e0d70       ?gunselect@game@@YAXHPAUgameent@@@Z 005e1d70 f   weapon.obj
 0001:001e0dc0       ?shoot@game@@YAXPAUgameent@@ABUvec@@@Z 005e1dc0 f   weapon.obj
 0001:001e1280       ?avoidweapons@game@@YAXAAUavoidset@ai@@M@Z 005e2280 f   weapon.obj
 0001:001e1300       ?particletrack@game@@YAXPAUphysent@@AAUvec@@1@Z 005e2300 f   weapon.obj
 0001:001e14d0       ?adddynlights@game@@YAXXZ  005e24d0 f   weapon.obj
 0001:001e1610       ?dynlighttrack@game@@YAXPAUphysent@@AAUvec@@1@Z 005e2610 f   weapon.obj
 0001:001e16b0       ?bounced@game@@YAXPAUphysent@@ABUvec@@@Z 005e26b0 f   weapon.obj
 0001:001e1ab0       ?gotosel@game@@YAXXZ       005e2ab0 f   client1.obj
 0001:001e1c70       ?gotoplayer@game@@YAXPBD@Z 005e2c70 f   client1.obj
 0001:001e1e00       ?sendmap@game@@YAXXZ       005e2e00 f   client1.obj
 0001:001e1f80       ?listdemos@game@@YAXXZ     005e2f80 f   client1.obj
 0001:001e1fa0       ?run@?$_icmd_getdemo@$0IGB@@game@@SAXPAD0@Z 005e2fa0 f   client1.obj
 0001:001e2170       ?getdemo@game@@YAXPAD0@Z   005e3170 f   client1.obj
 0001:001e2340       ?run@?$_icmd_cleardemos@$0IEO@@game@@SAXPAH@Z 005e3340 f   client1.obj
 0001:001e2370       ?cleardemos@game@@YAXH@Z   005e3370 f   client1.obj
 0001:001e23a0       ?run@?$_icmd_recorddemo@$0IEH@@game@@SAXPAH@Z 005e33a0 f   client1.obj
 0001:001e23d0       ?recorddemo@game@@YAXH@Z   005e33d0 f   client1.obj
 0001:001e2400       ?stopdemo@game@@YAXXZ      005e3400 f   client1.obj
 0001:001e2450       ?getmap@game@@YAXXZ        005e3450 f   client1.obj
 0001:001e24a0       ?receivefile@game@@YAXAAUpacketbuf@@@Z 005e34a0 f   client1.obj
 0001:001e2800       ?parsemessages@game@@YAXHPAUgameent@@AAU?$databuf@E@@@Z 005e3800 f   client1.obj
 0001:001e5ce0       ?parsestate@game@@YAXPAUgameent@@AAU?$databuf@E@@_N@Z 005e6ce0 f   client1.obj
 0001:001e5e60       ?parsepositions@game@@YAXAAU?$databuf@E@@@Z 005e6e60 f   client1.obj
 0001:001e6b30       ?updatepos@game@@YAXPAUgameent@@@Z 005e7b30 f   client1.obj
 0001:001e6c40       ?sendintro@game@@YAXXZ     005e7c40 f   client1.obj
 0001:001e6ff0       ?sendmessages@game@@YAXXZ  005e7ff0 f   client1.obj
 0001:001e72a0       ?sendpositions@game@@YAXXZ 005e82a0 f   client1.obj
 0001:001e7a80       ?run@?$_icmd_servcmd@$0DNF@@game@@SAXPAD@Z 005e8a80 f   client1.obj
 0001:001e7aa0       ?sayteam@game@@YAXPAD@Z    005e8aa0 f   client1.obj
 0001:001e7b10       ?chatcolorname@game@@YAPBDPAUgameent@@@Z 005e8b10 f   client1.obj
 0001:001e7b30       ?run@?$_icmd_prettygamespeed@$0DFJ@@game@@SAXXZ 005e8b30 f   client1.obj
 0001:001e7bb0       ?run@?$_icmd_gamespeed@$0DFI@@game@@SAXPAH0PAUident@@@Z 005e8bb0 f   client1.obj
 0001:001e7c90       ?changegamespeed@game@@YAXH@Z 005e8c90 f   client1.obj
 0001:001e7cf0       ?run@?$_icmd_paused@$0DEH@@game@@SAXPAH0PAUident@@@Z 005e8cf0 f   client1.obj
 0001:001e7d80       ?run@?$_icmd_pausegame@$0DEB@@game@@SAXPAH@Z 005e8d80 f   client1.obj
 0001:001e7de0       ?pausegame@game@@YAX_N@Z   005e8de0 f   client1.obj
 0001:001e7e30       ?printvar@game@@YAXPAUgameent@@PAUident@@@Z 005e8e30 f   client1.obj
 0001:001e7f40       ?sendclipboard@game@@YAXXZ 005e8f40 f   client1.obj
 0001:001e8110       ?run@?$_icmd_map@$0CIA@@game@@SAXPAD@Z 005e9110 f   client1.obj
 0001:001e8140       ?changemap@game@@YAXPBDH@Z 005e9140 f   client1.obj
 0001:001e8260       ?run@?$_icmds_@$0CHB@@game@@SAXPAH@Z 005e9260 f   client1.obj
 0001:001e82a0       ?run@?$_icmds_@$0CHA@@game@@SAXPAH@Z 005e92a0 f   client1.obj
 0001:001e82e0       ?run@?$_icmds_@$0CGP@@game@@SAXPAH@Z 005e92e0 f   client1.obj
 0001:001e8320       ?run@?$_icmds_@$0CGO@@game@@SAXPAH@Z 005e9320 f   client1.obj
 0001:001e8360       ?run@?$_icmds_@$0CGN@@game@@SAXPAH@Z 005e9360 f   client1.obj
 0001:001e83a0       ?run@?$_icmds_@$0CGM@@game@@SAXPAH@Z 005e93a0 f   client1.obj
 0001:001e83e0       ?run@?$_icmds_@$0CGL@@game@@SAXPAH@Z 005e93e0 f   client1.obj
 0001:001e8420       ?run@?$_icmds_@$0CGK@@game@@SAXPAH@Z 005e9420 f   client1.obj
 0001:001e8460       ?run@?$_icmd_intermission@$0CGI@@game@@SAXXZ 005e9460 f   client1.obj
 0001:001e8480       ?run@?$_icmd_timeremaining@$0CGH@@game@@SAXPAH@Z 005e9480 f   client1.obj
 0001:001e8500       ?run@?$_icmd_getmodeprettyname@$0CGB@@game@@SAXPAH@Z 005e9500 f   client1.obj
 0001:001e8570       ?run@?$_icmd_getmodename@$0CGA@@game@@SAXPAH@Z 005e9570 f   client1.obj
 0001:001e85e0       ?run@?$_icmd_getnextmode@$0CFP@@game@@SAXXZ 005e95e0 f   client1.obj
 0001:001e8610       ?run@?$_icmd_getmode@$0CFO@@game@@SAXXZ 005e9610 f   client1.obj
 0001:001e8630       ?run@?$_icmd_mode@$0CFN@@game@@SAXPAH@Z 005e9630 f   client1.obj
 0001:001e86b0       ?setmode@game@@YAXH@Z      005e96b0 f   client1.obj
 0001:001e8730       ?changemapserv@game@@YAXPBDH@Z 005e9730 f   client1.obj
 0001:001e8840       ?run@?$_icmd_checkmaps@$0CDJ@@game@@SAXXZ 005e9840 f   client1.obj
 0001:001e8850       ?run@?$_icmd_spectator@$0CDH@@game@@SAXPAHPAD@Z 005e9850 f   client1.obj
 0001:001e8890       ?togglespectator@game@@YAXHPBD@Z 005e9890 f   client1.obj
 0001:001e88d0       ?run@?$_icmd_getservauth@$0CDA@@game@@SAXXZ 005e98d0 f   client1.obj
 0001:001e8920       ?run@?$_icmd_dauth@$0CCO@@game@@SAXPAD@Z 005e9920 f   client1.obj
 0001:001e8950       ?run@?$_icmd_sauth@$0CCN@@game@@SAXXZ 005e9950 f   client1.obj
 0001:001e8990       ?run@?$_icmd_auth@$0CCM@@game@@SAXPAD@Z 005e9990 f   client1.obj
 0001:001e89c0       ?tryauth@game@@YA_NPBD@Z   005e99c0 f   client1.obj
 0001:001e89f0       ?run@?$_icmd_mastermode@$0CCC@@game@@SAXPAH@Z 005e99f0 f   client1.obj
 0001:001e8a10       ?setmaster@game@@YAXPBD0@Z 005e9a10 f   client1.obj
 0001:001e8b00       ?hashpwd@game@@YAXPBD@Z    005e9b00 f   client1.obj
 0001:001e8bb0       ?setteam@game@@YAXPBD0@Z   005e9bb0 f   client1.obj
 0001:001e8c10       ?run@?$_icmd_isignored@$0BPK@@game@@SAXPAD@Z 005e9c10 f   client1.obj
 0001:001e8c60       ?run@?$_icmd_unignore@$0BPJ@@game@@SAXPAD@Z 005e9c60 f   client1.obj
 0001:001e8c70       ?run@?$_icmd_ignore@$0BPI@@game@@SAXPAD@Z 005e9c70 f   client1.obj
 0001:001e8d10       ?isignored@game@@YA_NH@Z   005e9d10 f   client1.obj
 0001:001e8d40       ?ignore@game@@YAXH@Z       005e9d40 f   client1.obj
 0001:001e8de0       ?run@?$_icmd_dauthkick@$0BOC@@game@@SAXPBD00@Z 005e9de0 f   client1.obj
 0001:001e8e00       ?run@?$_icmd_sauthkick@$0BOB@@game@@SAXPBD0@Z 005e9e00 f   client1.obj
 0001:001e8e60       ?run@?$_icmd_authkick@$0BOA@@game@@SAXPBD0@Z 005e9e60 f   client1.obj
 0001:001e8ec0       ?authkick@game@@YAXPBD00@Z 005e9ec0 f   client1.obj
 0001:001e8f10       ?kick@game@@YAXPBD0@Z      005e9f10 f   client1.obj
 0001:001e8f40       ?clearbans@game@@YAXXZ     005e9f40 f   client1.obj
 0001:001e8f50       ?run@?$_icmd_listclients@$0BMH@@game@@SAXPAH0@Z 005e9f50 f   client1.obj
 0001:001e8f70       ?listclients@game@@YAX_N0@Z 005e9f70 f   client1.obj
 0001:001e92f0       ?run@?$_icmd_getclientnum@$0BLB@@game@@SAXPAD@Z 005ea2f0 f   client1.obj
 0001:001e9330       ?run@?$_icmd_isai@$0BJI@@game@@SAXPAH0@Z 005ea330 f   client1.obj
 0001:001e93a0       ?isai@game@@YA_NHH@Z       005ea3a0 f   client1.obj
 0001:001e93f0       ?run@?$_icmd_isdead@$0BJA@@game@@SAXPAH@Z 005ea3f0 f   client1.obj
 0001:001e9440       ?run@?$_icmd_islagged@$0BIK@@game@@SAXPAH@Z 005ea440 f   client1.obj
 0001:001e9490       ?run@?$_icmd_isspectator@$0BIE@@game@@SAXPAH@Z 005ea490 f   client1.obj
 0001:001e94f0       ?isspectator@game@@YA_NH@Z 005ea4f0 f   client1.obj
 0001:001e9530       ?run@?$_icmd_getmastermodename@$0BHN@@game@@SAXPAH@Z 005ea530 f   client1.obj
 0001:001e95a0       ?run@?$_icmd_getmastermode@$0BHM@@game@@SAXXZ 005ea5a0 f   client1.obj
 0001:001e95c0       ?run@?$_icmd_isadmin@$0BHK@@game@@SAXPAH@Z 005ea5c0 f   client1.obj
 0001:001e9620       ?isadmin@game@@YA_NH@Z     005ea620 f   client1.obj
 0001:001e9660       ?run@?$_icmd_isauth@$0BHD@@game@@SAXPAH@Z 005ea660 f   client1.obj
 0001:001e96c0       ?isauth@game@@YA_NH@Z      005ea6c0 f   client1.obj
 0001:001e9700       ?run@?$_icmd_ismaster@$0BGM@@game@@SAXPAH@Z 005ea700 f   client1.obj
 0001:001e9760       ?ismaster@game@@YA_NH@Z    005ea760 f   client1.obj
 0001:001e97a0       ?run@?$_icmd_getclientdeaths@$0BGF@@game@@SAXPAH@Z 005ea7a0 f   client1.obj
 0001:001e97e0       ?run@?$_icmd_getclientflags@$0BFP@@game@@SAXPAH@Z 005ea7e0 f   client1.obj
 0001:001e9820       ?run@?$_icmd_getclientfrags@$0BFJ@@game@@SAXPAH@Z 005ea820 f   client1.obj
 0001:001e9860       ?run@?$_icmd_getclientcolor@$0BFD@@game@@SAXPAH@Z 005ea860 f   client1.obj
 0001:001e98f0       ?getclientcolor@game@@YAHH@Z 005ea8f0 f   client1.obj
 0001:001e9960       ?run@?$_icmd_getclienticon@$0BEM@@game@@SAXPAH@Z 005ea960 f   client1.obj
 0001:001e9a20       ?getclienticon@game@@YAPBDH@Z 005eaa20 f   client1.obj
 0001:001e9aa0       ?run@?$_icmd_getclientmodel@$0BED@@game@@SAXPAH@Z 005eaaa0 f   client1.obj
 0001:001e9b00       ?getclientmodel@game@@YAHH@Z 005eab00 f   client1.obj
 0001:001e9b30       ?run@?$_icmd_getclientteam@$0BDM@@game@@SAXPAH@Z 005eab30 f   client1.obj
 0001:001e9ba0       ?getclientteam@game@@YAHH@Z 005eaba0 f   client1.obj
 0001:001e9c00       ?run@?$_icmd_getclientcolorname@$0BDF@@game@@SAXPAH@Z 005eac00 f   client1.obj
 0001:001e9c50       ?run@?$_icmd_getclientname@$0BCP@@game@@SAXPAH@Z 005eac50 f   client1.obj
 0001:001e9cd0       ?getclientname@game@@YAPBDH@Z 005eacd0 f   client1.obj
 0001:001e9d10       ?saveauthkeys@game@@YAXXZ  005ead10 f   client1.obj
 0001:001e9df0       ?getpubkey@game@@YAXPBD@Z  005eadf0 f   client1.obj
 0001:001e9ed0       ?genauthkey@game@@YAXPBD@Z 005eaed0 f   client1.obj
 0001:001e9fc0       ?run@?$_icmd_hasauthkey@$0OD@@game@@SAXPAD0@Z 005eafc0 f   client1.obj
 0001:001ea0a0       ?hasauthkey@game@@YA_NPBD0@Z 005eb0a0 f   client1.obj
 0001:001ea150       ?run@?$_icmd_authkey@$0NK@@game@@SAXPAD00@Z 005eb150 f   client1.obj
 0001:001ea170       ?addauthkey@game@@YAXPBD00@Z 005eb170 f   client1.obj
 0001:001ea480       ?findauthkey@game@@YAPAUauthkey@1@PBD@Z 005eb480 f   client1.obj
 0001:001ea570       ?run@?$_icmd_getteamname@$0LG@@game@@SAXPAH@Z 005eb570 f   client1.obj
 0001:001ea5d0       ?run@?$_icmd_getteam@$0LF@@game@@SAXXZ 005eb5d0 f   client1.obj
 0001:001ea620       ?run@?$_icmd_team@$0LE@@game@@SAXPADPAH@Z 005eb620 f   client1.obj
 0001:001ea750       ?printteam@game@@YAXXZ     005eb750 f   client1.obj
 0001:001ea7b0       ?switchteam@game@@YAXPBD@Z 005eb7b0 f   client1.obj
 0001:001ea810       ?run@?$_icmd_getname@$0KB@@game@@SAXXZ 005eb810 f   client1.obj
 0001:001ea870       ?run@?$_icmd_name@$0KA@@game@@SAXPADPAH@Z 005eb870 f   client1.obj
 0001:001ea930       ?printname@game@@YAXXZ     005eb930 f   client1.obj
 0001:001ea960       ?switchname@game@@YAXPBD@Z 005eb960 f   client1.obj
 0001:001ea9e0       ?run@?$_icmd_dropflag@$0DIO@@game@@SAXXZ 005eb9e0 f   client1.obj
 0001:001eaa40       ?drawteammates@game@@YAXPAUgameent@@MMM@Z 005eba40 f   client1.obj
 0001:001eacf0       ?drawplayerblip@game@@YAXPAUgameent@@MMMM@Z 005ebcf0 f   client1.obj
 0001:001eae30       ?setbliptex@game@@YAXHPBD@Z 005ebe30 f   client1.obj
 0001:001eae90       ?drawteammate@game@@YAXPAUgameent@@MMM0MM@Z 005ebe90 f   client1.obj
 0001:001eb210       ?drawradar@game@@YAXMMM@Z  005ec210 f   client1.obj
 0001:001eb400       ?setradartex@game@@YAXXZ   005ec400 f   client1.obj
 0001:001eb430       ?drawminimap@game@@YAXPAUgameent@@MMM@Z 005ec430 f   client1.obj
 0001:001eb680       ?calcradarscale@game@@YAMXZ 005ec680 f   client1.obj
 0001:001eb6c0       ?parseplayer@game@@YAHPBD@Z 005ec6c0 f   client1.obj
 0001:001eb7b0       ?c2sinfo@game@@YAX_N@Z     005ec7b0 f   client1.obj
 0001:001eb950       ?unignore@game@@YAXH@Z     005ec950 f   client1.obj
 0001:001eb9d0       ?setclientmode@game@@YAXXZ 005ec9d0 f   client1.obj
 0001:001eba00       ?sendmapinfo@game@@YAXXZ   005eca00 f   client1.obj
 0001:001eba40       ?sendposition@game@@YAXPAUgameent@@_N@Z 005eca40 f   client1.obj
 0001:001ebb30       ?addmsg@game@@YA_NHPBDZZ   005ecb30 f   client1.obj
 0001:001ebf90       ?ispaused@game@@YA_NXZ     005ecf90 f   client1.obj
 0001:001ebfa0       ?toserver@game@@YAXPAD@Z   005ecfa0 f   client1.obj
 0001:001ec000       ?vartrigger@game@@YAXPAUident@@@Z 005ed000 f   client1.obj
 0001:001ec0c0       ?writeclientinfo@game@@YAXPAUstream@@@Z 005ed0c0 f   client1.obj
 0001:001ec0f0       ?allowmouselook@game@@YA_NXZ 005ed0f0 f   client1.obj
 0001:001ec130       ?connectfail@game@@YAXXZ   005ed130 f   client1.obj
 0001:001ec150       ?connectattempt@game@@YAXPBD0ABU_ENetAddress@@@Z 005ed150 f   client1.obj
 0001:001ec190       ?gamedisconnect@game@@YAX_N@Z 005ed190 f   client1.obj
 0001:001ec2a0       ?parsepacketclient@game@@YAXHAAUpacketbuf@@@Z 005ed2a0 f   client1.obj
 0001:001ec2e0       ?gameconnect@game@@YAX_N@Z 005ed2e0 f   client1.obj
 0001:001ec2f0       ?newmap@game@@YAXH@Z       005ed2f0 f   client1.obj
 0001:001ec310       ?scaletime@game@@YAHH@Z    005ed310 f   client1.obj
 0001:001ec320       ?allowedittoggle@game@@YA_NXZ 005ed320 f   client1.obj
 0001:001ec3a0       ?edittoggled@game@@YAX_N@Z 005ed3a0 f   client1.obj
 0001:001ec450       ?edittrigger@game@@YAXABUselinfo@@HHHHPBUVSlot@@@Z 005ed450 f   client1.obj
 0001:001eca30       ?forceedit@game@@YAXPBD@Z  005eda30 f   client1.obj
 0001:001eca40       ?changemap@game@@YAXPBD@Z  005eda40 f   client1.obj
 0001:001ecf10       ?changeteam@aiman@server@@YAXPAUclientinfo@2@@Z 005edf10 f   server1.obj
 0001:001ecf30       ?addclient@aiman@server@@YAXPAUclientinfo@2@@Z 005edf30 f   server1.obj
 0001:001ecf50       ?changemap@aiman@server@@YAXXZ 005edf50 f   server1.obj
 0001:001ecff0       ?setbotbalance@aiman@server@@YAXPAUclientinfo@2@_N@Z 005edff0 f   server1.obj
 0001:001ed060       ?setbotlimit@aiman@server@@YAXPAUclientinfo@2@H@Z 005ee060 f   server1.obj
 0001:001ed0d0       ?reqdel@aiman@server@@YAXPAUclientinfo@2@@Z 005ee0d0 f   server1.obj
 0001:001ed130       ?reqadd@aiman@server@@YAXPAUclientinfo@2@H@Z 005ee130 f   server1.obj
 0001:001ed190       ?checkai@aiman@server@@YAXXZ 005ee190 f   server1.obj
 0001:001ed400       ?clearai@aiman@server@@YAXXZ 005ee400 f   server1.obj
 0001:001ed500       ?checksetup@aiman@server@@YAXXZ 005ee500 f   server1.obj
 0001:001ed640       ?reassignai@aiman@server@@YA_NXZ 005ee640 f   server1.obj
 0001:001ed710       ?removeai@aiman@server@@YAXPAUclientinfo@2@@Z 005ee710 f   server1.obj
 0001:001ed740       ?shiftai@aiman@server@@YAXPAUclientinfo@2@0@Z 005ee740 f   server1.obj
 0001:001ed800       ?reinitai@aiman@server@@YAXPAUclientinfo@2@@Z 005ee800 f   server1.obj
 0001:001ed8f0       ?deleteai@aiman@server@@YA_NXZ 005ee8f0 f   server1.obj
 0001:001ed9e0       ?deleteai@aiman@server@@YAXPAUclientinfo@2@@Z 005ee9e0 f   server1.obj
 0001:001edab0       ?addai@aiman@server@@YA_NHH@Z 005eeab0 f   server1.obj
 0001:001edd70       ?findaiclient@aiman@server@@YAPAUclientinfo@2@PAU32@@Z 005eed70 f   server1.obj
 0001:001ede30       ?chooseteam@aiman@server@@YAHXZ 005eee30 f   server1.obj
 0001:001edec0       ?balanceteams@aiman@server@@YAXXZ 005eeec0 f   server1.obj
 0001:001ee170       ?calcteams@aiman@server@@YAXAAU?$vector@Uteamscore@@@@@Z 005ef170 f   server1.obj
 0001:001ee380       ?extserverinforeply@server@@YAXAAU?$databuf@E@@0@Z 005ef380 f   server1.obj
 0001:001ee540       ?extinfoteams@server@@YAXAAU?$databuf@E@@@Z 005ef540 f   server1.obj
 0001:001ee830       ?extinfoplayer@server@@YAXAAU?$databuf@E@@PAUclientinfo@1@@Z 005ef830 f   server1.obj
 0001:001eea30       ?connected@server@@YAXPAUclientinfo@1@@Z 005efa30 f   server1.obj
 0001:001eede0       ?sendclipboard@server@@YAXPAUclientinfo@1@@Z 005efde0 f   server1.obj
 0001:001eeee0       ?receivefile@server@@YAXHPAEH@Z 005efee0 f   server1.obj
 0001:001eefb0       ?answerchallenge@server@@YA_NPAUclientinfo@1@IPADPBD@Z 005effb0 f   server1.obj
 0001:001ef420       ?tryauth@server@@YA_NPAUclientinfo@1@PBD1@Z 005f0420 f   server1.obj
 0001:001ef930       ?authchallenged@server@@YAXIPBD0@Z 005f0930 f   server1.obj
 0001:001ef990       ?authsucceeded@server@@YAXI@Z 005f0990 f   server1.obj
 0001:001efa80       ?authfailed@server@@YAXI@Z 005f0a80 f   server1.obj
 0001:001efb20       ?authfailed@server@@YAXPAUclientinfo@1@@Z 005f0b20 f   server1.obj
 0001:001efb90       ?findauth@server@@YAPAUclientinfo@1@I@Z 005f0b90 f   server1.obj
 0001:001efbd0       ?allowconnect@server@@YAHPAUclientinfo@1@PBD@Z 005f0bd0 f   server1.obj
 0001:001efcf0       ?run@?$_icmd_ipban@$0KGA@@server@@SAXPBD@Z 005f0cf0 f   server1.obj
 0001:001efd00       ?run@?$_icmd_clearipbans@$0KFP@@server@@SAXXZ 005f0d00 f   server1.obj
 0001:001efd20       ?verifybans@server@@YAXXZ  005f0d20 f   server1.obj
 0001:001efda0       ?checkbans@server@@YA_NI@Z 005f0da0 f   server1.obj
 0001:001efe20       ?noclients@server@@YAXXZ   005f0e20 f   server1.obj
 0001:001efe40       ?sendservinfo@server@@YAXPAUclientinfo@1@@Z 005f0e40 f   server1.obj
 0001:001efe80       ?unspectate@server@@YAXPAUclientinfo@1@@Z 005f0e80 f   server1.obj
 0001:001eff30       ?shouldspectate@server@@YA_NPAUclientinfo@1@@Z 005f0f30 f   server1.obj
 0001:001eff60       ?checkmaps@server@@YAXH@Z  005f0f60 f   server1.obj
 0001:001f03a0       ?forcespectator@server@@YAXPAUclientinfo@1@@Z 005f13a0 f   server1.obj
 0001:001f0420       ?cleartimedevents@server@@YAXPAUclientinfo@1@@Z 005f1420 f   server1.obj
 0001:001f0520       ?processevents@server@@YAXXZ 005f1520 f   server1.obj
 0001:001f05d0       ?flushevents@server@@YAXPAUclientinfo@1@H@Z 005f15d0 f   server1.obj
 0001:001f0650       ?clearevent@server@@YAXPAUclientinfo@1@@Z 005f1650 f   server1.obj
 0001:001f06b0       ?flush@timedevent@server@@UAE_NPAUclientinfo@2@H@Z 005f16b0 f   server1.obj
 0001:001f06e0       ?flush@gameevent@server@@UAE_NPAUclientinfo@2@H@Z 005f16e0 f   server1.obj
 0001:001f06f0       ?process@pickupevent@server@@UAEXPAUclientinfo@2@@Z 005f16f0 f   server1.obj
 0001:001f07f0       ?process@shotevent@server@@UAEXPAUclientinfo@2@@Z 005f17f0 f   server1.obj
 0001:001f0a90       ?process@explodeevent@server@@UAEXPAUclientinfo@2@@Z 005f1a90 f   server1.obj
 0001:001f0c60       ?process@suicideevent@server@@UAEXPAUclientinfo@2@@Z 005f1c60 f   server1.obj
 0001:001f0c70       ?suicide@server@@YAXPAUclientinfo@1@@Z 005f1c70 f   server1.obj
 0001:001f0d40       ?dodamage@server@@YAXPAUclientinfo@1@0HHABUvec@@@Z 005f1d40 f   server1.obj
 0001:001f1220       ?startintermission@server@@YAXXZ 005f2220 f   server1.obj
 0001:001f12b0       ?checkintermission@server@@YAX_N@Z 005f22b0 f   server1.obj
 0001:001f1340       ?checkovertime@server@@YA_NXZ 005f2340 f   server1.obj
 0001:001f15a0       ?vote@server@@YAXPBDHH@Z   005f25a0 f   server1.obj
 0001:001f17c0       ?checkvotes@server@@YAX_N@Z 005f27c0 f   server1.obj
 0001:001f1ae0       ?rotatemap@server@@YAX_N@Z 005f2ae0 f   server1.obj
 0001:001f1c30       ?changemap@server@@YAXPBDH@Z 005f2c30 f   server1.obj
 0001:001f2340       ?loaditems@server@@YAXXZ   005f3340 f   server1.obj
 0001:001f23a0       ?sendinitclient@server@@YAXPAUclientinfo@1@@Z 005f33a0 f   server1.obj
 0001:001f2480       ?sendresume@server@@YAXPAUclientinfo@1@@Z 005f3480 f   server1.obj
 0001:001f24e0       ?restorescore@server@@YA_NPAUclientinfo@1@@Z 005f34e0 f   server1.obj
 0001:001f2560       ?welcomepacket@server@@YAHAAUpacketbuf@@PAUclientinfo@1@@Z 005f3560 f   server1.obj
 0001:001f2ad0       ?hasmap@server@@YA_NPAUclientinfo@1@@Z 005f3ad0 f   server1.obj
 0001:001f2bb0       ?welcomeinitclient@server@@YAXAAUpacketbuf@@H@Z 005f3bb0 f   server1.obj
 0001:001f2cc0       ?putinitclient@server@@YAXPAUclientinfo@1@AAUpacketbuf@@@Z 005f3cc0 f   server1.obj
 0001:001f2d90       ?sendwelcome@server@@YAXPAUclientinfo@1@@Z 005f3d90 f   server1.obj
 0001:001f2e80       ?sendspawn@server@@YAXPAUclientinfo@1@@Z 005f3e80 f   server1.obj
 0001:001f2ed0       ?spawnstate@server@@YAXPAUclientinfo@1@@Z 005f3ed0 f   server1.obj
 0001:001f2ef0       ?buildworldstate@server@@YA_NXZ 005f3ef0 f   server1.obj
 0001:001f4060       ?flushclientposition@server@@YAXAAUclientinfo@1@@Z 005f5060 f   server1.obj
 0001:001f4170       ?cleanworldstate@server@@YAXPAU_ENetPacket@@@Z 005f5170 f   server1.obj
 0001:001f4210       ?checktype@server@@YAHHPAUclientinfo@1@@Z 005f5210 f   server1.obj
 0001:001f4310       ?savescore@server@@YAXPAUclientinfo@1@@Z 005f5310 f   server1.obj
 0001:001f4330       ?findscore@server@@YAPAUsavedscore@1@PAUclientinfo@1@_N@Z 005f5330 f   server1.obj
 0001:001f45d0       ?trykick@server@@YA_NPAUclientinfo@1@HPBD11H_N@Z 005f55d0 f   server1.obj
 0001:001f4790       ?setmaster@server@@YA_NPAUclientinfo@1@_NPBD22H11@Z 005f5790 f   server1.obj
 0001:001f4ec0       ?revokemaster@server@@YAXPAUclientinfo@1@@Z 005f5ec0 f   server1.obj
 0001:001f4ef0       ?checkpassword@server@@YA_NPAUclientinfo@1@PBD1@Z 005f5ef0 f   server1.obj
 0001:001f4f70       ?clearusers@server@@YAXXZ  005f5f70 f   server1.obj
 0001:001f4fc0       ?adduser@server@@YAXPAD000@Z 005f5fc0 f   server1.obj
 0001:001f52a0       ?changegamespeed@server@@YAXHPAUclientinfo@1@@Z 005f62a0 f   server1.obj
 0001:001f52f0       ?checkpausegame@server@@YAXXZ 005f62f0 f   server1.obj
 0001:001f5370       ?pausegame@server@@YAX_NPAUclientinfo@1@@Z 005f6370 f   server1.obj
 0001:001f53b0       ?run@?$_icmd_seekdemo@$0EPD@@server@@SAXPADPAHPAUident@@@Z 005f63b0 f   server1.obj
 0001:001f5610       ?seekdemo@server@@YAXPAD@Z 005f6610 f   server1.obj
 0001:001f5760       ?readdemo@server@@YAXXZ    005f6760 f   server1.obj
 0001:001f5860       ?setupdemoplayback@server@@YAXXZ 005f6860 f   server1.obj
 0001:001f5aa0       ?enddemoplayback@server@@YAXXZ 005f6aa0 f   server1.obj
 0001:001f5b40       ?senddemo@server@@YAXPAUclientinfo@1@HH@Z 005f6b40 f   server1.obj
 0001:001f5c20       ?cleardemos@server@@YAXH@Z 005f6c20 f   server1.obj
 0001:001f5d20       ?listdemos@server@@YAXH@Z  005f6d20 f   server1.obj
 0001:001f5ed0       ?setupdemorecord@server@@YAXXZ 005f6ed0 f   server1.obj
 0001:001f6010       ?writedemo@server@@YAXHPAXH@Z 005f7010 f   server1.obj
 0001:001f6080       ?enddemorecord@server@@YAXXZ 005f7080 f   server1.obj
 0001:001f6190       ?adddemo@server@@YAXXZ     005f7190 f   server1.obj
 0001:001f63d0       ?prunedemos@server@@YAXH@Z 005f73d0 f   server1.obj
 0001:001f6480       ?chooseworstteam@server@@YAHPAUclientinfo@1@@Z 005f7480 f   server1.obj
 0001:001f65c0       ?autoteam@server@@YAXXZ    005f75c0 f   server1.obj
 0001:001f6950       ?choosebestclient@server@@YAPAUclientinfo@1@AAM@Z 005f7950 f   server1.obj
 0001:001f69e0       ?clearteaminfo@server@@YAXXZ 005f79e0 f   server1.obj
 0001:001f6a00       ?pickup@server@@YA_NHH@Z   005f7a00 f   server1.obj
 0001:001f6ac0       ?spawntime@server@@YAHH@Z  005f7ac0 f   server1.obj
 0001:001f6ad0       ?canspawnitem@server@@YA_NH@Z 005f7ad0 f   server1.obj
 0001:001f6ae0       ?colorname@server@@YAPBDPAUclientinfo@1@PBD@Z 005f7ae0 f   server1.obj
 0001:001f6bb0       ?duplicatename@server@@YA_NPAUclientinfo@1@PBD@Z 005f7bb0 f   server1.obj
 0001:001f6c20       ?numclients@server@@YAHH_N00@Z 005f7c20 f   server1.obj
 0001:001f6c90       ?serveroption@server@@YA_NPBD@Z 005f7c90 f   server1.obj
 0001:001f6ca0       ?resetitems@server@@YAXXZ  005f7ca0 f   server1.obj
 0001:001f6cc0       ?sendservmsgf@server@@YAXPBDZZ 005f7cc0 f   server1.obj
 0001:001f6d20       ?privname@server@@YAPBDH@Z 005f7d20 f   server1.obj
 0001:001f6d50       ?getinfo@server@@YAPAUclientinfo@1@H@Z 005f7d50 f   server1.obj
 0001:001f6d90       ?checkteamkills@server@@YAXXZ 005f7d90 f   server1.obj
 0001:001f6e70       ?addteamkill@server@@YAXPAUclientinfo@1@0H@Z 005f7e70 f   server1.obj
 0001:001f6fc0       ?addteamkillkick@server@@YAXPADPAH1@Z 005f7fc0 f   server1.obj
 0001:001f7150       ?teamkillkickreset@server@@YAXXZ 005f8150 f   server1.obj
 0001:001f7160       ?var_publicserver@server@@YAXPAUident@@@Z 005f8160 f   server1.obj
 0001:001f71a0       ?var_autorecorddemo@server@@YAXPAUident@@@Z 005f81a0 f   server1.obj
 0001:001f71b0       ?addmaprotations@server@@YAXPAUtagval@@H@Z 005f81b0 f   server1.obj
 0001:001f7440       ?addmaprotation@server@@YA_NHPBD@Z 005f8440 f   server1.obj
 0001:001f7530       ?genmodemask@server@@YAHAAU?$vector@PAD@@@Z 005f8530 f   server1.obj
 0001:001f76a0       ?searchmodename@server@@YA_NPBD0@Z 005f86a0 f   server1.obj
 0001:001f7720       ?findmaprotation@server@@YAHHPBD@Z 005f8720 f   server1.obj
 0001:001f79d0       ?nextmaprotation@server@@YAXXZ 005f89d0 f   server1.obj
 0001:001f7a20       ?maprotationreset@server@@YAXXZ 005f8a20 f   server1.obj
 0001:001f7a40       ?kickclients@server@@YAXIPAUclientinfo@1@H@Z 005f8a40 f   server1.obj
 0001:001f7ae0       ?addban@server@@YAXIH@Z    005f8ae0 f   server1.obj
 0001:001f7bf0       ?hashpassword@server@@YAXHHPBDPADH@Z 005f8bf0 f   server1.obj
 0001:001f7c40       ?forcemap@server@@YAXPBDH@Z 005f8c40 f   server1.obj
 0001:001f7d10       ?forcepaused@server@@YAX_N@Z 005f8d10 f   server1.obj
 0001:001f7d40       ?forcegamespeed@server@@YAXH@Z 005f8d40 f   server1.obj
 0001:001f7d80       ?msgsizelookup@server@@YAHH@Z 005f8d80 f   server1.obj
 0001:001f7de0       ?getdemofile@server@@YAPBDPBD_N@Z 005f8de0 f   server1.obj
 0001:001f7ef0       ?stopdemo@server@@YAXXZ    005f8ef0 f   server1.obj
 0001:001f7f20       ?timeupdate@server@@YAXH@Z 005f8f20 f   server1.obj
 0001:001f7f60       ?modeprettyname@server@@YAPBDHPBD@Z 005f8f60 f   server1.obj
 0001:001f7f80       ?modename@server@@YAPBDHPBD@Z 005f8f80 f   server1.obj
 0001:001f7fa0       ?mastermodename@server@@YAPBDHPBD@Z 005f8fa0 f   server1.obj
 0001:001f7fc0       ?delayspawn@server@@YA_NH@Z 005f8fc0 f   server1.obj
 0001:001f7fd0       ?parseoptions@game@@YAXAAU?$vector@PBD@@@Z 005f8fd0 f   server1.obj
 0001:001f8010       ?protocolversion@server@@YAHXZ 005f9010 f   server1.obj
 0001:001f8020       ?newclientinfo@server@@YAPAXXZ 005f9020 f   server1.obj
 0001:001f8080       ?deleteclientinfo@server@@YAXPAX@Z 005f9080 f   server1.obj
 0001:001f8090       ?recordpacket@server@@YAXHPAXH@Z 005f9090 f   server1.obj
 0001:001f80a0       ?allowbroadcast@server@@YA_NH@Z 005f90a0 f   server1.obj
 0001:001f80f0       ?clientdisconnect@server@@YAXH@Z 005f90f0 f   server1.obj
 0001:001f82f0       ?sendservmsg@server@@YAXPBD@Z 005f92f0 f   server1.obj
 0001:001f8310       ?parsepacket@server@@YAXHHAAUpacketbuf@@@Z 005f9310 f   server1.obj
 0001:001fc060       ?masterdisconnected@server@@YAXXZ 005fd060 f   server1.obj
 0001:001fc0f0       ?defaultmaster@server@@YAPBDXZ 005fd0f0 f   server1.obj
 0001:001fc100       ?masterport@server@@YAHXZ  005fd100 f   server1.obj
 0001:001fc110       ?processmasterinput@server@@YAXPBDH0@Z 005fd110 f   server1.obj
 0001:001fc400       ?serverinforeply@server@@YAXAAU?$databuf@E@@0@Z 005fd400 f   server1.obj
 0001:001fc5f0       ?masterconnected@server@@YAXXZ 005fd5f0 f   server1.obj
 0001:001fc600       ?serverupdate@server@@YAXXZ 005fd600 f   server1.obj
 0001:001fca70       ?sendpackets@server@@YA_N_N@Z 005fda70 f   server1.obj
 0001:001fcae0       ?scaletime@server@@YAHH@Z  005fdae0 f   server1.obj
 0001:001fcaf0       ?ispaused@server@@YA_NXZ   005fdaf0 f   server1.obj
 0001:001fcb00       ?clientconnect@server@@YAHHI@Z 005fdb00 f   server1.obj
 0001:001fcbe0       ?localdisconnect@server@@YAXH@Z 005fdbe0 f   server1.obj
 0001:001fcc10       ?localconnect@server@@YAXH@Z 005fdc10 f   server1.obj
 0001:001fccf0       ?reserveclients@server@@YAHXZ 005fdcf0 f   server1.obj
 0001:001fcd00       ?laninfoport@server@@YAHXZ 005fdd00 f   server1.obj
 0001:001fcd10       ?serverinit@server@@YAXXZ  005fdd10 f   server1.obj
 0001:001fcd40       ?serverport@server@@YAHXZ  005fdd40 f   server1.obj
 0001:001fcd50       ?numchannels@server@@YAHXZ 005fdd50 f   server1.obj
 0001:001fcd60       ?gameident@game@@YAPBDXZ   005fdd60 f   server1.obj
 0001:001fcd70       ___vdecl_sin2              005fdd70 f   LIBCMT:svml_dsin2_dispatch.obj
 0001:001fcd90       ___libm_sse2_sincos_       005fdd90 f   LIBCMT:svml_dsin2_dispatch.obj
 0001:001fcde0       ___vdecl_sinf4             005fdde0 f   LIBCMT:svml_ssinf4_dispatch.obj
 0001:001fce00       ___libm_sse2_sincosf_      005fde00 f   LIBCMT:svml_ssinf4_dispatch.obj
 0001:001fce50       ___libm_sse2_sincosf4_     005fde50 f   LIBCMT:svml_ssinf4_dispatch.obj
 0001:001fce60       ___vdecl_exp2              005fde60 f   LIBCMT:svml_dexp2_dispatch.obj
