 tesseract

 Timestamp is 607bfb63 (Sun Apr 18 11:26:59 2021)

 Preferred load address is 00400000

 Start         Length     Name                   Class
 0001:00000000 00006240H .text                   CODE
 0001:00006240 0001af20H .text$di                CODE
 0001:00021160 001e0200H .text$mn                CODE
 0001:00201360 00007ea0H .text$x                 CODE
 0001:00209200 000023a2H .text$yd                CODE
 0002:00000000 00000504H .idata$5                DATA
 0002:00000504 00000004H .00cfg                  DATA
 0002:00000508 00000004H .CRT$XCA                DATA
 0002:0000050c 00000004H .CRT$XCAA               DATA
 0002:00000510 00001cf4H .CRT$XCU                DATA
 0002:00002204 00000004H .CRT$XCZ                DATA
 0002:00002208 00000004H .CRT$XIA                DATA
 0002:0000220c 00000004H .CRT$XIAA               DATA
 0002:00002210 00000004H .CRT$XIAC               DATA
 0002:00002214 00000018H .CRT$XIC                DATA
 0002:0000222c 00000004H .CRT$XIZ                DATA
 0002:00002230 00000004H .CRT$XLA                DATA
 0002:00002234 00000004H .CRT$XLZ                DATA
 0002:00002238 00000004H .CRT$XPA                DATA
 0002:0000223c 00000008H .CRT$XPX                DATA
 0002:00002244 00000004H .CRT$XPXA               DATA
 0002:00002248 00000004H .CRT$XPZ                DATA
 0002:0000224c 00000004H .CRT$XTA                DATA
 0002:00002250 00000010H .CRT$XTZ                DATA
 0002:00002254 00000000H .gfids$y                DATA
 0002:00002260 00027d20H .rdata                  DATA
 0002:00029f80 00000000H .rdata$CastGuardVftablesA DATA
 0002:00029f80 00000000H .rdata$CastGuardVftablesC DATA
 0002:00029f80 00000018H .rdata$T                DATA
 0002:00029f98 000024a0H .rdata$r                DATA
 0002:0002c438 000000e0H .rdata$zzz              DATA
 0002:0002c518 00000400H .rdata$zzzdbg           DATA
 0002:0002c918 00000004H .rtc$IAA                DATA
 0002:0002c91c 00000004H .rtc$IZZ                DATA
 0002:0002c920 00000004H .rtc$TAA                DATA
 0002:0002c924 00000004H .rtc$TZZ                DATA
 0002:0002c928 00000004H .tls                    DATA
 0002:0002c92c 00000004H .tls$                   DATA
 0002:0002c930 00000008H .tls$ZZZ                DATA
 0002:0002c938 000092a8H .xdata$x                DATA
 0002:00035be0 00000084H .edata                  DATA
 0002:00035c64 000000dcH .idata$2                DATA
 0002:00035d40 00000014H .idata$3                DATA
 0002:00035d54 00000504H .idata$4                DATA
 0002:00036258 000014b8H .idata$6                DATA
 0003:00000000 00004af0H .data                   DATA
 0003:00004af0 0000003cH .data$r                 DATA
 0003:00004b2c 00000e34H .data$rs                DATA
 0003:00005960 000efd44H .bss                    DATA
 0004:00000000 00014008H _RDATA                  DATA
 0005:00000000 00000180H .rsrc$01                DATA
 0005:00000180 00016248H .rsrc$02                DATA

  Address         Publics by Value              Rva+Base       Lib:Object

 0000:00000000       ___hybrid_code_map_count   00000000     <absolute>
 0000:00000000       ___guard_iat_table         00000000     <absolute>
 0000:00000000       ___x64_code_ranges_to_entry_points_count 00000000     <absolute>
 0000:00000000       __except_list              00000000     <absolute>
 0000:00000000       ___safe_se_handler_count   00000000     <absolute>
 0000:00000000       ___hybrid_code_map         00000000     <absolute>
 0000:00000000       ___guard_eh_cont_count     00000000     <absolute>
 0000:00000000       ___arm64x_extra_rfe_table_size 00000000     <absolute>
 0000:00000000       ___guard_iat_count         00000000     <absolute>
 0000:00000000       ___x64_code_ranges_to_entry_points 00000000     <absolute>
 0000:00000000       ___guard_longjmp_count     00000000     <absolute>
 0000:00000000       ___arm64x_redirection_metadata 00000000     <absolute>
 0000:00000000       ___arm64x_extra_rfe_table  00000000     <absolute>
 0000:00000000       ___volatile_metadata       00000000     <absolute>
 0000:00000000       ___guard_longjmp_table     00000000     <absolute>
 0000:00000000       ___guard_check_icall_a64n_fptr 00000000     <absolute>
 0000:00000000       ___arm64x_redirection_metadata_count 00000000     <absolute>
 0000:00000000       ___guard_eh_cont_table     00000000     <absolute>
 0000:00000000       ___hybrid_auxiliary_iat    00000000     <absolute>
 0000:00000000       ___dynamic_value_reloc_table 00000000     <absolute>
 0000:00000000       ___arm64x_native_entrypoint 00000000     <absolute>
 0000:00000000       ___AbsoluteZero            00000000     <absolute>
 0000:00000000       ___enclave_config          00000000     <absolute>
 0000:00000000       ___guard_fids_table        00000000     <absolute>
 0000:00000000       ___safe_se_handler_table   00000000     <absolute>
 0000:00000000       ___guard_fids_count        00000000     <absolute>
 0000:00000000       ___hybrid_auxiliary_iat_copy 00000000     <absolute>
 0000:0000002c       __tls_array                0000002c     <absolute>
 0000:00000100       ___guard_flags             00000100     <absolute>
 0000:00000000       ___ImageBase               00400000     <linker-defined>
 0001:00000000       _enet_host_create          00401000 f   enet:host.o
 0001:000003c0       _enet_host_destroy         004013c0 f   enet:host.o
 0001:00000460       _enet_host_connect         00401460 f   enet:host.o
 0001:00000700       _enet_host_broadcast       00401700 f   enet:host.o
 0001:00000780       _enet_host_compress        00401780 f   enet:host.o
 0001:000007f0       _enet_host_channel_limit   004017f0 f   enet:host.o
 0001:00000810       _enet_host_bandwidth_limit 00401810 f   enet:host.o
 0001:00000830       _enet_host_bandwidth_throttle 00401830 f   enet:host.o
 0001:00000c10       _enet_peer_throttle        00401c10 f   enet:peer.o
 0001:00000c90       _enet_peer_receive         00401c90 f   enet:peer.o
 0001:00000d00       _enet_peer_reset_queues    00401d00 f   enet:peer.o
 0001:00001010       _enet_peer_on_connect      00402010 f   enet:peer.o
 0001:00001040       _enet_peer_on_disconnect   00402040 f   enet:peer.o
 0001:00001070       _enet_peer_reset           00402070 f   enet:peer.o
 0001:00001250       _enet_peer_ping_interval   00402250 f   enet:peer.o
 0001:00001270       _enet_peer_timeout         00402270 f   enet:peer.o
 0001:000012c0       _enet_peer_queue_acknowledgement 004022c0 f   enet:peer.o
 0001:000013a0       _enet_peer_setup_outgoing_command 004023a0 f   enet:peer.o
 0001:000014f0       _enet_peer_throttle_configure 004024f0 f   enet:peer.o
 0001:000015a0       _enet_peer_ping            004025a0 f   enet:peer.o
 0001:00001600       _enet_peer_disconnect      00402600 f   enet:peer.o
 0001:000016e0       _enet_peer_disconnect_later 004026e0 f   enet:peer.o
 0001:00001800       _enet_peer_disconnect_now  00402800 f   enet:peer.o
 0001:000018b0       _enet_peer_send            004028b0 f   enet:peer.o
 0001:00001c00       _enet_peer_queue_outgoing_command 00402c00 f   enet:peer.o
 0001:00001ca0       _enet_peer_dispatch_incoming_unreliable_commands 00402ca0 f   enet:peer.o
 0001:00001f40       _enet_peer_dispatch_incoming_reliable_commands 00402f40 f   enet:peer.o
 0001:00002050       _enet_peer_queue_incoming_command 00403050 f   enet:peer.o
 0001:000023f0       _enet_initialize           004033f0 f   enet:win32.o
 0001:00002460       _enet_deinitialize         00403460 f   enet:win32.o
 0001:00002480       _enet_host_random_seed     00403480 f   enet:win32.o
 0001:00002490       _enet_time_get             00403490 f   enet:win32.o
 0001:000024b0       _enet_time_set             004034b0 f   enet:win32.o
 0001:000024d0       _enet_address_set_host_ip  004034d0 f   enet:win32.o
 0001:00002680       _enet_address_set_host     00403680 f   enet:win32.o
 0001:000026e0       _enet_address_get_host_ip  004036e0 f   enet:win32.o
 0001:00002740       _enet_address_get_host     00403740 f   enet:win32.o
 0001:000027c0       _enet_socket_bind          004037c0 f   enet:win32.o
 0001:00002840       _enet_socket_get_address   00403840 f   enet:win32.o
 0001:000028a0       _enet_socket_listen        004038a0 f   enet:win32.o
 0001:000028e0       _enet_socket_create        004038e0 f   enet:win32.o
 0001:00002910       _enet_socket_set_option    00403910 f   enet:win32.o
 0001:00002a90       _enet_socket_get_option    00403a90 f   enet:win32.o
 0001:00002af0       _enet_socket_connect       00403af0 f   enet:win32.o
 0001:00002b90       _enet_socket_accept        00403b90 f   enet:win32.o
 0001:00002c20       _enet_socket_shutdown      00403c20 f   enet:win32.o
 0001:00002c50       _enet_socket_destroy       00403c50 f   enet:win32.o
 0001:00002c70       _enet_socket_send          00403c70 f   enet:win32.o
 0001:00002d50       _enet_socket_receive       00403d50 f   enet:win32.o
 0001:00002e40       _enet_socketset_select     00403e40 f   enet:win32.o
 0001:00002ea0       _enet_socket_wait          00403ea0 f   enet:win32.o
 0001:00003e70       _enet_protocol_command_size 00404e70 f   enet:protocol.o
 0001:00003e80       _enet_host_flush           00404e80 f   enet:protocol.o
 0001:00003ea0       _enet_host_check_events    00404ea0 f   enet:protocol.o
 0001:00004000       _enet_host_service         00405000 f   enet:protocol.o
 0001:00005df0       _enet_packet_create        00406df0 f   enet:packet.o
 0001:00005ea0       _enet_packet_destroy       00406ea0 f   enet:packet.o
 0001:00005ef0       _enet_packet_resize        00406ef0 f   enet:packet.o
 0001:00005f50       _enet_crc32                00406f50 f   enet:packet.o
 0001:000060f0       _enet_initialize_with_callbacks 004070f0 f   enet:callbacks.o
 0001:00006140       _enet_linked_version       00407140 f   enet:callbacks.o
 0001:00006150       _enet_malloc               00407150 f   enet:callbacks.o
 0001:00006190       _enet_free                 00407190 f   enet:callbacks.o
 0001:000061a0       _enet_list_clear           004071a0 f   enet:list.o
 0001:000061b0       _enet_list_insert          004071b0 f   enet:list.o
 0001:000061d0       _enet_list_remove          004071d0 f   enet:list.o
 0001:000061e0       _enet_list_move            004071e0 f   enet:list.o
 0001:00006210       _enet_list_size            00407210 f   enet:list.o
 0001:00021160       ?gentex@BlendBrush@@QAEXXZ 00422160 f i blend.obj
 0001:000213d0       ?shrink@?$vector@UBlendTexture@@@@QAEXH@Z 004223d0 f i blend.obj
 0001:00021440       ??$formatstring@$0BAE@@@YAXAAY0BAE@DPBDZZ 00422440 f i blend.obj
 0001:00021480       ___local_stdio_printf_options 00422480 f i blend.obj
 0001:00021490       ??0ImageData@@QAE@XZ       00422490 f i blend.obj
 0001:000214b0       ?resolve@GlobalShaderParam@@QAEPAUGlobalShaderParamState@@XZ 004224b0 f i blend.obj
 0001:00021700       ??1ImageData@@QAE@XZ       00422700 f i blend.obj
 0001:00021770       ?calcsize@ImageData@@QBEHXZ 00422770 f i blend.obj
 0001:00021810       ?newstring@@YAPADPBD@Z     00422810 f i blend.obj
 0001:00021860       ?toplane@plane@@QAE_NABUvec@@00@Z 00422860 f i light.obj
 0001:000219a0       ??0PackNode@@QAE@GGGG@Z    004229a0 f i light.obj
 0001:000219f0       ??1PackNode@@QAE@XZ        004229f0 f i light.obj
 0001:00021a20       ?discardchildren@PackNode@@QAEXXZ 00422a20 f i light.obj
 0001:00021a70       ?normalize@vec@@QAEAAU1@XZ 00422a70 f i light.obj
 0001:00021ae0       ??1?$hashbase@U?$hashset@Unormalgroup@@@@Unormalgroup@@U2@U2@@@QAE@XZ 00422ae0 f i normal.obj
 0001:00021b60       ?add@?$vector@H@@QAEAAHABH@Z 00422b60 f i normal.obj
 0001:00021b60       ?add@?$vector@I@@QAEAAIABI@Z 00422b60 f i renderlights.obj
 0001:00021b60       ?add@?$vector@PAUoctaentities@@@@QAEAAPAUoctaentities@@ABQAU2@@Z 00422b60 f i octarender.obj
 0001:00021ba0       ?deletechunks@?$hashbase@U?$hashset@Unormalgroup@@@@Unormalgroup@@U2@U2@@@QAEXXZ 00422ba0 f i normal.obj
 0001:00021be0       ?growbuf@?$vector@I@@QAEXH@Z 00422be0 f i renderlights.obj
 0001:00021be0       ?growbuf@?$vector@PAUskelzoneinfo@@@@QAEXH@Z 00422be0 f i rendermodel.obj
 0001:00021be0       ?growbuf@?$vector@PAUoctaentities@@@@QAEXH@Z 00422be0 f i octarender.obj
 0001:00021be0       ?growbuf@?$vector@PAUTexture@@@@QAEXH@Z 00422be0 f i rendertext.obj
 0001:00021be0       ?growbuf@?$vector@PAUplink@@@@QAEXH@Z 00422be0 f i octa.obj
 0001:00021be0       ?growbuf@?$vector@H@@QAEXH@Z 00422be0 f i normal.obj
 0001:00021c70       ??$access@Unormalkey@@U1@@?$hashbase@U?$hashset@Unormalgroup@@@@Unormalgroup@@U2@U2@@@QAEAAUnormalgroup@@ABUnormalkey@@0@Z 00422c70 f i normal.obj
 0001:00021d50       ??$access@Unormalkey@@@?$hashbase@U?$hashset@Unormalgroup@@@@Unormalgroup@@U2@U2@@@QAEPAUnormalgroup@@ABUnormalkey@@@Z 00422d50 f i normal.obj
 0001:00021de0       ?insert@?$hashbase@U?$hashset@Unormalgroup@@@@Unormalgroup@@U2@U2@@@QAEPAUchain@1@I@Z 00422de0 f i normal.obj
 0001:00021fb0       ?cross@vec@@QAEAAU1@ABU1@00@Z 00422fb0 f i normal.obj
 0001:00022070       ??1?$vector@PAUkeym@@@@QAE@XZ 00423070 f i console.obj
 0001:00022070       ??1?$vector@PAD@@QAE@XZ    00423070 f i server.obj
 0001:00022070       ??1?$vector@E@@QAE@XZ      00423070 f i octaedit.obj
 0001:00022070       ??1?$vector@PAUgameevent@server@@@@QAE@XZ 00423070 f i server1.obj
 0001:00022070       ??1?$vector@PAUvtxarray@@@@QAE@XZ 00423070 f i octarender.obj
 0001:00022070       ??1?$vector@PAUmesh@animmodel@@@@QAE@XZ 00423070 f i rendermodel.obj
 0001:00022070       ??1?$vector@PAUplink@@@@QAE@XZ 00423070 f i octa.obj
 0001:00022070       ??1?$vector@PAUclientinfo@server@@@@QAE@XZ 00423070 f i server1.obj
 0001:00022070       ??1?$vector@PAUgameent@@@@QAE@XZ 00423070 f i ai.obj
 0001:00022070       ??1?$vector@M@@QAE@XZ      00423070 f i ui.obj
 0001:00022070       ??1?$vector@PAUskelzoneinfo@@@@QAE@XZ 00423070 f i rendermodel.obj
 0001:00022070       ??1?$vector@PBD@@QAE@XZ    00423070 f i server.obj
 0001:00022070       ??1?$vector@PAUoctaentities@@@@QAE@XZ 00423070 f i octarender.obj
 0001:00022070       ??1?$vector@PAUskelmeshgroup@skelmodel@@@@QAE@XZ 00423070 f i rendermodel.obj
 0001:00022070       ??1?$vector@PAUphysent@@@@QAE@XZ 00423070 f i physics.obj
 0001:00022070       ??1?$vector@PAUident@@@@QAE@XZ 00423070 f i command.obj
 0001:00022070       ??1?$vector@PAUObject@UI@@@@QAE@XZ 00423070 f i ui.obj
 0001:00022070       ??1?$vector@PAUShader@@@@QAE@XZ 00423070 f i shader.obj
 0001:00022070       ??1?$vector@PAUpart@animmodel@@@@QAE@XZ 00423070 f i rendermodel.obj
 0001:00022070       ??1?$vector@PAUmaterialsurface@@@@QAE@XZ 00423070 f i pvs.obj
 0001:00022070       ??1?$vector@H@@QAE@XZ      00423070 f i normal.obj
 0001:00022070       ??1?$vector@D@@QAE@XZ      00423070 f i octaedit.obj
 0001:00022070       ??1?$vector@PAUTexture@@@@QAE@XZ 00423070 f i rendertext.obj
 0001:00022070       ??1?$vector@G@@QAE@XZ      00423070 f i octaedit.obj
 0001:00022070       ??1?$vector@I@@QAE@XZ      00423070 f i renderlights.obj
 0001:000220c0       ??8vec@@QBE_NABU0@@Z       004230c0 f i normal.obj
 0001:00022100       ??1?$hashset@Uplink@@@@QAE@XZ 00423100 f i octa.obj
 0001:00022100       ??1?$hashtable@Uivec@@H@@QAE@XZ 00423100 f i rendermodel.obj
 0001:00022100       ??1?$hashtable@Uvec@@H@@QAE@XZ 00423100 f i worldio.obj
 0001:00022140       ??1?$hashbase@U?$hashtable@Ucfkey@@Ucfpolys@@@@U?$hashtableentry@Ucfkey@@Ucfpolys@@@@Ucfkey@@Ucfpolys@@@@QAE@XZ 00423140 f i octa.obj
 0001:00022190       ??1?$hashbase@U?$hashtable@Uvec@@H@@U?$hashtableentry@Uvec@@H@@Uvec@@H@@QAE@XZ 00423190 f i worldio.obj
 0001:00022190       ??1?$hashbase@U?$hashtable@Ufileskey@@PAUfilesval@@@@U?$hashtableentry@Ufileskey@@PAUfilesval@@@@Ufileskey@@PAUfilesval@@@@QAE@XZ 00423190 f i console.obj
 0001:00022190       ??1?$hashbase@U?$hashset@Uplink@@@@Uplink@@U2@U2@@@QAE@XZ 00423190 f i octa.obj
 0001:00022190       ??1?$hashbase@U?$hashtable@Uivec@@H@@U?$hashtableentry@Uivec@@H@@Uivec@@H@@QAE@XZ 00423190 f i rendermodel.obj
 0001:00022210       ?deletechunks@?$hashbase@U?$hashtable@Ucfkey@@Ucfpolys@@@@U?$hashtableentry@Ucfkey@@Ucfpolys@@@@Ucfkey@@Ucfpolys@@@@QAEXXZ 00423210 f i octa.obj
 0001:00022290       ??1chain@?$hashbase@U?$hashtable@Ucfkey@@Ucfpolys@@@@U?$hashtableentry@Ucfkey@@Ucfpolys@@@@Ucfkey@@Ucfpolys@@@@QAE@XZ 00423290 f i octa.obj
 0001:00022300       ??1?$hashtableentry@Ucfkey@@Ucfpolys@@@@QAE@XZ 00423300 f i octa.obj
 0001:00022370       ??1wpcache@ai@@QAE@XZ      00423370 f i waypoint.obj
 0001:00022370       ??1cfpolys@@QAE@XZ         00423370 f i octa.obj
 0001:000223d0       ??1?$vector@Usmdbone@@@@QAE@XZ 004233d0 f i rendermodel.obj
 0001:000223d0       ??1?$vector@UUniformLoc@@@@QAE@XZ 004233d0 f i shader.obj
 0001:000223d0       ??1?$vector@Uvert@vertmodel@@@@QAE@XZ 004233d0 f i rendermodel.obj
 0001:000223d0       ??1?$vector@Ulinkedpart@animmodel@@@@QAE@XZ 004233d0 f i rendermodel.obj
 0001:000223d0       ??1?$vector@Urotfriction@ragdollskel@@@@QAE@XZ 004233d0 f i rendermodel.obj
 0001:000223d0       ??1?$vector@Upitchcorrect@skelmodel@@@@QAE@XZ 004233d0 f i rendermodel.obj
 0001:000223d0       ??1?$vector@UFragDataLoc@@@@QAE@XZ 004233d0 f i shader.obj
 0001:000223d0       ??1?$vector@Udistlimit@ragdollskel@@@@QAE@XZ 004233d0 f i rendermodel.obj
 0001:000223d0       ??1?$vector@Uteamscore@@@@QAE@XZ 004233d0 f i scoreboard.obj
 0001:000223d0       ??1?$vector@Uvotecount@server@@@@QAE@XZ 004233d0 f i server1.obj
 0001:000223d0       ??1?$vector@Ulightrect@@@@QAE@XZ 004233d0 f i renderlights.obj
 0001:000223d0       ??1?$vector@Umd5joint@@@@QAE@XZ 004233d0 f i rendermodel.obj
 0001:000223d0       ??1?$vector@Uskin@animmodel@@@@QAE@XZ 004233d0 f i rendermodel.obj
 0001:000223d0       ??1?$vector@Usoundconfig@@@@QAE@XZ 004233d0 f i sound.obj
 0001:000223d0       ??1?$vector@Uflag@ctfclientmode@game@@@@QAE@XZ 004233d0 f i client1.obj
 0001:000223d0       ??1?$vector@Upitchdep@skelmodel@@@@QAE@XZ 004233d0 f i rendermodel.obj
 0001:000223d0       ??1?$vector@Uvvertg@skelmodel@@@@QAE@XZ 004233d0 f i rendermodel.obj
 0001:000223d0       ??1?$vector@UGlobalShaderParamUse@@@@QAE@XZ 004233d0 f i shader.obj
 0001:000223d0       ??1?$vector@Uvec@@@@QAE@XZ 004233d0 f i worldio.obj
 0001:000223d0       ??1?$vector@Ueditline@@@@QAE@XZ 004233d0 f i ui.obj
 0001:000223d0       ??1?$vector@Ucrcinfo@server@@@@QAE@XZ 004233d0 f i server1.obj
 0001:000223d0       ??1?$vector@USlotShaderParamState@@@@QAE@XZ 004233d0 f i shader.obj
 0001:000223d0       ??1?$vector@Ugrasstri@@@@QAE@XZ 004233d0 f i octarender.obj
 0001:000223d0       ??1?$vector@Uvert@ragdollskel@@@@QAE@XZ 004233d0 f i rendermodel.obj
 0001:000223d0       ??1?$vector@Ucharinfo@font@@@@QAE@XZ 004233d0 f i rendertext.obj
 0001:000223d0       ??1?$vector@Unode@wpcache@ai@@@@QAE@XZ 004233d0 f i waypoint.obj
 0001:000223d0       ??1?$vector@Umesh@BIH@@@@QAE@XZ 004233d0 f i rendermodel.obj
 0001:000223d0       ??1?$vector@Utri@vertmodel@@@@QAE@XZ 004233d0 f i rendermodel.obj
 0001:000223d0       ??1?$vector@Uantipode@skelmodel@@@@QAE@XZ 004233d0 f i rendermodel.obj
 0001:000223d0       ??1?$vector@Uvvertg@vertmodel@@@@QAE@XZ 004233d0 f i rendermodel.obj
 0001:000223d0       ??1?$vector@Utriangle@@@@QAE@XZ 004233d0 f i renderva.obj
 0001:000223d0       ??1?$vector@Usoundslot@@@@QAE@XZ 004233d0 f i sound.obj
 0001:000223d0       ??1?$vector@Utcvert@vertmodel@@@@QAE@XZ 004233d0 f i rendermodel.obj
 0001:000223d0       ??1?$vector@Urotlimit@ragdollskel@@@@QAE@XZ 004233d0 f i rendermodel.obj
 0001:000223d0       ??1?$vector@Uobstacle@avoidset@ai@@@@QAE@XZ 004233d0 f i ai.obj
 0001:000223d0       ??1?$vector@USlotShaderParam@@@@QAE@XZ 004233d0 f i octaedit.obj
 0001:000223d0       ??1?$vector@UTex@Slot@@@@QAE@XZ 004233d0 f i texture.obj
 0001:000223d0       ??1?$vector@Umaterialsurface@@@@QAE@XZ 004233d0 f i octarender.obj
 0001:000223d0       ??1?$vector@Usortitem@@@@QAE@XZ 004233d0 f i command.obj
 0001:000223d0       ??1?$vector@Umd5hierarchy@@@@QAE@XZ 004233d0 f i rendermodel.obj
 0001:000223d0       ??1?$vector@Utri@skelbih@@@@QAE@XZ 004233d0 f i rendermodel.obj
 0001:000223d0       ??1?$vector@Upitchtarget@skelmodel@@@@QAE@XZ 004233d0 f i rendermodel.obj
 0001:000223d0       ??1?$vector@Uskelcacheentry@skelmodel@@@@QAE@XZ 004233d0 f i rendermodel.obj
 0001:000223d0       ??1?$vector@Ureljoint@ragdollskel@@@@QAE@XZ 004233d0 f i rendermodel.obj
 0001:000223d0       ??1?$vector@Uhitinfo@server@@@@QAE@XZ 004233d0 f i server1.obj
 0001:000223d0       ??1?$vector@Utri@ragdollskel@@@@QAE@XZ 004233d0 f i rendermodel.obj
 0001:000223d0       ??1?$vector@Upoly@@@@QAE@XZ 004233d0 f i octa.obj
 0001:000223d0       ??1?$vector@Ublendcombo@skelmodel@@@@QAE@XZ 004233d0 f i rendermodel.obj
 0001:000223d0       ??1?$vector@Uavisegmentinfo@@@@QAE@XZ 004233d0 f i movie.obj
 0001:000223d0       ??1?$vector@Udualquat@@@@QAE@XZ 004233d0 f i rendermodel.obj
 0001:000223d0       ??1?$vector@ULocalShaderParamState@@@@QAE@XZ 004233d0 f i shader.obj
 0001:000223d0       ??1?$vector@Usortkey@@@@QAE@XZ 004233d0 f i octarender.obj
 0001:000223d0       ??1?$vector@Utri@skelmodel@@@@QAE@XZ 004233d0 f i rendermodel.obj
 0001:000223d0       ??1?$vector@Uvvertgw@skelmodel@@@@QAE@XZ 004233d0 f i rendermodel.obj
 0001:000223d0       ??1?$vector@Uvertex@prefabmesh@@@@QAE@XZ 004233d0 f i octaedit.obj
 0001:000223d0       ??1?$vector@Udecalkey@@@@QAE@XZ 004233d0 f i octarender.obj
 0001:000223d0       ??1?$vector@Uivec2@@@@QAE@XZ 004233d0 f i worldio.obj
 0001:000223d0       ??1?$vector@Uanimspec@animmodel@@@@QAE@XZ 004233d0 f i rendermodel.obj
 0001:000223d0       ??1?$vector@Uvert@skelmodel@@@@QAE@XZ 004233d0 f i rendermodel.obj
 0001:000223d0       ??1?$vector@Uflag@ctfservmode@server@@@@QAE@XZ 004233d0 f i server1.obj
 0001:000223d0       ??1?$vector@Uipmask@@@@QAE@XZ 004233d0 f i server1.obj
 0001:000223d0       ??1?$vector@Umergedface@@@@QAE@XZ 004233d0 f i octarender.obj
 0001:000223d0       ??1?$vector@Uaistate@ai@@@@QAE@XZ 004233d0 f i ai.obj
 0001:000223d0       ??1?$vector@Uvertex@@@@QAE@XZ 004233d0 f i octarender.obj
 0001:000223d0       ??1?$vector@UAttribLoc@@@@QAE@XZ 004233d0 f i shader.obj
 0001:000223d0       ??1?$vector@Uaviindexentry@@@@QAE@XZ 004233d0 f i movie.obj
 0001:000223d0       ??1?$vector@Ujoint@ragdollskel@@@@QAE@XZ 004233d0 f i rendermodel.obj
 0001:00022420       ?insert@?$hashbase@U?$hashtable@Ucfkey@@Ucfpolys@@@@U?$hashtableentry@Ucfkey@@Ucfpolys@@@@Ucfkey@@Ucfpolys@@@@QAEPAUchain@1@I@Z 00423420 f i octa.obj
 0001:000225d0       ?insert@?$hashbase@U?$hashset@Uplink@@@@Uplink@@U2@U2@@@QAEPAUchain@1@I@Z 004235d0 f i octa.obj
 0001:00022780       ??0chain@?$hashbase@U?$hashtable@Ucfkey@@Ucfpolys@@@@U?$hashtableentry@Ucfkey@@Ucfpolys@@@@Ucfkey@@Ucfpolys@@@@QAE@XZ 00423780 f i octa.obj
 0001:000227e0       ??9vec@@QBE_NABU0@@Z       004237e0 f i octa.obj
 0001:00022820       ??9ivec2@@QBE_NABU0@@Z     00423820 f i octa.obj
 0001:00022840       ?cross@ivec@@QAEAAU1@ABU1@0@Z 00423840 f i octa.obj
 0001:00022890       ??1prefab@@QAE@XZ          00423890 f i octaedit.obj
 0001:00022920       ?addvert@prefabmesh@@QAEHABUvertex@1@@Z 00423920 f i octaedit.obj
 0001:00022ad0       ??1prefabmesh@@QAE@XZ      00423ad0 f i octaedit.obj
 0001:00022b80       ??0vslotref@@QAE@AAH@Z     00423b80 f i octaedit.obj
 0001:00022c60       ??1vslotref@@QAE@XZ        00423c60 f i octaedit.obj
 0001:00022c70       ?put@?$vector@D@@QAEXPBDH@Z 00423c70 f i octaedit.obj
 0001:00022c70       ?put@?$vector@E@@QAEXPBEH@Z 00423c70 f i octaedit.obj
 0001:00022cb0       ??0?$vector@Umergedface@@@@QAE@XZ 00423cb0 f i octarender.obj
 0001:00022cb0       ??0?$vector@PAUclientinfo@server@@@@QAE@XZ 00423cb0 f i server1.obj
 0001:00022cb0       ??0?$vector@D@@QAE@XZ      00423cb0 f i octaedit.obj
 0001:00022cb0       ??0?$vector@PAUgameent@@@@QAE@XZ 00423cb0 f i ai.obj
 0001:00022cb0       ??0?$vector@E@@QAE@XZ      00423cb0 f i octaedit.obj
 0001:00022cb0       ??0?$vector@Uanimspec@animmodel@@@@QAE@XZ 00423cb0 f i rendermodel.obj
 0001:00022cb0       ??0?$vector@Uvec@@@@QAE@XZ 00423cb0 f i worldio.obj
 0001:00022cb0       ??0?$vector@G@@QAE@XZ      00423cb0 f i octaedit.obj
 0001:00022cb0       ??0?$vector@Umaterialsurface@@@@QAE@XZ 00423cb0 f i octarender.obj
 0001:00022cb0       ??0?$vector@PAUvtxarray@@@@QAE@XZ 00423cb0 f i octarender.obj
 0001:00022cb0       ??0?$vector@PAD@@QAE@XZ    00423cb0 f i server.obj
 0001:00022cd0       ??1?$hashbase@U?$hashnameset@Uprefab@@@@Uprefab@@PBDU2@@@QAE@XZ 00423cd0 f i octaedit.obj
 0001:00022d60       ?add@?$vector@Ucrcinfo@server@@@@QAEAAUcrcinfo@server@@ABU23@@Z 00423d60 f i server1.obj
 0001:00022d60       ?add@?$vector@Uteamscore@@@@QAEAAUteamscore@@ABU2@@Z 00423d60 f i client1.obj
 0001:00022d60       ?add@?$vector@Uvslotmap@@@@QAEAAUvslotmap@@ABU2@@Z 00423d60 f i octaedit.obj
 0001:00022e20       ?remove@?$vector@G@@QAEGH@Z 00423e20 f i octaedit.obj
 0001:00022e70       ?add@?$vector@G@@QAEAAGABG@Z 00423e70 f i octaedit.obj
 0001:00022f20       ?add@?$vector@PAUeditinfo@@@@QAEAAPAUeditinfo@@ABQAU2@@Z 00423f20 f i octaedit.obj
 0001:00023000       ?pad@?$vector@E@@QAEPAEH@Z 00424000 f i octaedit.obj
 0001:00023040       ?reserve@?$vector@D@@QAE?AU?$databuf@D@@H@Z 00424040 f i octaedit.obj
 0001:00023080       ?growbuf@?$vector@D@@QAEXH@Z 00424080 f i octaedit.obj
 0001:00023080       ?growbuf@?$vector@E@@QAEXH@Z 00424080 f i octaedit.obj
 0001:00023100       ?growbuf@?$vector@USlotShaderParam@@@@QAEXH@Z 00424100 f i octaedit.obj
 0001:000231a0       ??1chain@?$hashbase@U?$hashnameset@Uprefab@@@@Uprefab@@PBDU2@@@QAE@XZ 004241a0 f i octaedit.obj
 0001:000231e0       ??$access@PAD@?$hashbase@U?$hashnameset@Uprefab@@@@Uprefab@@PBDU2@@@QAEPAUprefab@@ABQAD@Z 004241e0 f i octaedit.obj
 0001:00023270       ??$find@H@?$vector@H@@QAEHABH@Z 00424270 f i octaedit.obj
 0001:000232a0       ?insert@?$hashbase@U?$hashnameset@Uprefab@@@@Uprefab@@PBDU2@@@QAEPAUchain@1@I@Z 004242a0 f i octaedit.obj
 0001:00023470       ?put@?$vector@E@@QAEXABE@Z 00424470 f i octaedit.obj
 0001:000234a0       ??0chain@?$hashbase@U?$hashnameset@Uprefab@@@@Uprefab@@PBDU2@@@QAE@XZ 004244a0 f i octaedit.obj
 0001:00023500       ?setint@tagval@@QAEXH@Z    00424500 f i octaedit.obj
 0001:00023510       ?newstring@@YAPADPBDI@Z    00424510 f i octaedit.obj
 0001:00023560       ??$mult@Uvec4@@@matrix4@@QAEXABU0@0@Z 00424560 f i octaedit.obj
 0001:000239b0       ?translate@matrix4@@QAEXABUvec@@@Z 004249b0 f i octaedit.obj
 0001:00023ac0       ?rotate_around_y@matrix4@@QAEXMM@Z 00424ac0 f i octaedit.obj
 0001:00023be0       ?rotate_around_x@matrix4@@QAEXMM@Z 00424be0 f i octaedit.obj
 0001:00023d00       ?rotate_around_z@matrix4@@QAEXMM@Z 00424d00 f i octaedit.obj
 0001:00023e20       ?identity@matrix4@@QAEXXZ  00424e20 f i octaedit.obj
 0001:00023e70       ??1VSlot@@QAE@XZ           00424e70 f i octaedit.obj
 0001:00023ed0       ?reset@VSlot@@QAEXXZ       00424ed0 f i octaedit.obj
 0001:00023fa0       ??0VSlot@@QAE@PAUSlot@@H@Z 00424fa0 f i octaedit.obj
 0001:00024040       ??8selinfo@@QBE_NABU0@@Z   00425040 f i octaedit.obj
 0001:00024090       ?flush@GlobalShaderParamUse@@QAEXXZ 00425090 f i octaedit.obj
 0001:000242f0       ?flushparams@Shader@@QAEXPAUSlot@@@Z 004252f0 f i octaedit.obj
 0001:00024330       ??0selinfo@@QAE@XZ         00425330 f i octaedit.obj
 0001:00024390       ?addvert@verthash@@QAEHABUvertex@@@Z 00425390 f i octarender.obj
 0001:000245a0       ?sort@sortkey@@SA_NABU1@0@Z 004255a0 f i octarender.obj
 0001:00024620       ?sort@decalkey@@SA_NABU1@0@Z 00425620 f i octarender.obj
 0001:000246b0       ?optimize@vacollect@@QAEXXZ 004256b0 f i octarender.obj
 0001:00024820       ?gendecal@vacollect@@QAEXABUextentity@@AAUDecalSlot@@ABUdecalkey@@@Z 00425820 f i octarender.obj
 0001:00025a90       ?gendecals@vacollect@@QAEXXZ 00426a90 f i octarender.obj
 0001:00025d90       ?setupdata@vacollect@@QAEXPAUvtxarray@@@Z 00426d90 f i octarender.obj
 0001:00026930       ??0vacollect@@QAE@XZ       00427930 f i octarender.obj
 0001:00026bb0       ??1vacollect@@QAE@XZ       00427bb0 f i octarender.obj
 0001:00026d90       ??1verthash@@QAE@XZ        00427d90 f i octarender.obj
 0001:00026e20       ??1?$hashtable@Usortkey@@Usortval@@@@QAE@XZ 00427e20 f i octarender.obj
 0001:00026e20       ??1?$hashtable@Udecalkey@@Usortval@@@@QAE@XZ 00427e20 f i octarender.obj
 0001:00026e80       ??1?$hashbase@U?$hashtable@Uedgegroup@@H@@U?$hashtableentry@Uedgegroup@@H@@Uedgegroup@@H@@QAE@XZ 00427e80 f i octarender.obj
 0001:00026e80       ??1?$hashbase@U?$hashnameset@Uident@@@@Uident@@PBDU2@@@QAE@XZ 00427e80 f i command.obj
 0001:00026f00       ??1?$hashbase@U?$hashtable@Udecalkey@@Usortval@@@@U?$hashtableentry@Udecalkey@@Usortval@@@@Udecalkey@@Usortval@@@@QAE@XZ 00427f00 f i octarender.obj
 0001:00026f00       ??1?$hashbase@U?$hashtable@Usortkey@@Usortval@@@@U?$hashtableentry@Usortkey@@Usortval@@@@Usortkey@@Usortval@@@@QAE@XZ 00427f00 f i octarender.obj
 0001:00026f50       ??1?$hashbase@U?$hashtable@IUvboinfo@@@@U?$hashtableentry@IUvboinfo@@@@IUvboinfo@@@@QAE@XZ 00427f50 f i octarender.obj
 0001:00026f50       ??1?$hashbase@U?$hashtable@Upvsdata@@H@@U?$hashtableentry@Upvsdata@@H@@Upvsdata@@H@@QAE@XZ 00427f50 f i pvs.obj
 0001:00026fd0       ?removeobj@?$vector@H@@QAEXABH@Z 00427fd0 f i world.obj
 0001:00026fd0       ?removeobj@?$vector@PAUgameent@@@@QAEXABQAUgameent@@@Z 00427fd0 f i game.obj
 0001:00026fd0       ?removeobj@?$vector@PAUclientinfo@server@@@@QAEXABQAUclientinfo@server@@@Z 00427fd0 f i server1.obj
 0001:00026fd0       ?removeobj@?$vector@PAUmesh@animmodel@@@@QAEXABQAUmesh@animmodel@@@Z 00427fd0 f i rendermodel.obj
 0001:00026fd0       ?removeobj@?$vector@PAUvtxarray@@@@QAEXABQAUvtxarray@@@Z 00427fd0 f i octarender.obj
 0001:00026fd0       ?removeobj@?$vector@PAUoctaentities@@@@QAEXABQAUoctaentities@@@Z 00427fd0 f i world.obj
 0001:00027020       ?add@?$vector@PAUphysent@@@@QAEAAPAUphysent@@ABQAU2@@Z 00428020 f i physics.obj
 0001:00027020       ?add@?$vector@PAUmesh@animmodel@@@@QAEAAPAUmesh@animmodel@@ABQAU23@@Z 00428020 f i rendermodel.obj
 0001:00027020       ?add@?$vector@PAUgameent@@@@QAEAAPAUgameent@@ABQAU2@@Z 00428020 f i ai.obj
 0001:00027020       ?add@?$vector@PAUskelmeshgroup@skelmodel@@@@QAEAAPAUskelmeshgroup@skelmodel@@ABQAU23@@Z 00428020 f i rendermodel.obj
 0001:00027020       ?add@?$vector@PBD@@QAEAAPBDABQBD@Z 00428020 f i serverbrowser.obj
 0001:00027020       ?add@?$vector@PAUObject@UI@@@@QAEAAPAUObject@UI@@ABQAU23@@Z 00428020 f i ui.obj
 0001:00027020       ?add@?$vector@PAUvtxarray@@@@QAEAAPAUvtxarray@@ABQAU2@@Z 00428020 f i octarender.obj
 0001:00027020       ?add@?$vector@PAUpart@animmodel@@@@QAEAAPAUpart@animmodel@@ABQAU23@@Z 00428020 f i rendermodel.obj
 0001:00027020       ?add@?$vector@PAUextentity@@@@QAEAAPAUextentity@@ABQAU2@@Z 00428020 f i world.obj
 0001:00027020       ?add@?$vector@PAUident@@@@QAEAAPAUident@@ABQAU2@@Z 00428020 f i command.obj
 0001:00027020       ?add@?$vector@PAD@@QAEAAPADABQAD@Z 00428020 f i server.obj
 0001:00027020       ?add@?$vector@PAUclientinfo@server@@@@QAEAAPAUclientinfo@server@@ABQAU23@@Z 00428020 f i server1.obj
 0001:000270e0       ?growbuf@?$vector@UFragDataLoc@@@@QAEXH@Z 004280e0 f i shader.obj
 0001:000270e0       ?growbuf@?$vector@Umergedface@@@@QAEXH@Z 004280e0 f i octarender.obj
 0001:000270e0       ?growbuf@?$vector@Unode@wpcache@ai@@@@QAEXH@Z 004280e0 f i waypoint.obj
 0001:00027170       ?deletechunks@?$hashbase@U?$hashtable@Usortkey@@Usortval@@@@U?$hashtableentry@Usortkey@@Usortval@@@@Usortkey@@Usortval@@@@QAEXXZ 00428170 f i octarender.obj
 0001:00027170       ?deletechunks@?$hashbase@U?$hashtable@Udecalkey@@Usortval@@@@U?$hashtableentry@Udecalkey@@Usortval@@@@Udecalkey@@Usortval@@@@QAEXXZ 00428170 f i octarender.obj
 0001:000271f0       ?growbuf@?$vector@Ugrasstri@@@@QAEXH@Z 004281f0 f i octarender.obj
 0001:00027280       ??1chain@?$hashbase@U?$hashtable@Udecalkey@@Usortval@@@@U?$hashtableentry@Udecalkey@@Usortval@@@@Udecalkey@@Usortval@@@@QAE@XZ 00428280 f i octarender.obj
 0001:00027280       ??1chain@?$hashbase@U?$hashtable@Usortkey@@Usortval@@@@U?$hashtableentry@Usortkey@@Usortval@@@@Usortkey@@Usortval@@@@QAE@XZ 00428280 f i octarender.obj
 0001:000272e0       ??1?$hashtableentry@Udecalkey@@Usortval@@@@QAE@XZ 004282e0 f i octarender.obj
 0001:000272e0       ??1?$hashtableentry@Usortkey@@Usortval@@@@QAE@XZ 004282e0 f i octarender.obj
 0001:00027340       ??1sortval@@QAE@XZ         00428340 f i octarender.obj
 0001:00027390       ??$?AUsortkey@@@?$hashbase@U?$hashtable@Usortkey@@Usortval@@@@U?$hashtableentry@Usortkey@@Usortval@@@@Usortkey@@Usortval@@@@QAEAAUsortval@@ABUsortkey@@@Z 00428390 f i octarender.obj
 0001:00027400       ??$?AUdecalkey@@@?$hashbase@U?$hashtable@Udecalkey@@Usortval@@@@U?$hashtableentry@Udecalkey@@Usortval@@@@Udecalkey@@Usortval@@@@QAEAAUsortval@@ABUdecalkey@@@Z 00428400 f i octarender.obj
 0001:00027460       ?insert@?$hashbase@U?$hashtable@Uedgegroup@@H@@U?$hashtableentry@Uedgegroup@@H@@Uedgegroup@@H@@QAEPAUchain@1@I@Z 00428460 f i octarender.obj
 0001:00027610       ?insert@?$hashbase@U?$hashtable@Usortkey@@Usortval@@@@U?$hashtableentry@Usortkey@@Usortval@@@@Usortkey@@Usortval@@@@QAEPAUchain@1@I@Z 00428610 f i octarender.obj
 0001:00027610       ?insert@?$hashbase@U?$hashtable@Udecalkey@@Usortval@@@@U?$hashtableentry@Udecalkey@@Usortval@@@@Udecalkey@@Usortval@@@@QAEPAUchain@1@I@Z 00428610 f i octarender.obj
 0001:000277c0       ?insert@?$hashbase@U?$hashtable@IUvboinfo@@@@U?$hashtableentry@IUvboinfo@@@@IUvboinfo@@@@QAEPAUchain@1@I@Z 004287c0 f i octarender.obj
 0001:00027920       ??0chain@?$hashbase@U?$hashtable@Usortkey@@Usortval@@@@U?$hashtableentry@Usortkey@@Usortval@@@@Usortkey@@Usortval@@@@QAE@XZ 00428920 f i octarender.obj
 0001:00027920       ??0chain@?$hashbase@U?$hashtable@Udecalkey@@Usortval@@@@U?$hashtableentry@Udecalkey@@Usortval@@@@Udecalkey@@Usortval@@@@QAE@XZ 00428920 f i octarender.obj
 0001:00027980       ?iszero@vec@@QBE_NXZ       00428980 f i octarender.obj
 0001:000279c0       ?dist@vec@@QBEMABU1@@Z     004289c0 f i octarender.obj
 0001:00027a20       ?transform@matrix3@@QBE?AUvec@@ABU2@@Z 00428a20 f i octarender.obj
 0001:00027af0       ?rotate_around_y@matrix3@@QAEXMM@Z 00428af0 f i octarender.obj
 0001:00027af0       ?rotate_around_y@matrix4x3@@QAEXMM@Z 00428af0 f i world.obj
 0001:00027c00       ?rotate_around_x@matrix3@@QAEXMM@Z 00428c00 f i octarender.obj
 0001:00027c00       ?rotate_around_x@matrix4x3@@QAEXMM@Z 00428c00 f i world.obj
 0001:00027d10       ?rotate_around_z@matrix4x3@@QAEXMM@Z 00428d10 f i world.obj
 0001:00027d10       ?rotate_around_z@matrix3@@QAEXMM@Z 00428d10 f i octarender.obj
 0001:00027e20       ?supportpoint@CubePlanes@mpr@@QBE?AUvec@@ABU3@@Z 00428e20 f i physics.obj
 0001:00027fb0       ??0EntOBB@mpr@@QAE@PAUphysent@@@Z 00428fb0 f i physics.obj
 0001:00028030       ?contactface@EntOBB@mpr@@QBE?AUvec@@ABU3@0@Z 00429030 f i physics.obj
 0001:00028330       ?supportpoint@EntOBB@mpr@@QBE?AUvec@@ABU3@@Z 00429330 f i physics.obj
 0001:000284b0       ?supportpoint@EntCapsule@mpr@@QBE?AUvec@@ABU3@@Z 004294b0 f i physics.obj
 0001:00028580       ??0Model@mpr@@QAE@ABUvec@@00HHH@Z 00429580 f i physics.obj
 0001:00028720       ?contactface@ModelOBB@mpr@@QBE?AUvec@@ABU3@0@Z 00429720 f i physics.obj
 0001:00028a00       ?supportpoint@ModelOBB@mpr@@QBE?AUvec@@ABU3@@Z 00429a00 f i physics.obj
 0001:00028b70       ?contactface@ModelEllipse@mpr@@QBE?AUvec@@ABU3@0@Z 00429b70 f i physics.obj
 0001:00028e40       ?supportpoint@ModelEllipse@mpr@@QBE?AUvec@@ABU3@@Z 00429e40 f i physics.obj
 0001:00029000       ??0dynentcacheentry@@QAE@XZ 0042a000 f i physics.obj
 0001:00029050       ??1dynentcacheentry@@QAE@XZ 0042a050 f i physics.obj
 0001:000290a0       ??$collide@UEntOBB@mpr@@UEntCylinder@2@@mpr@@YA_NABUEntOBB@0@ABUEntCylinder@0@PAUvec@@22@Z 0042a0a0 f i physics.obj
 0001:0002a790       ??$collide@UEntOBB@mpr@@U12@@mpr@@YA_NABUEntOBB@0@0PAUvec@@11@Z 0042b790 f i physics.obj
 0001:0002bb00       ??$collide@UEntOBB@mpr@@UModelEllipse@2@@mpr@@YA_NABUEntOBB@0@ABUModelEllipse@0@PAUvec@@22@Z 0042cb00 f i physics.obj
 0001:0002cf50       ??$collide@UEntOBB@mpr@@UModelOBB@2@@mpr@@YA_NABUEntOBB@0@ABUModelOBB@0@PAUvec@@22@Z 0042df50 f i physics.obj
 0001:0002e3a0       ??$collide@USolidCube@mpr@@UEntOBB@2@@mpr@@YA_NABUSolidCube@0@ABUEntOBB@0@@Z 0042f3a0 f i physics.obj
 0001:0002ef30       ??$collide@UCubePlanes@mpr@@UEntOBB@2@@mpr@@YA_NABUCubePlanes@0@ABUEntOBB@0@@Z 0042ff30 f i physics.obj
 0001:0002fa10       __vfprintf_l               00430a10 f i physics.obj
 0001:0002fa40       _printf                    00430a40 f i physics.obj
 0001:0002fa60       ?reset@physent@@QAEXXZ     00430a60 f i physics.obj
 0001:0002fac0       ??0physent@@QAE@XZ         00430ac0 f i physics.obj
 0001:0002fbc0       ?collisionbox@model@@QAEMAAUvec@@0@Z 00430bc0 f i physics.obj
 0001:0002fd20       ?setyaw@matrix3@@QAEXM@Z   00430d20 f i physics.obj
 0001:0002fd90       ??0shaftbb@@QAE@ABUivec@@HABUbvec@@@Z 00430d90 f i pvs.obj
 0001:0002fe50       ?calcshaft@shaft@@QAEXABUshaftbb@@0@Z 00430e50 f i pvs.obj
 0001:00030170       ?inside@shaft@@QBE_NABUshaftbb@@@Z 00431170 f i pvs.obj
 0001:00030220       ??0<unnamed-type-waterplanes>@@QAE@XZ 00431220 f i pvs.obj
 0001:00030270       ??1<unnamed-type-waterplanes>@@QAE@XZ 00431270 f i pvs.obj
 0001:000302c0       ??0pvsworker@@QAE@XZ       004312c0 f i pvs.obj
 0001:00030380       ??1pvsworker@@QAE@XZ       00431380 f i pvs.obj
 0001:000303f0       ?hidepvs@pvsworker@@QAEXAAUpvsnode@@@Z 004313f0 f i pvs.obj
 0001:00030450       ?shaftcullpvs@pvsworker@@QAEXAAUshaft@@AAUpvsnode@@ABUivec@@H@Z 00431450 f i pvs.obj
 0001:00030660       ?cullpvs@pvsworker@@QAEXAAUpvsnode@@ABUivec@@H@Z 00431660 f i pvs.obj
 0001:00032ca0       ?compresspvs@pvsworker@@QAE_NAAUpvsnode@@HH@Z 00433ca0 f i pvs.obj
 0001:00032e10       ?serializepvs@pvsworker@@QAE_NAAUpvsnode@@H@Z 00433e10 f i pvs.obj
 0001:00033020       ?materialoccluded@pvsworker@@QAE_NAAUpvsnode@@ABUivec@@H11@Z 00434020 f i pvs.obj
 0001:00033100       ?materialoccluded@pvsworker@@QAE_NAAU?$vector@PAUmaterialsurface@@@@@Z 00434100 f i pvs.obj
 0001:000332c0       ?calcpvs@pvsworker@@QAEXABUivec@@H@Z 004342c0 f i pvs.obj
 0001:00033450       ?genviewcell@pvsworker@@QAEHABUivec@@H@Z 00434450 f i pvs.obj
 0001:000336e0       ?run@pvsworker@@SAHPAX@Z   004346e0 f i pvs.obj
 0001:00033a00       ??_Gviewcellnode@@QAEPAXI@Z 00434a00 f i pvs.obj
 0001:00033a40       ?add@?$vector@PAUpvsworker@@@@QAEAAPAUpvsworker@@ABQAU2@@Z 00434a40 f i pvs.obj
 0001:00033b20       ?add@?$vector@Upvsdata@@@@QAEAAUpvsdata@@ABU2@@Z 00434b20 f i pvs.obj
 0001:00033c10       ?add@?$vector@Upvsnode@@@@QAEAAUpvsnode@@XZ 00434c10 f i pvs.obj
 0001:00033cf0       ??$getlil@G@stream@@QAEGXZ 00434cf0 f i pvs.obj
 0001:00033d10       ?insert@?$hashbase@U?$hashtable@Upvsdata@@H@@U?$hashtableentry@Upvsdata@@H@@Upvsdata@@H@@QAEPAUchain@1@I@Z 00434d10 f i pvs.obj
 0001:00033ea0       ?add@?$vector@Uentity@@@@QAEAAUentity@@ABU2@@Z 00434ea0 f i world.obj
 0001:00033f00       ?growbuf@?$vector@Uentity@@@@QAEXH@Z 00434f00 f i world.obj
 0001:00033f00       ?growbuf@?$vector@Umaterialsurface@@@@QAEXH@Z 00434f00 f i material.obj
 0001:00033f90       ??$copystring@$0BAE@@@YAPADAAY0BAE@DPBD@Z 00434f90 f i world.obj
 0001:00033fd0       ?concatstring@@YAPADPADPBDI@Z 00434fd0 f i world.obj
 0001:00034030       ?nformatstring@@YAXPADHPBDZZ 00435030 f i world.obj
 0001:00034070       ?transform@matrix4x3@@QBE?AUvec@@ABU2@@Z 00435070 f i world.obj
 0001:00034170       ?identity@matrix4x3@@QAEXXZ 00435170 f i world.obj
 0001:000341f0       ?orthogonal@vec@@QAEXABU1@@Z 004351f0 f i world.obj
 0001:00034290       ??1?$hashtable@HU?$vector@Uivec2@@@@@@QAE@XZ 00435290 f i worldio.obj
 0001:000342d0       ??1?$hashbase@U?$hashtable@HU?$vector@Uivec2@@@@@@U?$hashtableentry@HU?$vector@Uivec2@@@@@@HU?$vector@Uivec2@@@@@@QAE@XZ 004352d0 f i worldio.obj
 0001:00034360       ??0?$hashtable@Uvec@@H@@QAE@H@Z 00435360 f i worldio.obj
 0001:00034360       ??0?$hashtable@Uivec@@H@@QAE@H@Z 00435360 f i rendermodel.obj
 0001:00034400       ?add@?$vector@Uvec@@@@QAEAAUvec@@ABU2@@Z 00435400 f i worldio.obj
 0001:000344d0       ?add@?$vector@PAUVSlot@@@@QAEAAPAUVSlot@@ABQAU2@@Z 004354d0 f i worldio.obj
 0001:000345b0       ??1chain@?$hashbase@U?$hashtable@HU?$vector@Uivec2@@@@@@U?$hashtableentry@HU?$vector@Uivec2@@@@@@HU?$vector@Uivec2@@@@@@QAE@XZ 004355b0 f i worldio.obj
 0001:00034610       ??1?$hashtableentry@HU?$vector@Uivec2@@@@@@QAE@XZ 00435610 f i worldio.obj
 0001:00034670       ??$access@Uvec@@H@?$hashbase@U?$hashtable@Uvec@@H@@U?$hashtableentry@Uvec@@H@@Uvec@@H@@QAEAAHABUvec@@ABH@Z 00435670 f i worldio.obj
 0001:00034720       ?insert@?$hashbase@U?$hashtable@HU?$vector@Uivec2@@@@@@U?$hashtableentry@HU?$vector@Uivec2@@@@@@HU?$vector@Uivec2@@@@@@QAEPAUchain@1@I@Z 00435720 f i worldio.obj
 0001:000348c0       ?insert@?$hashbase@U?$hashtable@Uivec@@H@@U?$hashtableentry@Uivec@@H@@Uivec@@H@@QAEPAUchain@1@I@Z 004358c0 f i rendermodel.obj
 0001:000348c0       ?insert@?$hashbase@U?$hashtable@Uvec@@H@@U?$hashtableentry@Uvec@@H@@Uvec@@H@@QAEPAUchain@1@I@Z 004358c0 f i worldio.obj
 0001:00034a40       ??0chain@?$hashbase@U?$hashtable@HU?$vector@Uivec2@@@@@@U?$hashtableentry@HU?$vector@Uivec2@@@@@@HU?$vector@Uivec2@@@@@@QAE@XZ 00435a40 f i worldio.obj
 0001:00034a90       ?invert@matrix4x3@@QAEXABU1@@Z 00435a90 f i worldio.obj
 0001:00034cc0       ?mul@matrix4x3@@QAEXABUmatrix3@@ABU1@@Z 00435cc0 f i worldio.obj
 0001:00035000       ?getstr@tagval@@QBEPBDXZ   00436000 f i worldio.obj
 0001:00035050       ?getfloat@tagval@@QBEMXZ   00436050 f i worldio.obj
 0001:00035100       ?getint@tagval@@QBEHXZ     00436100 f i worldio.obj
 0001:00035150       ?setstr@tagval@@QAEXPAD@Z  00436150 f i worldio.obj
 0001:00035160       ?setfloat@tagval@@QAEXM@Z  00436160 f i worldio.obj
 0001:00035170       ??1packetbuf@@QAE@XZ       00436170 f i client.obj
 0001:000351e0       ?getbuf@?$vector@PAD@@QAEPAPADXZ 004361e0 f i server.obj
 0001:000351f0       ?length@?$vector@PAD@@QBEHXZ 004361f0 f i server.obj
 0001:00035200       ??$vformatstring@$0BAE@@@YAXAAY0BAE@DPBDPAD@Z 00436200 f i server.obj
 0001:00035230       ?subbuf@packetbuf@@QAE?AU?$databuf@E@@H@Z 00436230 f i server.obj
 0001:000352b0       ?put@packetbuf@@QAEXPBEH@Z 004362b0 f i server.obj
 0001:00035330       ??0packetbuf@@QAE@HH@Z     00436330 f i server.obj
 0001:00035380       ?status@serverinfo@@QBEPBDXZ 00436380 f i serverbrowser.obj
 0001:000353d0       ?valid@serverinfo@@QBE_NXZ 004363d0 f i serverbrowser.obj
 0001:00035430       ?compare@serverinfo@@SA_NPAU1@0@Z 00436430 f i serverbrowser.obj
 0001:000354e0       ??1servinfo@@QAE@XZ        004364e0 f i serverbrowser.obj
 0001:00035530       ??_Gserverinfo@@QAEPAXI@Z  00436530 f i serverbrowser.obj
 0001:000355c0       ___local_stdio_scanf_options 004365c0 f i serverbrowser.obj
 0001:000355d0       __vsscanf_l                004365d0 f i serverbrowser.obj
 0001:00035600       _sscanf                    00436600 f i serverbrowser.obj
 0001:00035620       ?setf@LocalShaderParam@@QAEXMMMM@Z 00436620 f i aa.obj
 0001:000358d0       ??$mult@Udvec4@@@matrix4@@QAEXABU0@0@Z 004368d0 f i aa.obj
 0001:00035de0       ?traverse@BIH@@QAE_NABUmesh@1@ABUvec@@11MAAMHPAUnode@1@MM@Z 00436de0 f i bih.obj
 0001:00036230       ?traverse@BIH@@QAE_NABUvec@@0MAAMH@Z 00437230 f i bih.obj
 0001:00036440       ??$tricollide@$00@BIH@@QAEXABUmesh@0@HPAUphysent@@ABUvec@@M22ABUmatrix4x3@@AAMABUivec@@5@Z 00437440 f i bih.obj
 0001:000369c0       ??$tricollide@$01@BIH@@QAEXABUmesh@0@HPAUphysent@@ABUvec@@M22ABUmatrix4x3@@AAMABUivec@@5@Z 004379c0 f i bih.obj
 0001:00036d80       ?genstaintris@BIH@@QAEXPAUstainrenderer@@ABUmesh@1@HABUvec@@MABUmatrix4x3@@ABUivec@@4@Z 00437d80 f i bih.obj
 0001:00036e70       ??$collide@$00@BIH@@QAEXABUmesh@0@PAUphysent@@ABUvec@@M22ABUmatrix4x3@@AAMPAUnode@0@ABUivec@@6@Z 00437e70 f i bih.obj
 0001:00037140       ??$collide@$01@BIH@@QAEXABUmesh@0@PAUphysent@@ABUvec@@M22ABUmatrix4x3@@AAMPAUnode@0@ABUivec@@6@Z 00438140 f i bih.obj
 0001:00037400       ?mul@matrix3@@QAEXABU1@0@Z 00438400 f i bih.obj
 0001:00037670       ?outside@tribb@BIH@@QBE_NABUivec@@0@Z 00438670 f i bih.obj
 0001:000376e0       ?ceil@ivec@@SA?AU1@ABUvec@@@Z 004386e0 f i bih.obj
 0001:00037770       ?floor@ivec@@SA?AU1@ABUvec@@@Z 00438770 f i bih.obj
 0001:00037870       ?add@?$vector@Ugrassvert@@@@QAEAAUgrassvert@@XZ 00438870 f i grass.obj
 0001:00037950       ?setvariant_@Shader@@QAEXHH@Z 00438950 f i grass.obj
 0001:000379c0       ??0QuadNode@@QAE@HHH@Z     004389c0 f i material.obj
 0001:00037a00       ?clear@QuadNode@@QAEXXZ    00438a00 f i material.obj
 0001:00037a00       ??1QuadNode@@QAE@XZ        00438a00 f i material.obj
 0001:00037a40       ?insert@QuadNode@@QAEXHHH@Z 00438a40 f i material.obj
 0001:00037b90       ?genmatsurfs@QuadNode@@QAEXGEEHAAPAUmaterialsurface@@@Z 00438b90 f i material.obj
 0001:00037d10       ??0?$hashset@PBD@@QAE@H@Z  00438d10 f i rendergl.obj
 0001:00037db0       ??1?$hashbase@U?$hashnameset@PAUWindow@UI@@@@PAUWindow@UI@@PBDPAU23@@@QAE@XZ 00438db0 f i ui.obj
 0001:00037db0       ??1?$hashbase@U?$hashnameset@PAUmodel@@@@PAUmodel@@PBDPAU2@@@QAE@XZ 00438db0 f i rendermodel.obj
 0001:00037db0       ??1?$hashbase@U?$hashnameset@PAUskeleton@skelmodel@@@@PAUskeleton@skelmodel@@PBDPAU23@@@QAE@XZ 00438db0 f i rendermodel.obj
 0001:00037db0       ??1?$hashbase@U?$hashset@PAD@@PADPADPAD@@QAE@XZ 00438db0 f i rendermodel.obj
 0001:00037db0       ??1?$hashbase@U?$hashset@PBD@@PBDPBDPBD@@QAE@XZ 00438db0 f i rendergl.obj
 0001:00037db0       ??1?$hashbase@U?$hashset@H@@HHH@@QAE@XZ 00438db0 f i rendermodel.obj
 0001:00037db0       ??1?$hashbase@U?$hashnameset@PAUmeshgroup@animmodel@@@@PAUmeshgroup@animmodel@@PBDPAU23@@@QAE@XZ 00438db0 f i rendermodel.obj
 0001:00037e30       ??$add@PAD@?$hashset@PBD@@QAEAAPBDABQAD@Z 00438e30 f i rendergl.obj
 0001:00037ed0       ?insert@?$hashbase@U?$hashset@H@@HHH@@QAEPAUchain@1@I@Z 00438ed0 f i rendermodel.obj
 0001:00037ed0       ?insert@?$hashbase@U?$hashset@PBD@@PBDPBDPBD@@QAEPAUchain@1@I@Z 00438ed0 f i rendergl.obj
 0001:00038020       ?ortho@matrix4@@QAEXMMMMMM@Z 00439020 f i rendergl.obj
 0001:00038150       ?transform@matrix4@@QBEXABUvec@@AAUvec4@@@Z 00439150 f i rendergl.obj
 0001:00038250       ?perspective@matrix4@@QAEXMMMM@Z 00439250 f i rendergl.obj
 0001:00038390       ??0lightinfo@@QAE@HABUextentity@@@Z 00439390 f i renderlights.obj
 0001:00038600       ?calcspot@lightinfo@@QAEXXZ 00439600 f i renderlights.obj
 0001:00038750       ?calcscissor@lightinfo@@QAEXXZ 00439750 f i renderlights.obj
 0001:000387e0       ?calcbb@lightinfo@@QAEXAAUvec@@0@Z 004397e0 f i renderlights.obj
 0001:00038a50       ??1?$hashtable@Ushadowcachekey@@Ushadowcacheval@@@@QAE@XZ 00439a50 f i renderlights.obj
 0001:00038a90       ??1?$hashbase@U?$hashset@Ulightbatch@@@@Ulightbatch@@U2@U2@@@QAE@XZ 00439a90 f i renderlights.obj
 0001:00038b20       ?add@?$vector@Ulightinfo@@@@QAEAAUlightinfo@@ABU2@@Z 00439b20 f i renderlights.obj
 0001:00038c00       ??1?$hashbase@U?$hashtable@Ushadowcachekey@@Ushadowcacheval@@@@U?$hashtableentry@Ushadowcachekey@@Ushadowcacheval@@@@Ushadowcachekey@@Ushadowcacheval@@@@QAE@XZ 00439c00 f i renderlights.obj
 0001:00038c80       ?deletechunks@?$hashbase@U?$hashtable@Ushadowcachekey@@Ushadowcacheval@@@@U?$hashtableentry@Ushadowcachekey@@Ushadowcacheval@@@@Ushadowcachekey@@Ushadowcacheval@@@@QAEXXZ 00439c80 f i renderlights.obj
 0001:00038cc0       ??1chain@?$hashbase@U?$hashset@Ulightbatch@@@@Ulightbatch@@U2@U2@@@QAE@XZ 00439cc0 f i renderlights.obj
 0001:00038d20       ??1lightbatch@@QAE@XZ      00439d20 f i renderlights.obj
 0001:00038d80       ?insert@?$hashbase@U?$hashset@Ulightbatch@@@@Ulightbatch@@U2@U2@@@QAEPAUchain@1@I@Z 00439d80 f i renderlights.obj
 0001:00038f40       ?insert@?$hashbase@U?$hashtable@Ushadowcachekey@@Ushadowcacheval@@@@U?$hashtableentry@Ushadowcachekey@@Ushadowcacheval@@@@Ushadowcachekey@@Ushadowcacheval@@@@QAEPAUchain@1@I@Z 00439f40 f i renderlights.obj
 0001:000390f0       ??0chain@?$hashbase@U?$hashset@Ulightbatch@@@@Ulightbatch@@U2@U2@@@QAE@XZ 0043a0f0 f i renderlights.obj
 0001:00039140       ?muld@matrix4@@QAEXABU1@@Z 0043a140 f i renderlights.obj
 0001:00039680       ?setv@LocalShaderParam@@QAEXPBUvec4@@H@Z 0043a680 f i renderlights.obj
 0001:000396e0       ??0ragdollskel@@QAE@XZ     0043a6e0 f i rendermodel.obj
 0001:000397d0       ?setupjoints@ragdollskel@@QAEXXZ 0043a7d0 f i rendermodel.obj
 0001:00039c90       ?setuprotfrictions@ragdollskel@@QAEXXZ 0043ac90 f i rendermodel.obj
 0001:00039e00       ??0ragdolldata@@QAE@PAUragdollskel@@M@Z 0043ae00 f i rendermodel.obj
 0001:00039ff0       ?calcanimjoint@ragdolldata@@QAEXHABUmatrix4x3@@@Z 0043aff0 f i rendermodel.obj
 0001:0003a320       ?calctris@ragdolldata@@QAEXXZ 0043b320 f i rendermodel.obj
 0001:0003a540       ?calcboundsphere@ragdolldata@@QAEXXZ 0043b540 f i rendermodel.obj
 0001:0003a670       ?applyrotlimit@ragdolldata@@QAEXAAUtri@ragdollskel@@0MABUvec@@@Z 0043b670 f i rendermodel.obj
 0001:0003b220       ??_Gragdolldata@@QAEPAXI@Z 0043c220 f i rendermodel.obj
 0001:0003b2a0       ?setframes@animpos@animmodel@@QAEXABUaniminfo@@@Z 0043c2a0 f i rendermodel.obj
 0001:0003b380       ??9animstate@animmodel@@QBE_NABU01@@Z 0043c380 f i rendermodel.obj
 0001:0003b410       ??0shaderparams@animmodel@@QAE@XZ 0043c410 f i rendermodel.obj
 0001:0003b480       ?setshaderparams@skin@animmodel@@QAEXAAUmesh@2@PBUanimstate@2@_N@Z 0043c480 f i rendermodel.obj
 0001:0003ba30       ?loadshader@skin@animmodel@@QAEPAUShader@@XZ 0043ca30 f i rendermodel.obj
 0001:0003bbc0       ?bind@skin@animmodel@@QAEXAAUmesh@2@PBUanimstate@2@@Z 0043cbc0 f i rendermodel.obj
 0001:0003be80       ??1mesh@animmodel@@UAE@XZ  0043ce80 f i rendermodel.obj
 0001:0003bed0       ?calcbb@mesh@animmodel@@UAEXAAUvec@@0ABUmatrix4x3@@@Z 0043ced0 f i rendermodel.obj
 0001:0003bed0       ?setglow@model@@UAEXMMM@Z  0043ced0 f i rendermodel.obj
 0001:0003bed0       ?drawhud@clientmode@game@@UAEXPAUgameent@@HH@Z 0043ced0 f i client1.obj
 0001:0003bed0       ?initclient@servmode@server@@UAEXPAUclientinfo@2@AAUpacketbuf@@_N@Z 0043ced0 f i server1.obj
 0001:0003bed0       ?aifind@clientmode@game@@UAEXPAUgameent@@AAUaistate@ai@@AAU?$vector@Uinterest@ai@@@@@Z 0043ced0 f i client1.obj
 0001:0003bed0       ?setenvmap@model@@UAEXMMPAUTexture@@@Z 0043ced0 f i rendermodel.obj
 0001:0003bed0       ?changeteam@servmode@server@@UAEXPAUclientinfo@2@HH@Z 0043ced0 f i server1.obj
 0001:0003bee0       ?removeplayer@clientmode@game@@UAEXPAUgameent@@@Z 0043cee0 f i client1.obj
 0001:0003bee0       ?setcolor@model@@UAEXABUvec@@@Z 0043cee0 f i rendermodel.obj
 0001:0003bee0       ?getteamscores@servmode@server@@UAEXAAU?$vector@Uteamscore@@@@@Z 0043cee0 f i server1.obj
 0001:0003bee0       ?setcullface@model@@UAEXH@Z 0043cee0 f i rendermodel.obj
 0001:0003bee0       ?spawned@servmode@server@@UAEXPAUclientinfo@2@@Z 0043cee0 f i server1.obj
 0001:0003bee0       ?process@gameevent@server@@UAEXPAUclientinfo@2@@Z 0043cee0 f i server1.obj
 0001:0003bee0       ?setalphatest@model@@UAEXM@Z 0043cee0 f i rendermodel.obj
 0001:0003bee0       ?setgloss@model@@UAEXH@Z   0043cee0 f i rendermodel.obj
 0001:0003bee0       ?checkitems@clientmode@game@@UAEXPAUgameent@@@Z 0043cee0 f i client1.obj
 0001:0003bee0       ?killpart@listrenderer@@UAEXPAUlistparticle@@@Z 0043cee0 f i renderparticles.obj
 0001:0003bee0       ?genBIH@mesh@animmodel@@UAEXAAU1BIH@@@Z 0043cee0 f i rendermodel.obj
 0001:0003bee0       ?setspec@model@@UAEXM@Z    0043cee0 f i rendermodel.obj
 0001:0003bee0       ?getteamscores@clientmode@game@@UAEXAAU?$vector@Uteamscore@@@@@Z 0043cee0 f i client1.obj
 0001:0003bee0       ?setshader@model@@UAEXPAUShader@@@Z 0043cee0 f i rendermodel.obj
 0001:0003bee0       ?senditems@clientmode@game@@UAEXAAUpacketbuf@@@Z 0043cee0 f i client1.obj
 0001:0003bee0       ?preload@meshgroup@animmodel@@UAEXPAUpart@2@@Z 0043cee0 f i rendermodel.obj
 0001:0003bee0       ?respawned@clientmode@game@@UAEXPAUgameent@@@Z 0043cee0 f i client1.obj
 0001:0003bee0       ?resettracked@partrenderer@@UAEXPAUphysent@@@Z 0043cee0 f i renderparticles.obj
 0001:0003bee0       ?entergame@servmode@server@@UAEXPAUclientinfo@2@@Z 0043cee0 f i server1.obj
 0001:0003bee0       ?setdither@model@@UAEX_N@Z 0043cee0 f i rendermodel.obj
 0001:0003bee0       ?init@partrenderer@@UAEXH@Z 0043cee0 f i renderparticles.obj
 0001:0003bee0       ?setfullbright@model@@UAEXM@Z 0043cee0 f i rendermodel.obj
 0001:0003bef0       ?altpress@Object@UI@@UAEXMM@Z 0043cef0 f i ui.obj
 0001:0003bef0       ?leavegame@servmode@server@@UAEXPAUclientinfo@2@_N@Z 0043cef0 f i server1.obj
 0001:0003bef0       ?scrollup@Object@UI@@UAEXMM@Z 0043cef0 f i ui.obj
 0001:0003bef0       ?escrelease@Object@UI@@UAEXMM@Z 0043cef0 f i ui.obj
 0001:0003bef0       ?scrolldown@Object@UI@@UAEXMM@Z 0043cef0 f i ui.obj
 0001:0003bef0       ?hold@Object@UI@@UAEXMM@Z  0043cef0 f i ui.obj
 0001:0003bef0       ?draw@World@UI@@UAEXMM@Z   0043cef0 f i ui.obj
 0001:0003bef0       ?press@Object@UI@@UAEXMM@Z 0043cef0 f i ui.obj
 0001:0003bef0       ?eschold@Object@UI@@UAEXMM@Z 0043cef0 f i ui.obj
 0001:0003bef0       ?escpress@Object@UI@@UAEXMM@Z 0043cef0 f i ui.obj
 0001:0003bef0       ?died@servmode@server@@UAEXPAUclientinfo@2@0@Z 0043cef0 f i server1.obj
 0001:0003bef0       ?altrelease@Object@UI@@UAEXMM@Z 0043cef0 f i ui.obj
 0001:0003bef0       ?release@Object@UI@@UAEXMM@Z 0043cef0 f i ui.obj
 0001:0003bef0       ?hover@Object@UI@@UAEXMM@Z 0043cef0 f i ui.obj
 0001:0003bef0       ?genshadowmesh@mesh@animmodel@@UAEXAAU?$vector@Utriangle@@@@ABUmatrix4x3@@@Z 0043cef0 f i rendermodel.obj
 0001:0003bef0       ?althold@Object@UI@@UAEXMM@Z 0043cef0 f i ui.obj
 0001:0003bef0       ?genshadowmesh@model@@UAEXAAU?$vector@Utriangle@@@@ABUmatrix4x3@@@Z 0043cef0 f i rendermodel.obj
 0001:0003bf00       ?setshader@mesh@animmodel@@UAEXPAUShader@@H@Z 0043cf00 f i rendermodel.obj
 0001:0003bf60       ?fixqtangent@mesh@animmodel@@SAXAAUquat@@M@Z 0043cf60 f i rendermodel.obj
 0001:0003c080       ??1meshgroup@animmodel@@UAE@XZ 0043d080 f i rendermodel.obj
 0001:0003c130       ?cancombine@MatSlot@@UBEHH@Z 0043d130 f i texture.obj
 0001:0003c130       ?findtag@meshgroup@animmodel@@UAEHPBD@Z 0043d130 f i rendermodel.obj
 0001:0003c140       ?concattagtransform@meshgroup@animmodel@@UAEXPAUpart@2@HABUmatrix4x3@@AAU4@@Z 0043d140 f i rendermodel.obj
 0001:0003c150       ?genBIH@meshgroup@animmodel@@QAEXAAU?$vector@Uskin@animmodel@@@@AAU?$vector@Umesh@BIH@@@@ABUmatrix4x3@@@Z 0043d150 f i rendermodel.obj
 0001:0003c310       ?animkey@meshgroup@animmodel@@UAEPAXXZ 0043d310 f i rendermodel.obj
 0001:0003c320       ?type@MatSlot@@UBEHXZ      0043d320 f i texture.obj
 0001:0003c320       ?type@md3@@UBEHXZ          0043d320 f i rendermodel.obj
 0001:0003c320       ?wheelscrolldirection@Slider@UI@@UBEHXZ 0043d320 f i ui.obj
 0001:0003c320       ?totalframes@meshgroup@animmodel@@UBEHXZ 0043d320 f i rendermodel.obj
 0001:0003c320       ?wheelscrolldirection@ScrollBar@UI@@UBEHXZ 0043d320 f i ui.obj
 0001:0003c330       ?hasframes@meshgroup@animmodel@@QBE_NHH@Z 0043d330 f i rendermodel.obj
 0001:0003c360       ?update@partrenderer@@UAEXXZ 0043d360 f i renderparticles.obj
 0001:0003c360       ?endload@animmodel@@UAEXXZ 0043d360 f i rendermodel.obj
 0001:0003c360       ?startdraw@Object@UI@@UAEXXZ 0043d360 f i ui.obj
 0001:0003c360       ?setup@servmode@server@@UAEXXZ 0043d360 f i server1.obj
 0001:0003c360       ?gameover@clientmode@game@@UAEXXZ 0043d360 f i client1.obj
 0001:0003c360       ?rendergame@clientmode@game@@UAEXXZ 0043d360 f i client1.obj
 0001:0003c360       ?intermission@servmode@server@@UAEXXZ 0043d360 f i server1.obj
 0001:0003c360       __initialize_invalid_parameter_handler 0043d360 f i LIBCMT:invalid_parameter_handler.obj
 0001:0003c360       ?enddraw@Object@UI@@UAEXXZ 0043d360 f i ui.obj
 0001:0003c360       ?setup@clientmode@game@@UAEXXZ 0043d360 f i client1.obj
 0001:0003c360       ?update@servmode@server@@UAEXXZ 0043d360 f i server1.obj
 0001:0003c360       ?cleanup@servmode@server@@UAEXXZ 0043d360 f i server1.obj
 0001:0003c360       ?preloadshaders@model@@UAEXXZ 0043d360 f i rendermodel.obj
 0001:0003c360       __initialize_denormal_control 0043d360 f i LIBCMT:denormal_control.obj
 0001:0003c360       ?preloadmeshes@model@@UAEXXZ 0043d360 f i rendermodel.obj
 0001:0003c360       ?startrender@model@@UAEXXZ 0043d360 f i rendermodel.obj
 0001:0003c360       @_guard_check_icall_nop@4  0043d360 f i LIBCMT:guard_support.obj
 0001:0003c360       ?cleanup@meshgroup@animmodel@@UAEXXZ 0043d360 f i rendermodel.obj
 0001:0003c360       ?startload@animmodel@@UAEXXZ 0043d360 f i rendermodel.obj
 0001:0003c360       ?endrender@model@@UAEXXZ   0043d360 f i rendermodel.obj
 0001:0003c360       ?cleanup@model@@UAEXXZ     0043d360 f i rendermodel.obj
 0001:0003c360       ?cleanup@partrenderer@@UAEXXZ 0043d360 f i renderparticles.obj
 0001:0003c360       ?preload@clientmode@game@@UAEXXZ 0043d360 f i client1.obj
 0001:0003c360       ?flushpart@animmodel@@UAEXXZ 0043d360 f i rendermodel.obj
 0001:0003c360       ?newmap@servmode@server@@UAEXXZ 0043d360 f i server1.obj
 0001:0003c370       ?seedemitter@partrenderer@@UAEXAAUparticleemitter@@ABUvec@@1HMH@Z 0043d370 f i renderparticles.obj
 0001:0003c370       ?render@meshgroup@animmodel@@UAEXPBUanimstate@2@MABUvec@@1PAUdynent@@PAUpart@2@@Z 0043d370 f i rendermodel.obj
 0001:0003c380       ?intersect@meshgroup@animmodel@@UAEXPBUanimstate@2@MABUvec@@1PAUdynent@@PAUpart@2@11@Z 0043d380 f i rendermodel.obj
 0001:0003c390       ?bindpos@meshgroup@animmodel@@QAEXIIPAXHHH@Z 0043d390 f i rendermodel.obj
 0001:0003c440       ?bindtc@meshgroup@animmodel@@QAEXPAXH@Z 0043d440 f i rendermodel.obj
 0001:0003c490       ??0part@animmodel@@QAE@PAU1@H@Z 0043d490 f i rendermodel.obj
 0001:0003c550       ??1part@animmodel@@UAE@XZ  0043d550 f i rendermodel.obj
 0001:0003c620       ?cleanup@part@animmodel@@UAEXXZ 0043d620 f i rendermodel.obj
 0001:0003c670       ?calcbb@part@animmodel@@QAEXAAUvec@@0ABUmatrix4x3@@@Z 0043d670 f i rendermodel.obj
 0001:0003c8b0       ?genBIH@part@animmodel@@QAEXAAU?$vector@Umesh@BIH@@@@ABUmatrix4x3@@@Z 0043d8b0 f i rendermodel.obj
 0001:0003ca80       ?genshadowmesh@part@animmodel@@QAEXAAU?$vector@Utriangle@@@@ABUmatrix4x3@@@Z 0043da80 f i rendermodel.obj
 0001:0003cc90       ?link@part@animmodel@@QAE_NPAU12@PBDABUvec@@HHPAU3@@Z 0043dc90 f i rendermodel.obj
 0001:0003ce20       ?unlink@part@animmodel@@QAE_NPAU12@@Z 0043de20 f i rendermodel.obj
 0001:0003cf00       ?initskins@part@animmodel@@QAEXPAUTexture@@0H@Z 0043df00 f i rendermodel.obj
 0001:0003d050       ?alphatested@part@animmodel@@QBE_NXZ 0043e050 f i rendermodel.obj
 0001:0003d090       ?getdefaultanim@part@animmodel@@UAEXAAUaniminfo@@HIPAUdynent@@@Z 0043e090 f i rendermodel.obj
 0001:0003d0b0       ?calcanim@part@animmodel@@QAE_NHHHHPAUdynent@@HAAUaniminfo@@AAH@Z 0043e0b0 f i rendermodel.obj
 0001:0003d4d0       ?intersect@part@animmodel@@QAEXHHHMABUvec@@0PAUdynent@@00PAUanimstate@2@@Z 0043e4d0 f i rendermodel.obj
 0001:0003dce0       ?render@part@animmodel@@QAEXHHHMABUvec@@0PAUdynent@@@Z 0043ece0 f i rendermodel.obj
 0001:0003dd20       ?render@part@animmodel@@QAEXHHHMABUvec@@0PAUdynent@@PAUanimstate@2@@Z 0043ed20 f i rendermodel.obj
 0001:0003e7a0       ?setanim@part@animmodel@@QAEXHHHHMH@Z 0043f7a0 f i rendermodel.obj
 0001:0003e960       ?loaded@part@animmodel@@UAEXXZ 0043f960 f i rendermodel.obj
 0001:0003ea80       ?read@stream@@UAEIPAXI@Z   0043fa80 f i stream.obj
 0001:0003ea80       ?write@stream@@UAEIPBXI@Z  0043fa80 f i stream.obj
 0001:0003ea80       ?respawnwait@clientmode@game@@UAEHPAUgameent@@H@Z 0043fa80 f i client1.obj
 0001:0003ea80       ?linktype@animmodel@@UBEHPAU1@PAUpart@1@@Z 0043fa80 f i rendermodel.obj
 0001:0003ea90       ?intersect@animmodel@@QAEXHHHMABUvec@@0PAUdynent@@PAUmodelattach@@00@Z 0043fa90 f i rendermodel.obj
 0001:0003ed60       ?intersect@animmodel@@UAEHHHHABUvec@@MMMPAUdynent@@PAUmodelattach@@M00AAMH@Z 0043fd60 f i rendermodel.obj
 0001:0003f1a0       ?render@animmodel@@QAEXHHHMABUvec@@0PAUdynent@@PAUmodelattach@@@Z 004401a0 f i rendermodel.obj
 0001:0003f4b0       ?render@animmodel@@UAEXHHHABUvec@@MMMPAUdynent@@PAUmodelattach@@MABUvec4@@@Z 004404b0 f i rendermodel.obj
 0001:0003faa0       ??0animmodel@@QAE@PBD@Z    00440aa0 f i rendermodel.obj
 0001:0003fc60       ??1animmodel@@UAE@XZ       00440c60 f i rendermodel.obj
 0001:0003fd10       ?cleanup@animmodel@@UAEXXZ 00440d10 f i rendermodel.obj
 0001:0003fd40       ?addpart@animmodel@@QAEAAUpart@1@XZ 00440d40 f i rendermodel.obj
 0001:0003fdc0       ?initmatrix@animmodel@@QAEXAAUmatrix4x3@@@Z 00440dc0 f i rendermodel.obj
 0001:0003fe90       ?genBIH@animmodel@@QAEXAAU?$vector@Umesh@BIH@@@@@Z 00440e90 f i rendermodel.obj
 0001:00040120       ?genshadowmesh@animmodel@@UAEXAAU?$vector@Utriangle@@@@ABUmatrix4x3@@@Z 00441120 f i rendermodel.obj
 0001:00040400       ?preloadBIH@animmodel@@UAEXXZ 00441400 f i rendermodel.obj
 0001:00040490       ?setBIH@animmodel@@UAEPAUBIH@@XZ 00441490 f i rendermodel.obj
 0001:00040540       ?envmapped@animmodel@@UBE_NXZ 00441540 f i rendermodel.obj
 0001:000405a0       ?animated@animmodel@@UBE_NXZ 004415a0 f i rendermodel.obj
 0001:00040610       ?pitched@animmodel@@UBE_NXZ 00441610 f i rendermodel.obj
 0001:00040630       ?alphatested@animmodel@@UBE_NXZ 00441630 f i rendermodel.obj
 0001:000406a0       ?alphatested@model@@UBE_NXZ 004416a0 f i rendermodel.obj
 0001:000406a0       ?animated@model@@UBE_NXZ   004416a0 f i rendermodel.obj
 0001:000406a0       ?hidefrags@servmode@server@@UAE_NXZ 004416a0 f i server1.obj
 0001:000406a0       ?childalign@Table@UI@@UBEEXZ 004416a0 f i ui.obj
 0001:000406a0       ?skeletal@model@@UBE_NXZ   004416a0 f i rendermodel.obj
 0001:000406a0       ?hidefrags@clientmode@game@@UAE_NXZ 004416a0 f i client1.obj
 0001:000406a0       ?envmapped@model@@UBE_NXZ  004416a0 f i rendermodel.obj
 0001:000406a0       ?keepable@gameevent@server@@UBE_NXZ 004416a0 f i server1.obj
 0001:000406a0       ?loadconfig@md2@@UAE_NXZ   004416a0 f i rendermodel.obj
 0001:000406a0       ?loadconfig@animmodel@@UAE_NXZ 004416a0 f i rendermodel.obj
 0001:000406a0       ?flipy@animmodel@@UBE_NXZ  004416a0 f i rendermodel.obj
 0001:000406a0       ?allowtextinput@KeyField@UI@@UBE_NXZ 004416a0 f i ui.obj
 0001:000406a0       ?loaddefaultparts@animmodel@@UAE_NXZ 004416a0 f i rendermodel.obj
 0001:000406a0       ?childalign@Grid@UI@@UBEEXZ 004416a0 f i ui.obj
 0001:000406b0       ?load@animmodel@@UAE_NXZ   004416b0 f i rendermodel.obj
 0001:00040760       ?preloadshaders@animmodel@@UAEXXZ 00441760 f i rendermodel.obj
 0001:000408e0       ?preloadmeshes@animmodel@@UAEXXZ 004418e0 f i rendermodel.obj
 0001:00040920       ?setshader@animmodel@@UAEXPAUShader@@@Z 00441920 f i rendermodel.obj
 0001:00040990       ?setenvmap@animmodel@@UAEXMMPAUTexture@@@Z 00441990 f i rendermodel.obj
 0001:00040a30       ?setspec@animmodel@@UAEXM@Z 00441a30 f i rendermodel.obj
 0001:00040aa0       ?setgloss@animmodel@@UAEXH@Z 00441aa0 f i rendermodel.obj
 0001:00040b10       ?setglow@animmodel@@UAEXMMM@Z 00441b10 f i rendermodel.obj
 0001:00040ba0       ?setalphatest@animmodel@@UAEXM@Z 00441ba0 f i rendermodel.obj
 0001:00040c10       ?setdither@animmodel@@UAEX_N@Z 00441c10 f i rendermodel.obj
 0001:00040c90       ?setfullbright@animmodel@@UAEXM@Z 00441c90 f i rendermodel.obj
 0001:00040d00       ?setcullface@animmodel@@UAEXH@Z 00441d00 f i rendermodel.obj
 0001:00040d90       ?setcolor@animmodel@@UAEXABUvec@@@Z 00441d90 f i rendermodel.obj
 0001:00040e10       ?calcbb@animmodel@@UAEXAAUvec@@0@Z 00441e10 f i rendermodel.obj
 0001:00040f70       ?calctransform@animmodel@@UAEXAAUmatrix4x3@@@Z 00441f70 f i rendermodel.obj
 0001:00040fb0       ?loaded@animmodel@@UAEXXZ  00441fb0 f i rendermodel.obj
 0001:00040fe0       ?startrender@animmodel@@UAEXXZ 00441fe0 f i rendermodel.obj
 0001:00041080       ?disablevbo@animmodel@@SAXXZ 00442080 f i rendermodel.obj
 0001:00041140       ?endrender@animmodel@@UAEXXZ 00442140 f i rendermodel.obj
 0001:00041180       ??_Emesh@animmodel@@UAEPAXI@Z 00442180 f i * CIL library *:* CIL module *
 0001:00041180       ??_Gmesh@animmodel@@UAEPAXI@Z 00442180 f i rendermodel.obj
 0001:000411f0       ??_Gmeshgroup@animmodel@@UAEPAXI@Z 004421f0 f i rendermodel.obj
 0001:000411f0       ??_Emeshgroup@animmodel@@UAEPAXI@Z 004421f0 f i * CIL library *:* CIL module *
 0001:00041210       ??_Epart@animmodel@@UAEPAXI@Z 00442210 f i * CIL library *:* CIL module *
 0001:00041210       ??_Gpart@animmodel@@UAEPAXI@Z 00442210 f i rendermodel.obj
 0001:00041230       ??_Ganimmodel@@UAEPAXI@Z   00442230 f i rendermodel.obj
 0001:00041230       ??_Eanimmodel@@UAEPAXI@Z   00442230 f i * CIL library *:* CIL module *
 0001:00041260       ??0vertmesh@vertmodel@@QAE@XZ 00442260 f i rendermodel.obj
 0001:000412e0       ?calctangents@vertmesh@vertmodel@@QAEX_N@Z 004422e0 f i rendermodel.obj
 0001:00041300       ?calcbb@vertmesh@vertmodel@@UAEXAAUvec@@0ABUmatrix4x3@@@Z 00442300 f i rendermodel.obj
 0001:00041480       ?genBIH@vertmesh@vertmodel@@UAEXAAUmesh@BIH@@@Z 00442480 f i rendermodel.obj
 0001:000414c0       ?genshadowmesh@vertmesh@vertmodel@@UAEXAAU?$vector@Utriangle@@@@ABUmatrix4x3@@@Z 004424c0 f i rendermodel.obj
 0001:00041920       ??0tag@vertmodel@@QAE@XZ   00442920 f i rendermodel.obj
 0001:00041920       ??0videobuffer@recorder@@QAE@XZ 00442920 f i movie.obj
 0001:00041930       ??1videobuffer@recorder@@QAE@XZ 00442930 f i movie.obj
 0001:00041930       ??1stainbuffer@@QAE@XZ     00442930 f i stain.obj
 0001:00041930       ??1tag@vertmodel@@QAE@XZ   00442930 f i rendermodel.obj
 0001:00041930       ??1zipfile@@QAE@XZ         00442930 f i zip.obj
 0001:00041930       ??1soundsample@@QAE@XZ     00442930 f i sound.obj
 0001:00041930       ??1boneinfo@skelmodel@@QAE@XZ 00442930 f i rendermodel.obj
 0001:00041980       ??0vertmeshgroup@vertmodel@@QAE@XZ 00442980 f i rendermodel.obj
 0001:00041a60       ??1vertmeshgroup@vertmodel@@UAE@XZ 00442a60 f i rendermodel.obj
 0001:00041b40       ?findtag@vertmeshgroup@vertmodel@@UAEHPBD@Z 00442b40 f i rendermodel.obj
 0001:00041ba0       ?addtag@vertmeshgroup@vertmodel@@QAE_NPBDABUmatrix4x3@@@Z 00442ba0 f i rendermodel.obj
 0001:00041e20       ?animkey@skelmeshgroup@skelmodel@@UAEPAXXZ 00442e20 f i rendermodel.obj
 0001:00041e20       ?totalframes@vertmeshgroup@vertmodel@@UBEHXZ 00442e20 f i rendermodel.obj
 0001:00041e30       ?concattagtransform@vertmeshgroup@vertmodel@@UAEXPAUpart@animmodel@@HABUmatrix4x3@@AAU5@@Z 00442e30 f i rendermodel.obj
 0001:00041e50       ?calctagmatrix@vertmeshgroup@vertmodel@@QAEXPAUpart@animmodel@@HABUanimstate@4@AAUmatrix4@@@Z 00442e50 f i rendermodel.obj
 0001:00042320       ?genvbo@vertmeshgroup@vertmodel@@QAEXAAUvbocacheentry@2@@Z 00443320 f i rendermodel.obj
 0001:000427d0       ?bindvbo@vertmeshgroup@vertmodel@@QAEXPBUanimstate@animmodel@@PAUpart@4@AAUvbocacheentry@2@@Z 004437d0 f i rendermodel.obj
 0001:000429f0       ?cleanup@vertmeshgroup@vertmodel@@UAEXXZ 004439f0 f i rendermodel.obj
 0001:00042a40       ?preload@vertmeshgroup@vertmodel@@UAEXPAUpart@animmodel@@@Z 00443a40 f i rendermodel.obj
 0001:00042a60       ?render@vertmeshgroup@vertmodel@@UAEXPBUanimstate@animmodel@@MABUvec@@1PAUdynent@@PAUpart@4@@Z 00443a60 f i rendermodel.obj
 0001:00043590       ?sharemeshes@vertmodel@@QAEPAUmeshgroup@animmodel@@PBDM@Z 00444590 f i rendermodel.obj
 0001:00043600       ??_Gvertmesh@vertmodel@@UAEPAXI@Z 00444600 f i rendermodel.obj
 0001:00043600       ??_Evertmesh@vertmodel@@UAEPAXI@Z 00444600 f i * CIL library *:* CIL module *
 0001:000436c0       ??_Evertmeshgroup@vertmodel@@UAEPAXI@Z 004446c0 f i * CIL library *:* CIL module *
 0001:000436c0       ??_Gvertmeshgroup@vertmodel@@UAEPAXI@Z 004446c0 f i rendermodel.obj
 0001:000436f0       ??1vertmodel@@UAE@XZ       004446f0 f i rendermodel.obj
 0001:000436f0       ??1skelmodel@@UAE@XZ       004446f0 f i rendermodel.obj
 0001:00043730       ?sortcmp@blendcombo@skelmodel@@SA_NABU12@0@Z 00444730 f i rendermodel.obj
 0001:00043770       ??8animcacheentry@skelmodel@@QBE_NABU01@@Z 00444770 f i rendermodel.obj
 0001:00043860       ?nextversion@skelcacheentry@skelmodel@@QAEXXZ 00444860 f i rendermodel.obj
 0001:000438f0       ??1skelmesh@skelmodel@@UAE@XZ 004448f0 f i rendermodel.obj
 0001:00043980       ?calcbb@skelmesh@skelmodel@@UAEXAAUvec@@0ABUmatrix4x3@@@Z 00444980 f i rendermodel.obj
 0001:00043b00       ?genBIH@skelmesh@skelmodel@@UAEXAAUmesh@BIH@@@Z 00444b00 f i rendermodel.obj
 0001:00043b50       ?genshadowmesh@skelmesh@skelmodel@@UAEXAAU?$vector@Utriangle@@@@ABUmatrix4x3@@@Z 00444b50 f i rendermodel.obj
 0001:00043fc0       ?setshader@skelmesh@skelmodel@@UAEXPAUShader@@H@Z 00444fc0 f i rendermodel.obj
 0001:00044070       ??0boneinfo@skelmodel@@QAE@XZ 00445070 f i rendermodel.obj
 0001:000440e0       ??0skeleton@skelmodel@@QAE@XZ 004450e0 f i rendermodel.obj
 0001:00044280       ??1skeleton@skelmodel@@QAE@XZ 00445280 f i rendermodel.obj
 0001:000444a0       ?findskelanim@skeleton@skelmodel@@QAEPAUskelanimspec@2@PBDD@Z 004454a0 f i rendermodel.obj
 0001:00044600       ?addskelanim@skeleton@skelmodel@@QAEAAUskelanimspec@2@PBD@Z 00445600 f i rendermodel.obj
 0001:00044720       ?findbone@skeleton@skelmodel@@QAEHPBD@Z 00445720 f i rendermodel.obj
 0001:00044790       ?findtag@skeleton@skelmodel@@QAEHPBD@Z 00445790 f i rendermodel.obj
 0001:000447f0       ?addtag@skeleton@skelmodel@@QAE_NPBDHABUmatrix4x3@@@Z 004457f0 f i rendermodel.obj
 0001:00044980       ?calcantipodes@skeleton@skelmodel@@QAEXXZ 00445980 f i rendermodel.obj
 0001:00044e20       ?remapbones@skeleton@skelmodel@@QAEXXZ 00445e20 f i rendermodel.obj
 0001:00045290       ?addpitchdep@skeleton@skelmodel@@QAEXHH@Z 00446290 f i rendermodel.obj
 0001:00045450       ?findpitchcorrect@skeleton@skelmodel@@QAEHH@Z 00446450 f i rendermodel.obj
 0001:00045490       ?initpitchdeps@skeleton@skelmodel@@QAEXXZ 00446490 f i rendermodel.obj
 0001:00045a60       ?expandbonemask@skeleton@skelmodel@@QAEXPAEHH@Z 00446a60 f i rendermodel.obj
 0001:00045ab0       ?applybonemask@skeleton@skelmodel@@QAEXPAGPAEH@Z 00446ab0 f i rendermodel.obj
 0001:00045bb0       ?linkchildren@skeleton@skelmodel@@QAEXXZ 00446bb0 f i rendermodel.obj
 0001:00045c10       ?calcpitchcorrects@skeleton@skelmodel@@QAEXMABUvec@@0@Z 00446c10 f i rendermodel.obj
 0001:000461d0       ?interpbones@skeleton@skelmodel@@QAEXPBUanimstate@animmodel@@MABUvec@@1HPBEAAUskelcacheentry@2@@Z 004471d0 f i rendermodel.obj
 0001:00047240       ?initragdoll@skeleton@skelmodel@@QAEXAAUragdolldata@@AAUskelcacheentry@2@PAUpart@animmodel@@@Z 00448240 f i rendermodel.obj
 0001:00047ce0       ?genragdollbones@skeleton@skelmodel@@QAEXAAUragdolldata@@AAUskelcacheentry@2@PAUpart@animmodel@@@Z 00448ce0 f i rendermodel.obj
 0001:00048440       ?calctags@skeleton@skelmodel@@QAEXPAUpart@animmodel@@PAUskelcacheentry@2@@Z 00449440 f i rendermodel.obj
 0001:00048df0       ?cleanup@skeleton@skelmodel@@QAEX_N@Z 00449df0 f i rendermodel.obj
 0001:00048ee0       ?checkskelcache@skeleton@skelmodel@@QAEAAUskelcacheentry@2@PAUpart@animmodel@@PBUanimstate@5@MABUvec@@2PAUragdolldata@@@Z 00449ee0 f i rendermodel.obj
 0001:00049250       ?shouldcleanup@skeleton@skelmodel@@QBE_NXZ 0044a250 f i rendermodel.obj
 0001:000492a0       ??0skelmeshgroup@skelmodel@@QAE@XZ 0044a2a0 f i rendermodel.obj
 0001:00049430       ??1skelmeshgroup@skelmodel@@UAE@XZ 0044a430 f i rendermodel.obj
 0001:00049640       ?shareskeleton@skelmeshgroup@skelmodel@@QAEXPBD@Z 0044a640 f i rendermodel.obj
 0001:000498b0       ?findtag@skelmeshgroup@skelmodel@@UAEHPBD@Z 0044a8b0 f i rendermodel.obj
 0001:000498c0       ?totalframes@skelmeshgroup@skelmodel@@UBEHXZ 0044a8c0 f i rendermodel.obj
 0001:000498e0       ?getteamscore@clientmode@game@@UAEHH@Z 0044a8e0 f i client1.obj
 0001:000498e0       ?loadanim@skelmeshgroup@skelmodel@@UAEPAUskelanimspec@2@PBD@Z 0044a8e0 f i rendermodel.obj
 0001:000498e0       ?getteamscore@servmode@server@@UAEHH@Z 0044a8e0 f i server1.obj
 0001:000498f0       ?genvbo@skelmeshgroup@skelmodel@@QAEXAAUvbocacheentry@2@@Z 0044a8f0 f i rendermodel.obj
 0001:0004a040       ?bindvbo@skelmeshgroup@skelmodel@@QAEXPBUanimstate@animmodel@@PAUpart@4@AAUvbocacheentry@2@PAUskelcacheentry@2@PAUblendcacheentry@2@@Z 0044b040 f i rendermodel.obj
 0001:0004a400       ?concattagtransform@skelmeshgroup@skelmodel@@UAEXPAUpart@animmodel@@HABUmatrix4x3@@AAU5@@Z 0044b400 f i rendermodel.obj
 0001:0004a470       ?addblendcombo@skelmeshgroup@skelmodel@@QAEHABUblendcombo@2@@Z 0044b470 f i rendermodel.obj
 0001:0004a610       ?sortblendcombos@skelmeshgroup@skelmodel@@QAEXXZ 0044b610 f i rendermodel.obj
 0001:0004a6f0       ?blendbones@skelmeshgroup@skelmodel@@QAEXABUskelcacheentry@2@AAUblendcacheentry@2@@Z 0044b6f0 f i rendermodel.obj
 0001:0004a8e0       ?cleanup@skelmeshgroup@skelmodel@@UAEXXZ 0044b8e0 f i rendermodel.obj
 0001:0004aa60       ?intersect@skelmeshgroup@skelmodel@@UAEXPBUanimstate@animmodel@@MABUvec@@1PAUdynent@@PAUpart@4@11@Z 0044ba60 f i rendermodel.obj
 0001:0004ab00       ?preload@skelmeshgroup@skelmodel@@UAEXPAUpart@animmodel@@@Z 0044bb00 f i rendermodel.obj
 0001:0004abb0       ?render@skelmeshgroup@skelmodel@@UAEXPBUanimstate@animmodel@@MABUvec@@1PAUdynent@@PAUpart@4@@Z 0044bbb0 f i rendermodel.obj
 0001:0004b390       ?sharemeshes@skelmodel@@QAEPAUmeshgroup@animmodel@@PBD0M@Z 0044c390 f i rendermodel.obj
 0001:0004b410       ?initanimparts@skelpart@skelmodel@@QAEXXZ 0044c410 f i rendermodel.obj
 0001:0004b470       ?loaded@skelpart@skelmodel@@UAEXXZ 0044c470 f i rendermodel.obj
 0001:0004b670       ?linktype@skelmodel@@UBEHPAUanimmodel@@PAUpart@2@@Z 0044c670 f i rendermodel.obj
 0001:0004b6c0       ?skeletal@skelmodel@@UBE_NXZ 0044c6c0 f i rendermodel.obj
 0001:0004b6c0       ?flipy@obj@@UBE_NXZ        0044c6c0 f i rendermodel.obj
 0001:0004b6c0       __should_initialize_environment 0044c6c0 f i LIBCMT:env_mode.obj
 0001:0004b6c0       ?hidefrags@ctfservmode@server@@UAE_NXZ 0044c6c0 f i server1.obj
 0001:0004b6c0       ___acrt_uninitialize_command_line 0044c6c0 f i libucrt:argv_data.obj
 0001:0004b6c0       ?allowtextinput@TextEditor@UI@@UBE_NXZ 0044c6c0 f i ui.obj
 0001:0004b6c0       ?flush@stream@@UAE_NXZ     0044c6c0 f i stream.obj
 0001:0004b6c0       ?flipy@md3@@UBE_NXZ        0044c6c0 f i rendermodel.obj
 0001:0004b6c0       ?pitched@model@@UBE_NXZ    0044c6c0 f i rendermodel.obj
 0001:0004b6c0       ?flipy@md2@@UBE_NXZ        0044c6c0 f i rendermodel.obj
 0001:0004b6c0       ?hidefrags@ctfclientmode@game@@UAE_NXZ 0044c6c0 f i client1.obj
 0001:0004b6c0       ?keepable@explodeevent@server@@UBE_NXZ 0044c6c0 f i server1.obj
 0001:0004b6d0       ?addpart@skelmodel@@QAEAAUskelpart@1@XZ 0044c6d0 f i rendermodel.obj
 0001:0004b770       ??_Eskelmesh@skelmodel@@UAEPAXI@Z 0044c770 f i * CIL library *:* CIL module *
 0001:0004b770       ??_Gskelmesh@skelmodel@@UAEPAXI@Z 0044c770 f i rendermodel.obj
 0001:0004b790       ??1?$hashtable@IH@@QAE@XZ  0044c790 f i rendermodel.obj
 0001:0004b7d0       ??_Gskelmeshgroup@skelmodel@@UAEPAXI@Z 0044c7d0 f i rendermodel.obj
 0001:0004b7d0       ??_Eskelmeshgroup@skelmodel@@UAEPAXI@Z 0044c7d0 f i * CIL library *:* CIL module *
 0001:0004b800       ??_Gskelpart@skelmodel@@UAEPAXI@Z 0044c800 f i rendermodel.obj
 0001:0004b800       ??_Eskelpart@skelmodel@@UAEPAXI@Z 0044c800 f i * CIL library *:* CIL module *
 0001:0004b880       ??1ragdollskel@@QAE@XZ     0044c880 f i rendermodel.obj
 0001:0004b9c0       ?adjust@skeladjustment@@QAEXAAUdualquat@@@Z 0044c9c0 f i rendermodel.obj
 0001:0004bbe0       ?intersect@skelbih@@QAEXPAUskelmeshgroup@skelmodel@@PAUskin@animmodel@@ABUvec@@22PAUnode@1@MM@Z 0044cbe0 f i rendermodel.obj
 0001:0004c000       ??0skelhitzone@@QAE@XZ     0044d000 f i rendermodel.obj
 0001:0004c070       ??1skelhitzone@@QAE@XZ     0044d070 f i rendermodel.obj
 0001:0004c0f0       ?intersect@skelhitzone@@QAEXPAUskelmeshgroup@skelmodel@@PAUskin@animmodel@@PBUdualquat@@2HABUvec@@3@Z 0044d0f0 f i rendermodel.obj
 0001:0004c530       ?addbones@skelzonekey@@QAEXPAUskelmesh@skelmodel@@ABUtri@3@@Z 0044d530 f i rendermodel.obj
 0001:0004c710       ?propagate@skelhitdata@@QAEXPAUskelmeshgroup@skelmodel@@PBUdualquat@@PAU4@@Z 0044d710 f i rendermodel.obj
 0001:0004ca40       ?intersect@skelhitdata@@QAEXPAUskelmeshgroup@skelmodel@@PAUskin@animmodel@@PBUdualquat@@PAU6@ABUvec@@4@Z 0044da40 f i rendermodel.obj
 0001:0004cef0       ??1?$hashset@Uskelzoneinfo@@@@QAE@XZ 0044def0 f i rendermodel.obj
 0001:0004cf30       __get_startup_commit_mode  0044df30 f i LIBCMT:commit_mode.obj
 0001:0004cf30       ?type@md2@@UBEHXZ          0044df30 f i rendermodel.obj
 0001:0004cf30       __get_startup_new_mode     0044df30 f i LIBCMT:new_mode.obj
 0001:0004cf30       ?setBIH@model@@UAEPAUBIH@@XZ 0044df30 f i rendermodel.obj
 0001:0004cf30       ___scrt_exe_initialize_mta 0044df30 f i LIBCMT:utility_desktop.obj
 0001:0004cf30       __get_startup_thread_locale_mode 0044df30 f i LIBCMT:thread_locale.obj
 0001:0004cf30       ___scrt_initialize_winrt   0044df30 f i LIBCMT:utility_desktop.obj
 0001:0004cf30       ?type@Slot@@UBEHXZ         0044df30 f i texture.obj
 0001:0004cf30       ?getcrc@stream@@UAEIXZ     0044df30 f i stream.obj
 0001:0004cf30       ___scrt_stub_for_initialize_mta 0044df30 f i LIBCMT:utility_desktop.obj
 0001:0004cf30       __matherr                  0044df30 f i LIBCMT:matherr.obj
 0001:0004cf40       ?linktype@md2@@UBEHPAUanimmodel@@PAUpart@2@@Z 0044df40 f i rendermodel.obj
 0001:0004cf50       ?genverts@md2meshgroup@md2@@QAEXPAHAAU?$vector@Utcvert@vertmodel@@@@AAU?$vector@G@@AAU?$vector@Utri@vertmodel@@@@@Z 0044df50 f i rendermodel.obj
 0001:0004d460       ?load@md2meshgroup@md2@@UAE_NPBDM@Z 0044e460 f i rendermodel.obj
 0001:0004d940       ?newmeshes@md2@@UAEPAUvertmeshgroup@vertmodel@@XZ 0044e940 f i rendermodel.obj
 0001:0004d9b0       ?loaddefaultparts@md2@@UAE_NXZ 0044e9b0 f i rendermodel.obj
 0001:0004db50       ??_Gmd2@@UAEPAXI@Z         0044eb50 f i rendermodel.obj
 0001:0004db50       ??_Gmd3@@UAEPAXI@Z         0044eb50 f i rendermodel.obj
 0001:0004db50       ??_Gobj@@UAEPAXI@Z         0044eb50 f i rendermodel.obj
 0001:0004db50       ??_Emd5@@UAEPAXI@Z         0044eb50 f i * CIL library *:* CIL module *
 0001:0004db50       ??_Giqm@@UAEPAXI@Z         0044eb50 f i rendermodel.obj
 0001:0004db50       ??_Eiqm@@UAEPAXI@Z         0044eb50 f i * CIL library *:* CIL module *
 0001:0004db50       ??_Emd3@@UAEPAXI@Z         0044eb50 f i * CIL library *:* CIL module *
 0001:0004db50       ??_Eobj@@UAEPAXI@Z         0044eb50 f i * CIL library *:* CIL module *
 0001:0004db50       ??_Emd2@@UAEPAXI@Z         0044eb50 f i * CIL library *:* CIL module *
 0001:0004db50       ??_Esmd@@UAEPAXI@Z         0044eb50 f i * CIL library *:* CIL module *
 0001:0004db50       ??_Gsmd@@UAEPAXI@Z         0044eb50 f i rendermodel.obj
 0001:0004db50       ??_Gmd5@@UAEPAXI@Z         0044eb50 f i rendermodel.obj
 0001:0004dbb0       ??1?$skelloader@Usmd@@@@UAE@XZ 0044ebb0 f i rendermodel.obj
 0001:0004dbb0       ??1?$skelloader@Uiqm@@@@UAE@XZ 0044ebb0 f i rendermodel.obj
 0001:0004dbb0       ??1?$skelloader@Umd5@@@@UAE@XZ 0044ebb0 f i rendermodel.obj
 0001:0004dbb0       ??1?$vertloader@Umd2@@@@UAE@XZ 0044ebb0 f i rendermodel.obj
 0001:0004dbb0       ??1?$vertloader@Uobj@@@@UAE@XZ 0044ebb0 f i rendermodel.obj
 0001:0004dbb0       ??1?$vertloader@Umd3@@@@UAE@XZ 0044ebb0 f i rendermodel.obj
 0001:0004dbf0       ??1?$modelloader@Umd5@@Uskelmodel@@@@UAE@XZ 0044ebf0 f i rendermodel.obj
 0001:0004dbf0       ??1?$modelloader@Usmd@@Uskelmodel@@@@UAE@XZ 0044ebf0 f i rendermodel.obj
 0001:0004dbf0       ??1?$modelloader@Umd3@@Uvertmodel@@@@UAE@XZ 0044ebf0 f i rendermodel.obj
 0001:0004dbf0       ??1?$modelloader@Uiqm@@Uskelmodel@@@@UAE@XZ 0044ebf0 f i rendermodel.obj
 0001:0004dbf0       ??1?$modelloader@Uobj@@Uvertmodel@@@@UAE@XZ 0044ebf0 f i rendermodel.obj
 0001:0004dbf0       ??1?$modelloader@Umd2@@Uvertmodel@@@@UAE@XZ 0044ebf0 f i rendermodel.obj
 0001:0004dc30       ??_Gmd3meshgroup@md3@@UAEPAXI@Z 0044ec30 f i rendermodel.obj
 0001:0004dc30       ??_Gobjmeshgroup@obj@@UAEPAXI@Z 0044ec30 f i rendermodel.obj
 0001:0004dc30       ??_Gmd2meshgroup@md2@@UAEPAXI@Z 0044ec30 f i rendermodel.obj
 0001:0004dc30       ??_Emd2meshgroup@md2@@UAEPAXI@Z 0044ec30 f i * CIL library *:* CIL module *
 0001:0004dc30       ??_Eobjmeshgroup@obj@@UAEPAXI@Z 0044ec30 f i * CIL library *:* CIL module *
 0001:0004dc30       ??_Emd3meshgroup@md3@@UAEPAXI@Z 0044ec30 f i * CIL library *:* CIL module *
 0001:0004dc90       ?load@md3meshgroup@md3@@UAE_NPBDM@Z 0044ec90 f i rendermodel.obj
 0001:0004e370       ?newmeshes@md3@@UAEPAUvertmeshgroup@vertmodel@@XZ 0044f370 f i rendermodel.obj
 0001:0004e3e0       ?loaddefaultparts@md3@@UAE_NXZ 0044f3e0 f i rendermodel.obj
 0001:0004e520       ?type@DecalSlot@@UBEHXZ    0044f520 f i texture.obj
 0001:0004e520       ?type@md5@@UBEHXZ          0044f520 f i rendermodel.obj
 0001:0004e530       ?buildverts@md5mesh@md5@@QAEXAAU?$vector@Umd5joint@@@@@Z 0044f530 f i rendermodel.obj
 0001:0004e9d0       ?load@md5mesh@md5@@QAEXPAUstream@@PADI@Z 0044f9d0 f i rendermodel.obj
 0001:0004ee40       ?loadmesh@md5meshgroup@md5@@QAE_NPBDM@Z 0044fe40 f i rendermodel.obj
 0001:0004f790       ?loadanim@md5meshgroup@md5@@UAEPAUskelanimspec@skelmodel@@PBD@Z 00450790 f i rendermodel.obj
 0001:00050350       ?load@md5meshgroup@md5@@UAE_NPBDM@Z 00451350 f i rendermodel.obj
 0001:000503b0       ?newmeshes@md5@@UAEPAUskelmeshgroup@skelmodel@@XZ 004513b0 f i rendermodel.obj
 0001:00050420       ?loaddefaultparts@md5@@UAE_NXZ 00451420 f i rendermodel.obj
 0001:00050500       ??_Gmd5mesh@md5@@UAEPAXI@Z 00451500 f i rendermodel.obj
 0001:00050500       ??_Emd5mesh@md5@@UAEPAXI@Z 00451500 f i * CIL library *:* CIL module *
 0001:00050590       ??_Gsmdmeshgroup@smd@@UAEPAXI@Z 00451590 f i rendermodel.obj
 0001:00050590       ??_Eiqmmeshgroup@iqm@@UAEPAXI@Z 00451590 f i * CIL library *:* CIL module *
 0001:00050590       ??_Esmdmeshgroup@smd@@UAEPAXI@Z 00451590 f i * CIL library *:* CIL module *
 0001:00050590       ??_Giqmmeshgroup@iqm@@UAEPAXI@Z 00451590 f i rendermodel.obj
 0001:00050590       ??_Gmd5meshgroup@md5@@UAEPAXI@Z 00451590 f i rendermodel.obj
 0001:00050590       ??_Emd5meshgroup@md5@@UAEPAXI@Z 00451590 f i * CIL library *:* CIL module *
 0001:000505f0       ?type@obj@@UBEHXZ          004515f0 f i rendermodel.obj
 0001:00050600       ?parsevert@objmeshgroup@obj@@QAEXPADAAU?$vector@Uvec@@@@@Z 00451600 f i rendermodel.obj
 0001:000506c0       ?load@objmeshgroup@obj@@UAE_NPBDM@Z 004516c0 f i rendermodel.obj
 0001:00051360       ?newmeshes@obj@@UAEPAUvertmeshgroup@vertmodel@@XZ 00452360 f i rendermodel.obj
 0001:000513d0       ?loaddefaultparts@obj@@UAE_NXZ 004523d0 f i rendermodel.obj
 0001:00051510       ?type@smd@@UBEHXZ          00452510 f i rendermodel.obj
 0001:00051520       ?skipsection@smdmeshgroup@smd@@QAEXPAUstream@@PADI@Z 00452520 f i rendermodel.obj
 0001:00051600       ?readnodes@smdmeshgroup@smd@@QAEXPAUstream@@PADIAAU?$vector@Usmdbone@@@@@Z 00452600 f i rendermodel.obj
 0001:000518f0       ?readtriangles@smdmeshgroup@smd@@QAEXPAUstream@@PADI@Z 004528f0 f i rendermodel.obj
 0001:00052800       ?readskeleton@smdmeshgroup@smd@@QAEXPAUstream@@PADI@Z 00453800 f i rendermodel.obj
 0001:00052d00       ?loadmesh@smdmeshgroup@smd@@QAE_NPBD@Z 00453d00 f i rendermodel.obj
 0001:000530d0       ?readframes@smdmeshgroup@smd@@QAEHPAUstream@@PADIAAU?$vector@Usmdbone@@@@AAU?$vector@Udualquat@@@@@Z 004540d0 f i rendermodel.obj
 0001:00053880       ?loadanim@smdmeshgroup@smd@@UAEPAUskelanimspec@skelmodel@@PBD@Z 00454880 f i rendermodel.obj
 0001:00053c10       ?load@smdmeshgroup@smd@@UAE_NPBDM@Z 00454c10 f i rendermodel.obj
 0001:00053c60       ?newmeshes@smd@@UAEPAUskelmeshgroup@skelmodel@@XZ 00454c60 f i rendermodel.obj
 0001:00053cd0       ?loaddefaultparts@smd@@UAE_NXZ 00454cd0 f i rendermodel.obj
 0001:00053d80       ??1?$hashtable@PBDUsmdmeshdata@smdmeshgroup@smd@@@@QAE@XZ 00454d80 f i rendermodel.obj
 0001:00053dc0       ??1?$hashset@H@@QAE@XZ     00454dc0 f i rendermodel.obj
 0001:00053e00       ??_Gsmdmesh@smd@@UAEPAXI@Z 00454e00 f i rendermodel.obj
 0001:00053e00       ??_Esmdmesh@smd@@UAEPAXI@Z 00454e00 f i * CIL library *:* CIL module *
 0001:00053e50       ?type@iqm@@UBEHXZ          00454e50 f i rendermodel.obj
 0001:00053e60       ?loadiqmmeshes@iqmmeshgroup@iqm@@QAE_NPBDABUiqmheader@@PAE@Z 00454e60 f i rendermodel.obj
 0001:00054cf0       ?loadiqmanims@iqmmeshgroup@iqm@@QAE_NPBDABUiqmheader@@PAE@Z 00455cf0 f i rendermodel.obj
 0001:00055830       ?loadiqm@iqmmeshgroup@iqm@@QAE_NPBD_N1@Z 00456830 f i rendermodel.obj
 0001:00055960       ?load@iqmmeshgroup@iqm@@UAE_NPBDM@Z 00456960 f i rendermodel.obj
 0001:000559c0       ?loadanim@iqmmeshgroup@iqm@@UAEPAUskelanimspec@skelmodel@@PBD@Z 004569c0 f i rendermodel.obj
 0001:00055a80       ?newmeshes@iqm@@UAEPAUskelmeshgroup@skelmodel@@XZ 00456a80 f i rendermodel.obj
 0001:00055af0       ?loaddefaultparts@iqm@@UAE_NXZ 00456af0 f i rendermodel.obj
 0001:00055ba0       ?add@?$vector@Ubatchedmodel@@@@QAEAAUbatchedmodel@@XZ 00456ba0 f i rendermodel.obj
 0001:00055c70       ??0?$skelcommands@Uiqm@@@@QAE@XZ 00456c70 f i rendermodel.obj
 0001:00055fe0       ?flushpart@?$skelloader@Uiqm@@@@UAEXXZ 00456fe0 f i rendermodel.obj
 0001:00056030       ?loadconfig@?$modelloader@Uiqm@@Uskelmodel@@@@UAE_NXZ 00457030 f i rendermodel.obj
 0001:00056090       ?endload@?$modelloader@Uiqm@@Uskelmodel@@@@UAEXXZ 00457090 f i rendermodel.obj
 0001:000560a0       ?startload@?$modelloader@Uiqm@@Uskelmodel@@@@UAEXXZ 004570a0 f i rendermodel.obj
 0001:000560b0       ??0?$skelcommands@Usmd@@@@QAE@XZ 004570b0 f i rendermodel.obj
 0001:00056420       ??1?$hashbase@U?$hashtable@PBDUsmdmeshdata@smdmeshgroup@smd@@@@U?$hashtableentry@PBDUsmdmeshdata@smdmeshgroup@smd@@@@PBDUsmdmeshdata@smdmeshgroup@smd@@@@QAE@XZ 00457420 f i rendermodel.obj
 0001:000564b0       ?inrange@?$vector@Usmdbone@@@@QBE_NH@Z 004574b0 f i rendermodel.obj
 0001:000564d0       ?flushpart@?$skelloader@Usmd@@@@UAEXXZ 004574d0 f i rendermodel.obj
 0001:00056520       ?loadconfig@?$modelloader@Usmd@@Uskelmodel@@@@UAE_NXZ 00457520 f i rendermodel.obj
 0001:00056580       ?endload@?$modelloader@Usmd@@Uskelmodel@@@@UAEXXZ 00457580 f i rendermodel.obj
 0001:00056590       ?startload@?$modelloader@Usmd@@Uskelmodel@@@@UAEXXZ 00457590 f i rendermodel.obj
 0001:000565a0       ?loadconfig@?$modelloader@Uobj@@Uvertmodel@@@@UAE_NXZ 004575a0 f i rendermodel.obj
 0001:00056600       ?endload@?$modelloader@Uobj@@Uvertmodel@@@@UAEXXZ 00457600 f i rendermodel.obj
 0001:00056610       ?startload@?$modelloader@Uobj@@Uvertmodel@@@@UAEXXZ 00457610 f i rendermodel.obj
 0001:00056620       ??0?$skelcommands@Umd5@@@@QAE@XZ 00457620 f i rendermodel.obj
 0001:00056990       ?flushpart@?$skelloader@Umd5@@@@UAEXXZ 00457990 f i rendermodel.obj
 0001:000569e0       ?loadconfig@?$modelloader@Umd5@@Uskelmodel@@@@UAE_NXZ 004579e0 f i rendermodel.obj
 0001:00056a40       ?endload@?$modelloader@Umd5@@Uskelmodel@@@@UAEXXZ 00457a40 f i rendermodel.obj
 0001:00056a50       ?startload@?$modelloader@Umd5@@Uskelmodel@@@@UAEXXZ 00457a50 f i rendermodel.obj
 0001:00056a60       ?loadconfig@?$modelloader@Umd3@@Uvertmodel@@@@UAE_NXZ 00457a60 f i rendermodel.obj
 0001:00056ac0       ?endload@?$modelloader@Umd3@@Uvertmodel@@@@UAEXXZ 00457ac0 f i rendermodel.obj
 0001:00056ad0       ?startload@?$modelloader@Umd3@@Uvertmodel@@@@UAEXXZ 00457ad0 f i rendermodel.obj
 0001:00056ae0       ?add@?$vector@Utri@vertmodel@@@@QAEAAUtri@vertmodel@@XZ 00457ae0 f i rendermodel.obj
 0001:00056b90       ?endload@?$modelloader@Umd2@@Uvertmodel@@@@UAEXXZ 00457b90 f i rendermodel.obj
 0001:00056ba0       ?startload@?$modelloader@Umd2@@Uvertmodel@@@@UAEXXZ 00457ba0 f i rendermodel.obj
 0001:00056bb0       ??1?$hashbase@U?$hashset@Uskelzoneinfo@@@@Uskelzoneinfo@@U2@U2@@@QAE@XZ 00457bb0 f i rendermodel.obj
 0001:00056c40       ??1?$hashbase@U?$hashtable@PBDH@@U?$hashtableentry@PBDH@@PBDH@@QAE@XZ 00457c40 f i shader.obj
 0001:00056c40       ??1?$hashbase@U?$hashtable@PADPAUfilesval@@@@U?$hashtableentry@PADPAUfilesval@@@@PADPAUfilesval@@@@QAE@XZ 00457c40 f i console.obj
 0001:00056c40       ??1?$hashbase@U?$hashtable@IH@@U?$hashtableentry@IH@@IH@@QAE@XZ 00457c40 f i rendermodel.obj
 0001:00056cc0       ??1?$vector@Utag@skelmodel@@@@QAE@XZ 00457cc0 f i rendermodel.obj
 0001:00056d40       ??1?$vector@Uskelanimspec@skelmodel@@@@QAE@XZ 00457d40 f i rendermodel.obj
 0001:00056db0       ??1?$hashbase@U?$hashtable@Ushaderparams@animmodel@@Ushaderparamskey@2@@@U?$hashtableentry@Ushaderparams@animmodel@@Ushaderparamskey@2@@@Ushaderparams@animmodel@@Ushaderparamskey@4@@@QAE@XZ 00457db0 f i rendermodel.obj
 0001:00056e50       ?sethitzone@?$skelcommands@Uiqm@@@@SAXPAHPAD@Z 00457e50 f i rendermodel.obj
 0001:000570f0       ?setadjust@?$skelcommands@Uiqm@@@@SAXPADPAM11111@Z 004580f0 f i rendermodel.obj
 0001:00057230       ?setanimpart@?$skelcommands@Uiqm@@@@SAXPAD@Z 00458230 f i rendermodel.obj
 0001:00057450       ?setanim@?$skelcommands@Uiqm@@@@SAXPAD0PAMPAH22@Z 00458450 f i rendermodel.obj
 0001:00057650       ?setpitchcorrect@?$skelcommands@Uiqm@@@@SAXPAD0PAM11@Z 00458650 f i rendermodel.obj
 0001:000577d0       ?setpitchtarget@?$skelcommands@Uiqm@@@@SAXPAD0PAHPAM2@Z 004587d0 f i rendermodel.obj
 0001:00057930       ?setpitch@?$skelcommands@Uiqm@@@@SAXPADPAM111@Z 00458930 f i rendermodel.obj
 0001:00057ae0       ?settag@?$skelcommands@Uiqm@@@@SAXPAD0PAM11111@Z 00458ae0 f i rendermodel.obj
 0001:00057d60       ?loadpart@?$skelcommands@Uiqm@@@@SAXPAD0PAM@Z 00458d60 f i rendermodel.obj
 0001:00057e90       ??0?$modelcommands@Uiqm@@Uskelmesh@skelmodel@@@@QAE@XZ 00458e90 f i rendermodel.obj
 0001:000580e0       ?sethitzone@?$skelcommands@Usmd@@@@SAXPAHPAD@Z 004590e0 f i rendermodel.obj
 0001:00058380       ?setadjust@?$skelcommands@Usmd@@@@SAXPADPAM11111@Z 00459380 f i rendermodel.obj
 0001:000584c0       ?setanimpart@?$skelcommands@Usmd@@@@SAXPAD@Z 004594c0 f i rendermodel.obj
 0001:000586e0       ?setanim@?$skelcommands@Usmd@@@@SAXPAD0PAMPAH22@Z 004596e0 f i rendermodel.obj
 0001:000588e0       ?setpitchcorrect@?$skelcommands@Usmd@@@@SAXPAD0PAM11@Z 004598e0 f i rendermodel.obj
 0001:00058a60       ?setpitchtarget@?$skelcommands@Usmd@@@@SAXPAD0PAHPAM2@Z 00459a60 f i rendermodel.obj
 0001:00058bc0       ?setpitch@?$skelcommands@Usmd@@@@SAXPADPAM111@Z 00459bc0 f i rendermodel.obj
 0001:00058d70       ?settag@?$skelcommands@Usmd@@@@SAXPAD0PAM11111@Z 00459d70 f i rendermodel.obj
 0001:00058ff0       ?loadpart@?$skelcommands@Usmd@@@@SAXPAD0PAM@Z 00459ff0 f i rendermodel.obj
 0001:00059120       ??0?$modelcommands@Usmd@@Uskelmesh@skelmodel@@@@QAE@XZ 0045a120 f i rendermodel.obj
 0001:00059370       ?setpitch@?$vertcommands@Uobj@@@@SAXPAM000@Z 0045a370 f i rendermodel.obj
 0001:00059430       ?settag@?$vertcommands@Uobj@@@@SAXPADPAM11111@Z 0045a430 f i rendermodel.obj
 0001:000596a0       ?loadpart@?$vertcommands@Uobj@@@@SAXPADPAM@Z 0045a6a0 f i rendermodel.obj
 0001:000597b0       ??0?$modelcommands@Uobj@@Uvertmesh@vertmodel@@@@QAE@XZ 0045a7b0 f i rendermodel.obj
 0001:00059a00       ?sethitzone@?$skelcommands@Umd5@@@@SAXPAHPAD@Z 0045aa00 f i rendermodel.obj
 0001:00059ca0       ?setadjust@?$skelcommands@Umd5@@@@SAXPADPAM11111@Z 0045aca0 f i rendermodel.obj
 0001:00059de0       ?setanimpart@?$skelcommands@Umd5@@@@SAXPAD@Z 0045ade0 f i rendermodel.obj
 0001:0005a000       ?setanim@?$skelcommands@Umd5@@@@SAXPAD0PAMPAH22@Z 0045b000 f i rendermodel.obj
 0001:0005a200       ?setpitchcorrect@?$skelcommands@Umd5@@@@SAXPAD0PAM11@Z 0045b200 f i rendermodel.obj
 0001:0005a380       ?setpitchtarget@?$skelcommands@Umd5@@@@SAXPAD0PAHPAM2@Z 0045b380 f i rendermodel.obj
 0001:0005a4e0       ?setpitch@?$skelcommands@Umd5@@@@SAXPADPAM111@Z 0045b4e0 f i rendermodel.obj
 0001:0005a690       ?settag@?$skelcommands@Umd5@@@@SAXPAD0PAM11111@Z 0045b690 f i rendermodel.obj
 0001:0005a910       ?loadpart@?$skelcommands@Umd5@@@@SAXPAD0PAM@Z 0045b910 f i rendermodel.obj
 0001:0005aa40       ??0?$modelcommands@Umd5@@Uskelmesh@skelmodel@@@@QAE@XZ 0045ba40 f i rendermodel.obj
 0001:0005ac90       ?setanim@?$vertcommands@Umd3@@@@SAXPADPAH1PAM1@Z 0045bc90 f i rendermodel.obj
 0001:0005adb0       ?setpitch@?$vertcommands@Umd3@@@@SAXPAM000@Z 0045bdb0 f i rendermodel.obj
 0001:0005ae70       ?settag@?$vertcommands@Umd3@@@@SAXPADPAM11111@Z 0045be70 f i rendermodel.obj
 0001:0005b0e0       ?loadpart@?$vertcommands@Umd3@@@@SAXPADPAM@Z 0045c0e0 f i rendermodel.obj
 0001:0005b1f0       ??0?$modelcommands@Umd3@@Uvertmesh@vertmodel@@@@QAE@XZ 0045c1f0 f i rendermodel.obj
 0001:0005b440       ?setanim@?$vertcommands@Umd2@@@@SAXPADPAH1PAM1@Z 0045c440 f i rendermodel.obj
 0001:0005b560       ?setpitch@?$vertcommands@Umd2@@@@SAXPAM000@Z 0045c560 f i rendermodel.obj
 0001:0005b620       ?settag@?$vertcommands@Umd2@@@@SAXPADPAM11111@Z 0045c620 f i rendermodel.obj
 0001:0005b890       ?deletechunks@?$hashbase@U?$hashtable@Uivec@@H@@U?$hashtableentry@Uivec@@H@@Uivec@@H@@QAEXXZ 0045c890 f i rendermodel.obj
 0001:0005b8d0       ?growbuf@?$vector@UAttribLoc@@@@QAEXH@Z 0045c8d0 f i shader.obj
 0001:0005b8d0       ?growbuf@?$vector@Utri@skelbih@@@@QAEXH@Z 0045c8d0 f i rendermodel.obj
 0001:0005b960       ?growbuf@?$vector@Umesh@BIH@@@@QAEXH@Z 0045c960 f i rendermodel.obj
 0001:0005b9f0       ??1chain@?$hashbase@U?$hashtable@PBDUsmdmeshdata@smdmeshgroup@smd@@@@U?$hashtableentry@PBDUsmdmeshdata@smdmeshgroup@smd@@@@PBDUsmdmeshdata@smdmeshgroup@smd@@@@QAE@XZ 0045c9f0 f i rendermodel.obj
 0001:0005ba40       ??1chain@?$hashbase@U?$hashset@Uskelzoneinfo@@@@Uskelzoneinfo@@U2@U2@@@QAE@XZ 0045ca40 f i rendermodel.obj
 0001:0005ba80       ??1?$hashtableentry@PBDUsmdmeshdata@smdmeshgroup@smd@@@@QAE@XZ 0045ca80 f i rendermodel.obj
 0001:0005bac0       ??1skelzoneinfo@@QAE@XZ    0045cac0 f i rendermodel.obj
 0001:0005bb40       ??1smdmeshdata@smdmeshgroup@smd@@QAE@XZ 0045cb40 f i rendermodel.obj
 0001:0005bbc0       ?deletearrays@?$vector@PAD@@QAEXH@Z 0045cbc0 f i rendermodel.obj
 0001:0005bc00       ?setlink@?$modelcommands@Uiqm@@Uskelmesh@skelmodel@@@@SAXPAH0PADPAM22@Z 0045cc00 f i rendermodel.obj
 0001:0005bcd0       ?settricollide@?$modelcommands@Uiqm@@Uskelmesh@skelmodel@@@@SAXPAD@Z 0045ccd0 f i rendermodel.obj
 0001:0005be60       ?setnoclip@?$modelcommands@Uiqm@@Uskelmesh@skelmodel@@@@SAXPADPAH@Z 0045ce60 f i rendermodel.obj
 0001:0005bf60       ?setscroll@?$modelcommands@Uiqm@@Uskelmesh@skelmodel@@@@SAXPADPAM1@Z 0045cf60 f i rendermodel.obj
 0001:0005c070       ?setshader@?$modelcommands@Uiqm@@Uskelmesh@skelmodel@@@@SAXPAD0@Z 0045d070 f i rendermodel.obj
 0001:0005c170       ?setfullbright@?$modelcommands@Uiqm@@Uskelmesh@skelmodel@@@@SAXPADPAM@Z 0045d170 f i rendermodel.obj
 0001:0005c280       ?setdecal@?$modelcommands@Uiqm@@Uskelmesh@skelmodel@@@@SAXPAD0@Z 0045d280 f i rendermodel.obj
 0001:0005c3b0       ?setbumpmap@?$modelcommands@Uiqm@@Uskelmesh@skelmodel@@@@SAXPAD0@Z 0045d3b0 f i rendermodel.obj
 0001:0005c4e0       ?setenvmap@?$modelcommands@Uiqm@@Uskelmesh@skelmodel@@@@SAXPAD0@Z 0045d4e0 f i rendermodel.obj
 0001:0005c600       ?setcolor@?$modelcommands@Uiqm@@Uskelmesh@skelmodel@@@@SAXPADPAM11@Z 0045d600 f i rendermodel.obj
 0001:0005c730       ?setcullface@?$modelcommands@Uiqm@@Uskelmesh@skelmodel@@@@SAXPADPAH@Z 0045d730 f i rendermodel.obj
 0001:0005c850       ?setdither@?$modelcommands@Uiqm@@Uskelmesh@skelmodel@@@@SAXPADPAH@Z 0045d850 f i rendermodel.obj
 0001:0005c960       ?setalphatest@?$modelcommands@Uiqm@@Uskelmesh@skelmodel@@@@SAXPADPAM@Z 0045d960 f i rendermodel.obj
 0001:0005ca70       ?setglow@?$modelcommands@Uiqm@@Uskelmesh@skelmodel@@@@SAXPADPAM11@Z 0045da70 f i rendermodel.obj
 0001:0005cbd0       ?setgloss@?$modelcommands@Uiqm@@Uskelmesh@skelmodel@@@@SAXPADPAH@Z 0045dbd0 f i rendermodel.obj
 0001:0005ccf0       ?setspec@?$modelcommands@Uiqm@@Uskelmesh@skelmodel@@@@SAXPADPAM@Z 0045dcf0 f i rendermodel.obj
 0001:0005ce00       ?setskin@?$modelcommands@Uiqm@@Uskelmesh@skelmodel@@@@SAXPAD00PAM1@Z 0045de00 f i rendermodel.obj
 0001:0005cf60       ?setdir@?$modelcommands@Uiqm@@Uskelmesh@skelmodel@@@@SAXPAD@Z 0045df60 f i rendermodel.obj
 0001:0005cfa0       ?setlink@?$modelcommands@Usmd@@Uskelmesh@skelmodel@@@@SAXPAH0PADPAM22@Z 0045dfa0 f i rendermodel.obj
 0001:0005d070       ?settricollide@?$modelcommands@Usmd@@Uskelmesh@skelmodel@@@@SAXPAD@Z 0045e070 f i rendermodel.obj
 0001:0005d200       ?setnoclip@?$modelcommands@Usmd@@Uskelmesh@skelmodel@@@@SAXPADPAH@Z 0045e200 f i rendermodel.obj
 0001:0005d300       ?setscroll@?$modelcommands@Usmd@@Uskelmesh@skelmodel@@@@SAXPADPAM1@Z 0045e300 f i rendermodel.obj
 0001:0005d410       ?setshader@?$modelcommands@Usmd@@Uskelmesh@skelmodel@@@@SAXPAD0@Z 0045e410 f i rendermodel.obj
 0001:0005d510       ?setfullbright@?$modelcommands@Usmd@@Uskelmesh@skelmodel@@@@SAXPADPAM@Z 0045e510 f i rendermodel.obj
 0001:0005d620       ?setdecal@?$modelcommands@Usmd@@Uskelmesh@skelmodel@@@@SAXPAD0@Z 0045e620 f i rendermodel.obj
 0001:0005d750       ?setbumpmap@?$modelcommands@Usmd@@Uskelmesh@skelmodel@@@@SAXPAD0@Z 0045e750 f i rendermodel.obj
 0001:0005d880       ?setenvmap@?$modelcommands@Usmd@@Uskelmesh@skelmodel@@@@SAXPAD0@Z 0045e880 f i rendermodel.obj
 0001:0005d9a0       ?setcolor@?$modelcommands@Usmd@@Uskelmesh@skelmodel@@@@SAXPADPAM11@Z 0045e9a0 f i rendermodel.obj
 0001:0005dad0       ?setcullface@?$modelcommands@Usmd@@Uskelmesh@skelmodel@@@@SAXPADPAH@Z 0045ead0 f i rendermodel.obj
 0001:0005dbf0       ?setdither@?$modelcommands@Usmd@@Uskelmesh@skelmodel@@@@SAXPADPAH@Z 0045ebf0 f i rendermodel.obj
 0001:0005dd00       ?setalphatest@?$modelcommands@Usmd@@Uskelmesh@skelmodel@@@@SAXPADPAM@Z 0045ed00 f i rendermodel.obj
 0001:0005de10       ?setglow@?$modelcommands@Usmd@@Uskelmesh@skelmodel@@@@SAXPADPAM11@Z 0045ee10 f i rendermodel.obj
 0001:0005df70       ?setgloss@?$modelcommands@Usmd@@Uskelmesh@skelmodel@@@@SAXPADPAH@Z 0045ef70 f i rendermodel.obj
 0001:0005e090       ?setspec@?$modelcommands@Usmd@@Uskelmesh@skelmodel@@@@SAXPADPAM@Z 0045f090 f i rendermodel.obj
 0001:0005e1a0       ?setskin@?$modelcommands@Usmd@@Uskelmesh@skelmodel@@@@SAXPAD00PAM1@Z 0045f1a0 f i rendermodel.obj
 0001:0005e300       ?setdir@?$modelcommands@Usmd@@Uskelmesh@skelmodel@@@@SAXPAD@Z 0045f300 f i rendermodel.obj
 0001:0005e340       ?setlink@?$modelcommands@Uobj@@Uvertmesh@vertmodel@@@@SAXPAH0PADPAM22@Z 0045f340 f i rendermodel.obj
 0001:0005e410       ?settricollide@?$modelcommands@Uobj@@Uvertmesh@vertmodel@@@@SAXPAD@Z 0045f410 f i rendermodel.obj
 0001:0005e5a0       ?setnoclip@?$modelcommands@Uobj@@Uvertmesh@vertmodel@@@@SAXPADPAH@Z 0045f5a0 f i rendermodel.obj
 0001:0005e6a0       ?setscroll@?$modelcommands@Uobj@@Uvertmesh@vertmodel@@@@SAXPADPAM1@Z 0045f6a0 f i rendermodel.obj
 0001:0005e7b0       ?setshader@?$modelcommands@Uobj@@Uvertmesh@vertmodel@@@@SAXPAD0@Z 0045f7b0 f i rendermodel.obj
 0001:0005e8b0       ?setfullbright@?$modelcommands@Uobj@@Uvertmesh@vertmodel@@@@SAXPADPAM@Z 0045f8b0 f i rendermodel.obj
 0001:0005e9c0       ?setdecal@?$modelcommands@Uobj@@Uvertmesh@vertmodel@@@@SAXPAD0@Z 0045f9c0 f i rendermodel.obj
 0001:0005eaf0       ?setbumpmap@?$modelcommands@Uobj@@Uvertmesh@vertmodel@@@@SAXPAD0@Z 0045faf0 f i rendermodel.obj
 0001:0005ec20       ?setenvmap@?$modelcommands@Uobj@@Uvertmesh@vertmodel@@@@SAXPAD0@Z 0045fc20 f i rendermodel.obj
 0001:0005ed40       ?setcolor@?$modelcommands@Uobj@@Uvertmesh@vertmodel@@@@SAXPADPAM11@Z 0045fd40 f i rendermodel.obj
 0001:0005ee70       ?setcullface@?$modelcommands@Uobj@@Uvertmesh@vertmodel@@@@SAXPADPAH@Z 0045fe70 f i rendermodel.obj
 0001:0005ef90       ?setdither@?$modelcommands@Uobj@@Uvertmesh@vertmodel@@@@SAXPADPAH@Z 0045ff90 f i rendermodel.obj
 0001:0005f0a0       ?setalphatest@?$modelcommands@Uobj@@Uvertmesh@vertmodel@@@@SAXPADPAM@Z 004600a0 f i rendermodel.obj
 0001:0005f1b0       ?setglow@?$modelcommands@Uobj@@Uvertmesh@vertmodel@@@@SAXPADPAM11@Z 004601b0 f i rendermodel.obj
 0001:0005f310       ?setgloss@?$modelcommands@Uobj@@Uvertmesh@vertmodel@@@@SAXPADPAH@Z 00460310 f i rendermodel.obj
 0001:0005f430       ?setspec@?$modelcommands@Uobj@@Uvertmesh@vertmodel@@@@SAXPADPAM@Z 00460430 f i rendermodel.obj
 0001:0005f540       ?setskin@?$modelcommands@Uobj@@Uvertmesh@vertmodel@@@@SAXPAD00PAM1@Z 00460540 f i rendermodel.obj
 0001:0005f6a0       ?setdir@?$modelcommands@Uobj@@Uvertmesh@vertmodel@@@@SAXPAD@Z 004606a0 f i rendermodel.obj
 0001:0005f6e0       ?setlink@?$modelcommands@Umd5@@Uskelmesh@skelmodel@@@@SAXPAH0PADPAM22@Z 004606e0 f i rendermodel.obj
 0001:0005f7b0       ?settricollide@?$modelcommands@Umd5@@Uskelmesh@skelmodel@@@@SAXPAD@Z 004607b0 f i rendermodel.obj
 0001:0005f940       ?setnoclip@?$modelcommands@Umd5@@Uskelmesh@skelmodel@@@@SAXPADPAH@Z 00460940 f i rendermodel.obj
 0001:0005fa40       ?setscroll@?$modelcommands@Umd5@@Uskelmesh@skelmodel@@@@SAXPADPAM1@Z 00460a40 f i rendermodel.obj
 0001:0005fb50       ?setshader@?$modelcommands@Umd5@@Uskelmesh@skelmodel@@@@SAXPAD0@Z 00460b50 f i rendermodel.obj
 0001:0005fc50       ?setfullbright@?$modelcommands@Umd5@@Uskelmesh@skelmodel@@@@SAXPADPAM@Z 00460c50 f i rendermodel.obj
 0001:0005fd60       ?setdecal@?$modelcommands@Umd5@@Uskelmesh@skelmodel@@@@SAXPAD0@Z 00460d60 f i rendermodel.obj
 0001:0005fe90       ?setbumpmap@?$modelcommands@Umd5@@Uskelmesh@skelmodel@@@@SAXPAD0@Z 00460e90 f i rendermodel.obj
 0001:0005ffc0       ?setenvmap@?$modelcommands@Umd5@@Uskelmesh@skelmodel@@@@SAXPAD0@Z 00460fc0 f i rendermodel.obj
 0001:000600e0       ?setcolor@?$modelcommands@Umd5@@Uskelmesh@skelmodel@@@@SAXPADPAM11@Z 004610e0 f i rendermodel.obj
 0001:00060210       ?setcullface@?$modelcommands@Umd5@@Uskelmesh@skelmodel@@@@SAXPADPAH@Z 00461210 f i rendermodel.obj
 0001:00060330       ?setdither@?$modelcommands@Umd5@@Uskelmesh@skelmodel@@@@SAXPADPAH@Z 00461330 f i rendermodel.obj
 0001:00060440       ?setalphatest@?$modelcommands@Umd5@@Uskelmesh@skelmodel@@@@SAXPADPAM@Z 00461440 f i rendermodel.obj
 0001:00060550       ?setglow@?$modelcommands@Umd5@@Uskelmesh@skelmodel@@@@SAXPADPAM11@Z 00461550 f i rendermodel.obj
 0001:000606b0       ?setgloss@?$modelcommands@Umd5@@Uskelmesh@skelmodel@@@@SAXPADPAH@Z 004616b0 f i rendermodel.obj
 0001:000607d0       ?setspec@?$modelcommands@Umd5@@Uskelmesh@skelmodel@@@@SAXPADPAM@Z 004617d0 f i rendermodel.obj
 0001:000608e0       ?setskin@?$modelcommands@Umd5@@Uskelmesh@skelmodel@@@@SAXPAD00PAM1@Z 004618e0 f i rendermodel.obj
 0001:00060a40       ?setdir@?$modelcommands@Umd5@@Uskelmesh@skelmodel@@@@SAXPAD@Z 00461a40 f i rendermodel.obj
 0001:00060a80       ?setlink@?$modelcommands@Umd3@@Uvertmesh@vertmodel@@@@SAXPAH0PADPAM22@Z 00461a80 f i rendermodel.obj
 0001:00060b50       ?settricollide@?$modelcommands@Umd3@@Uvertmesh@vertmodel@@@@SAXPAD@Z 00461b50 f i rendermodel.obj
 0001:00060ce0       ?setnoclip@?$modelcommands@Umd3@@Uvertmesh@vertmodel@@@@SAXPADPAH@Z 00461ce0 f i rendermodel.obj
 0001:00060de0       ?setscroll@?$modelcommands@Umd3@@Uvertmesh@vertmodel@@@@SAXPADPAM1@Z 00461de0 f i rendermodel.obj
 0001:00060ef0       ?setshader@?$modelcommands@Umd3@@Uvertmesh@vertmodel@@@@SAXPAD0@Z 00461ef0 f i rendermodel.obj
 0001:00060ff0       ?setfullbright@?$modelcommands@Umd3@@Uvertmesh@vertmodel@@@@SAXPADPAM@Z 00461ff0 f i rendermodel.obj
 0001:00061100       ?setdecal@?$modelcommands@Umd3@@Uvertmesh@vertmodel@@@@SAXPAD0@Z 00462100 f i rendermodel.obj
 0001:00061230       ?setbumpmap@?$modelcommands@Umd3@@Uvertmesh@vertmodel@@@@SAXPAD0@Z 00462230 f i rendermodel.obj
 0001:00061360       ?setenvmap@?$modelcommands@Umd3@@Uvertmesh@vertmodel@@@@SAXPAD0@Z 00462360 f i rendermodel.obj
 0001:00061480       ?setcolor@?$modelcommands@Umd3@@Uvertmesh@vertmodel@@@@SAXPADPAM11@Z 00462480 f i rendermodel.obj
 0001:000615b0       ?setcullface@?$modelcommands@Umd3@@Uvertmesh@vertmodel@@@@SAXPADPAH@Z 004625b0 f i rendermodel.obj
 0001:000616d0       ?setdither@?$modelcommands@Umd3@@Uvertmesh@vertmodel@@@@SAXPADPAH@Z 004626d0 f i rendermodel.obj
 0001:000617e0       ?setalphatest@?$modelcommands@Umd3@@Uvertmesh@vertmodel@@@@SAXPADPAM@Z 004627e0 f i rendermodel.obj
 0001:000618f0       ?setglow@?$modelcommands@Umd3@@Uvertmesh@vertmodel@@@@SAXPADPAM11@Z 004628f0 f i rendermodel.obj
 0001:00061a50       ?setgloss@?$modelcommands@Umd3@@Uvertmesh@vertmodel@@@@SAXPADPAH@Z 00462a50 f i rendermodel.obj
 0001:00061b70       ?setspec@?$modelcommands@Umd3@@Uvertmesh@vertmodel@@@@SAXPADPAM@Z 00462b70 f i rendermodel.obj
 0001:00061c80       ?setskin@?$modelcommands@Umd3@@Uvertmesh@vertmodel@@@@SAXPAD00PAM1@Z 00462c80 f i rendermodel.obj
 0001:00061de0       ?setdir@?$modelcommands@Umd3@@Uvertmesh@vertmodel@@@@SAXPAD@Z 00462de0 f i rendermodel.obj
 0001:00061e20       ?setdir@?$modelcommands@Umd2@@Uvertmesh@vertmodel@@@@SAXPAD@Z 00462e20 f i rendermodel.obj
 0001:00061e60       ?add@?$vector@Uskeladjustment@@@@QAEAAUskeladjustment@@ABU2@@Z 00462e60 f i rendermodel.obj
 0001:00061f30       ?insert@?$vector@Upitchcorrect@skelmodel@@@@QAEAAUpitchcorrect@skelmodel@@HABU23@@Z 00462f30 f i rendermodel.obj
 0001:00062050       ?add@?$vector@Upitchtarget@skelmodel@@@@QAEAAUpitchtarget@skelmodel@@XZ 00463050 f i rendermodel.obj
 0001:00062110       ??$smoothnorms@Uvert@vertmodel@@Utri@2@@mesh@animmodel@@QAEXPAUvert@vertmodel@@HPAUtri@3@HM_N@Z 00463110 f i rendermodel.obj
 0001:00062600       ??$buildnorms@Uvert@vertmodel@@Utri@2@@mesh@animmodel@@QAEXPAUvert@vertmodel@@HPAUtri@3@H_NH@Z 00463600 f i rendermodel.obj
 0001:00062860       ??$calctangents@Uvert@vertmodel@@Utcvert@2@Utri@2@@mesh@animmodel@@QAEXPAUvert@vertmodel@@PAUtcvert@3@HPAUtri@3@H_NH@Z 00463860 f i rendermodel.obj
 0001:00062fb0       ??$genvbo@Uvvertg@vertmodel@@@vertmesh@vertmodel@@QAEHAAU?$vector@G@@HAAU?$vector@Uvvertg@vertmodel@@@@PAHH@Z 00463fb0 f i rendermodel.obj
 0001:00063520       ??$access@PBD@?$hashbase@U?$hashnameset@PAUmeshgroup@animmodel@@@@PAUmeshgroup@animmodel@@PBDPAU23@@@QAEPAPAUmeshgroup@animmodel@@ABQBD@Z 00464520 f i rendermodel.obj
 0001:000635b0       ??$add@PAUmeshgroup@animmodel@@@?$hashnameset@PAUmeshgroup@animmodel@@@@QAEAAPAUmeshgroup@animmodel@@ABQAU12@@Z 004645b0 f i rendermodel.obj
 0001:00063650       ??$?APBD@?$hashbase@U?$hashnameset@PAUmeshgroup@animmodel@@@@PAUmeshgroup@animmodel@@PBDPAU23@@@QAEAAPAUmeshgroup@animmodel@@ABQBD@Z 00464650 f i rendermodel.obj
 0001:000636e0       ??$smoothnorms@Uvert@skelmodel@@Utri@2@@mesh@animmodel@@QAEXPAUvert@skelmodel@@HPAUtri@3@HM_N@Z 004646e0 f i rendermodel.obj
 0001:00063be0       ??$buildnorms@Uvert@skelmodel@@Utri@2@@mesh@animmodel@@QAEXPAUvert@skelmodel@@HPAUtri@3@H_N@Z 00464be0 f i rendermodel.obj
 0001:00063e20       ??$calctangents@Uvert@skelmodel@@U12@Utri@2@@mesh@animmodel@@QAEXPAUvert@skelmodel@@0HPAUtri@3@H_N@Z 00464e20 f i rendermodel.obj
 0001:00064530       ??$serialize@Uvvertgw@skelmodel@@@blendcombo@skelmodel@@QAEXAAUvvertgw@1@@Z 00465530 f i rendermodel.obj
 0001:000646a0       ??$genvbo@Uvvertgw@skelmodel@@@skelmesh@skelmodel@@QAEHAAU?$vector@G@@HAAU?$vector@Uvvertgw@skelmodel@@@@@Z 004656a0 f i rendermodel.obj
 0001:00064a40       ??$genvbo@Uvvertg@skelmodel@@@skelmesh@skelmodel@@QAEHAAU?$vector@G@@HAAU?$vector@Uvvertg@skelmodel@@@@PAHH@Z 00465a40 f i rendermodel.obj
 0001:00064fb0       ??$interpverts@Uvvert@skelmodel@@@skelmesh@skelmodel@@QAEXPIBUdualquat@@0PIAUvvert@1@AAUskin@animmodel@@@Z 00465fb0 f i rendermodel.obj
 0001:00065420       ??$access@PBD@?$hashbase@U?$hashnameset@PAUmodel@@@@PAUmodel@@PBDPAU2@@@QAEPAPAUmodel@@ABQBD@Z 00466420 f i rendermodel.obj
 0001:000654b0       ??$modelcommand@$$A6AXPAD@Z@?$modelcommands@Uiqm@@Uskelmesh@skelmodel@@@@QAEXP6AXPAD@ZPBD2@Z 004664b0 f i rendermodel.obj
 0001:00065540       ??$modelcommand@$$A6AXPAD@Z@?$modelcommands@Usmd@@Uskelmesh@skelmodel@@@@QAEXP6AXPAD@ZPBD2@Z 00466540 f i rendermodel.obj
 0001:000655d0       ??$modelcommand@$$A6AXPADPAM@Z@?$modelcommands@Uobj@@Uvertmesh@vertmodel@@@@QAEXP6AXPADPAM@ZPBD3@Z 004665d0 f i rendermodel.obj
 0001:00065660       ??$modelcommand@$$A6AXPAD@Z@?$modelcommands@Umd5@@Uskelmesh@skelmodel@@@@QAEXP6AXPAD@ZPBD2@Z 00466660 f i rendermodel.obj
 0001:000656f0       ??$modelcommand@$$A6AXPADPAM@Z@?$modelcommands@Umd3@@Uvertmesh@vertmodel@@@@QAEXP6AXPADPAM@ZPBD3@Z 004666f0 f i rendermodel.obj
 0001:00065780       ??$modelcommand@$$A6AXPADPAM@Z@?$modelcommands@Uiqm@@Uskelmesh@skelmodel@@@@QAEXP6AXPADPAM@ZPBD3@Z 00466780 f i rendermodel.obj
 0001:00065810       ??$modelcommand@$$A6AXPADPAH@Z@?$modelcommands@Uiqm@@Uskelmesh@skelmodel@@@@QAEXP6AXPADPAH@ZPBD3@Z 00466810 f i rendermodel.obj
 0001:000658a0       ??$modelcommand@$$A6AXPADPAM11@Z@?$modelcommands@Uiqm@@Uskelmesh@skelmodel@@@@QAEXP6AXPADPAM11@ZPBD3@Z 004668a0 f i rendermodel.obj
 0001:00065930       ??$modelcommand@$$A6AXPAD0@Z@?$modelcommands@Uiqm@@Uskelmesh@skelmodel@@@@QAEXP6AXPAD0@ZPBD2@Z 00466930 f i rendermodel.obj
 0001:000659c0       ??$modelcommand@$$A6AXPADPAM@Z@?$modelcommands@Usmd@@Uskelmesh@skelmodel@@@@QAEXP6AXPADPAM@ZPBD3@Z 004669c0 f i rendermodel.obj
 0001:00065a50       ??$modelcommand@$$A6AXPADPAH@Z@?$modelcommands@Usmd@@Uskelmesh@skelmodel@@@@QAEXP6AXPADPAH@ZPBD3@Z 00466a50 f i rendermodel.obj
 0001:00065ae0       ??$modelcommand@$$A6AXPADPAM11@Z@?$modelcommands@Usmd@@Uskelmesh@skelmodel@@@@QAEXP6AXPADPAM11@ZPBD3@Z 00466ae0 f i rendermodel.obj
 0001:00065b70       ??$modelcommand@$$A6AXPAD0@Z@?$modelcommands@Usmd@@Uskelmesh@skelmodel@@@@QAEXP6AXPAD0@ZPBD2@Z 00466b70 f i rendermodel.obj
 0001:00065c00       ??$modelcommand@$$A6AXPAD@Z@?$modelcommands@Uobj@@Uvertmesh@vertmodel@@@@QAEXP6AXPAD@ZPBD2@Z 00466c00 f i rendermodel.obj
 0001:00065c90       ??$modelcommand@$$A6AXPADPAH@Z@?$modelcommands@Uobj@@Uvertmesh@vertmodel@@@@QAEXP6AXPADPAH@ZPBD3@Z 00466c90 f i rendermodel.obj
 0001:00065d20       ??$modelcommand@$$A6AXPADPAM11@Z@?$modelcommands@Uobj@@Uvertmesh@vertmodel@@@@QAEXP6AXPADPAM11@ZPBD3@Z 00466d20 f i rendermodel.obj
 0001:00065db0       ??$modelcommand@$$A6AXPAD0@Z@?$modelcommands@Uobj@@Uvertmesh@vertmodel@@@@QAEXP6AXPAD0@ZPBD2@Z 00466db0 f i rendermodel.obj
 0001:00065e40       ??$modelcommand@$$A6AXPADPAM@Z@?$modelcommands@Umd5@@Uskelmesh@skelmodel@@@@QAEXP6AXPADPAM@ZPBD3@Z 00466e40 f i rendermodel.obj
 0001:00065ed0       ??$modelcommand@$$A6AXPADPAH@Z@?$modelcommands@Umd5@@Uskelmesh@skelmodel@@@@QAEXP6AXPADPAH@ZPBD3@Z 00466ed0 f i rendermodel.obj
 0001:00065f60       ??$modelcommand@$$A6AXPADPAM11@Z@?$modelcommands@Umd5@@Uskelmesh@skelmodel@@@@QAEXP6AXPADPAM11@ZPBD3@Z 00466f60 f i rendermodel.obj
 0001:00065ff0       ??$modelcommand@$$A6AXPAD0@Z@?$modelcommands@Umd5@@Uskelmesh@skelmodel@@@@QAEXP6AXPAD0@ZPBD2@Z 00466ff0 f i rendermodel.obj
 0001:00066080       ??$modelcommand@$$A6AXPAD@Z@?$modelcommands@Umd3@@Uvertmesh@vertmodel@@@@QAEXP6AXPAD@ZPBD2@Z 00467080 f i rendermodel.obj
 0001:00066110       ??$modelcommand@$$A6AXPADPAH@Z@?$modelcommands@Umd3@@Uvertmesh@vertmodel@@@@QAEXP6AXPADPAH@ZPBD3@Z 00467110 f i rendermodel.obj
 0001:000661a0       ??$modelcommand@$$A6AXPADPAM11@Z@?$modelcommands@Umd3@@Uvertmesh@vertmodel@@@@QAEXP6AXPADPAM11@ZPBD3@Z 004671a0 f i rendermodel.obj
 0001:00066230       ??$modelcommand@$$A6AXPAD0@Z@?$modelcommands@Umd3@@Uvertmesh@vertmodel@@@@QAEXP6AXPAD0@ZPBD2@Z 00467230 f i rendermodel.obj
 0001:000662c0       ??$modelcommand@$$A6AXPAD@Z@?$modelcommands@Umd2@@Uvertmesh@vertmodel@@@@QAEXP6AXPAD@ZPBD2@Z 004672c0 f i rendermodel.obj
 0001:00066350       ??4skelzoneinfo@@QAEAAU0@$$QAU0@@Z 00467350 f i rendermodel.obj
 0001:000664e0       ?insert@?$hashbase@U?$hashnameset@PAUmodel@@@@PAUmodel@@PBDPAU2@@@QAEPAUchain@1@I@Z 004674e0 f i rendermodel.obj
 0001:00066640       ?insert@?$hashbase@U?$hashtable@PBDUsmdmeshdata@smdmeshgroup@smd@@@@U?$hashtableentry@PBDUsmdmeshdata@smdmeshgroup@smd@@@@PBDUsmdmeshdata@smdmeshgroup@smd@@@@QAEPAUchain@1@I@Z 00467640 f i rendermodel.obj
 0001:000667f0       ?insert@?$hashbase@U?$hashset@Uskelzoneinfo@@@@Uskelzoneinfo@@U2@U2@@@QAEPAUchain@1@I@Z 004677f0 f i rendermodel.obj
 0001:000669a0       ?insert@?$hashbase@U?$hashnameset@PAUskeleton@skelmodel@@@@PAUskeleton@skelmodel@@PBDPAU23@@@QAEPAUchain@1@I@Z 004679a0 f i rendermodel.obj
 0001:00066b00       ?insert@?$hashbase@U?$hashtable@IH@@U?$hashtableentry@IH@@IH@@QAEPAUchain@1@I@Z 00467b00 f i rendermodel.obj
 0001:00066b00       ?insert@?$hashbase@U?$hashtable@PADPAUfilesval@@@@U?$hashtableentry@PADPAUfilesval@@@@PADPAUfilesval@@@@QAEPAUchain@1@I@Z 00467b00 f i console.obj
 0001:00066c50       ?insert@?$hashbase@U?$hashnameset@PAUmeshgroup@animmodel@@@@PAUmeshgroup@animmodel@@PBDPAU23@@@QAEPAUchain@1@I@Z 00467c50 f i rendermodel.obj
 0001:00066db0       ?insert@?$hashbase@U?$hashtable@Ushaderparams@animmodel@@Ushaderparamskey@2@@@U?$hashtableentry@Ushaderparams@animmodel@@Ushaderparamskey@2@@@Ushaderparams@animmodel@@Ushaderparamskey@4@@@QAEPAUchain@1@I@Z 00467db0 f i rendermodel.obj
 0001:00066f80       ??0chain@?$hashbase@U?$hashtable@PBDUsmdmeshdata@smdmeshgroup@smd@@@@U?$hashtableentry@PBDUsmdmeshdata@smdmeshgroup@smd@@@@PBDUsmdmeshdata@smdmeshgroup@smd@@@@QAE@XZ 00467f80 f i rendermodel.obj
 0001:00066ff0       ??0chain@?$hashbase@U?$hashset@Uskelzoneinfo@@@@Uskelzoneinfo@@U2@U2@@@QAE@XZ 00467ff0 f i rendermodel.obj
 0001:00067090       ?insert@?$hashbase@U?$hashset@PAD@@PADPADPAD@@QAEPAUchain@1@I@Z 00468090 f i rendermodel.obj
 0001:000671f0       ??$convertmatrix@Umatrix4x3@@@quat@@QAEXABUmatrix4x3@@@Z 004681f0 f i rendermodel.obj
 0001:000671f0       ??$convertmatrix@Umatrix3@@@quat@@QAEXABUmatrix3@@@Z 004681f0 f i rendermodel.obj
 0001:000673d0       ??0matrix4x3@@QAE@ABUmatrix3@@ABUvec@@@Z 004683d0 f i rendermodel.obj
 0001:00067420       ??_Gmodel@@UAEPAXI@Z       00468420 f i rendermodel.obj
 0001:00067420       ??_Emodel@@UAEPAXI@Z       00468420 f i * CIL library *:* CIL module *
 0001:00067450       ??0matrix3@@QAE@ABUquat@@@Z 00468450 f i rendermodel.obj
 0001:000675a0       ?transposedtransform@dualquat@@QBE?AUvec@@ABU2@@Z 004685a0 f i rendermodel.obj
 0001:00067800       ?mulorient@dualquat@@QAEXABUquat@@@Z 00468800 f i rendermodel.obj
 0001:000679f0       ??0matrix4x3@@QAE@ABUdualquat@@@Z 004689f0 f i rendermodel.obj
 0001:00067c80       ?mulorient@dualquat@@QAEXABUquat@@ABU1@@Z 00468c80 f i rendermodel.obj
 0001:000682d0       ?accumulate@dualquat@@QAEXABU1@M@Z 004692d0 f i rendermodel.obj
 0001:000683d0       ?mul@dualquat@@QAEXABU1@0@Z 004693d0 f i rendermodel.obj
 0001:000686b0       ??0matrix4@@QAE@ABUmatrix4x3@@@Z 004696b0 f i rendermodel.obj
 0001:00068720       ??0half@@QAE@M@Z           00469720 f i rendermodel.obj
 0001:000687b0       ?mul@matrix4x3@@QAEXABU1@0@Z 004697b0 f i rendermodel.obj
 0001:00068b10       ??1model@@UAE@XZ           00469b10 f i rendermodel.obj
 0001:00068bb0       ?preloadBIH@model@@UAEXXZ  00469bb0 f i rendermodel.obj
 0001:00068bc0       ?mul@matrix4@@QAEXABU1@ABUmatrix3@@@Z 00469bc0 f i rendermodel.obj
 0001:00068e40       ?rotate@matrix4@@QAEXMABUvec@@@Z 00469e40 f i rendermodel.obj
 0001:00068fb0       ?translate@matrix4x3@@QAEXABUvec@@M@Z 00469fb0 f i rendermodel.obj
 0001:000690b0       ?calcangleaxis@matrix3@@QBE_NMAAMAAUvec@@M@Z 0046a0b0 f i rendermodel.obj
 0001:000692e0       ?transposemul@matrix4x3@@QAEXABU1@0@Z 0046a2e0 f i rendermodel.obj
 0001:00069580       ??1partrenderer@@UAE@XZ    0046a580 f i renderparticles.obj
 0001:00069590       ?preload@partrenderer@@UAEXXZ 0046a590 f i renderparticles.obj
 0001:000695c0       ?calc@partrenderer@@QAEXPAUparticle@@AAH1AAUvec@@2_N@Z 0046a5c0 f i renderparticles.obj
 0001:00069ac0       ?debuginfo@partrenderer@@QAEXXZ 0046aac0 f i renderparticles.obj
 0001:00069d20       ??_Gpartrenderer@@UAEPAXI@Z 0046ad20 f i renderparticles.obj
 0001:00069d20       ??_Epartrenderer@@UAEPAXI@Z 0046ad20 f i * CIL library *:* CIL module *
 0001:00069d50       ??1listrenderer@@UAE@XZ    0046ad50 f i renderparticles.obj
 0001:00069d90       ?reset@listrenderer@@UAEXXZ 0046ad90 f i renderparticles.obj
 0001:00069df0       ?resettracked@listrenderer@@UAEXPAUphysent@@@Z 0046adf0 f i renderparticles.obj
 0001:00069e40       ?addpart@listrenderer@@UAEPAUparticle@@ABUvec@@0HHMH@Z 0046ae40 f i renderparticles.obj
 0001:0006a040       ?count@listrenderer@@UAEHXZ 0046b040 f i renderparticles.obj
 0001:0006a060       ?haswork@listrenderer@@UAE_NXZ 0046b060 f i renderparticles.obj
 0001:0006a070       ?render@listrenderer@@UAEXXZ 0046b070 f i renderparticles.obj
 0001:0006a190       ??_Glistrenderer@@UAEPAXI@Z 0046b190 f i renderparticles.obj
 0001:0006a190       ??_Elistrenderer@@UAEPAXI@Z 0046b190 f i * CIL library *:* CIL module *
 0001:0006a1f0       ?startrender@meterrenderer@@UAEXXZ 0046b1f0 f i renderparticles.obj
 0001:0006a210       ?endrender@meterrenderer@@UAEXXZ 0046b210 f i renderparticles.obj
 0001:0006a220       ?renderpart@meterrenderer@@UAEXPAUlistparticle@@ABUvec@@1HH@Z 0046b220 f i renderparticles.obj
 0001:0006de80       ??_Elightningrenderer@@UAEPAXI@Z 0046ee80 f i * CIL library *:* CIL module *
 0001:0006de80       ??_Glightningrenderer@@UAEPAXI@Z 0046ee80 f i renderparticles.obj
 0001:0006de80       ??_Efireballrenderer@@UAEPAXI@Z 0046ee80 f i * CIL library *:* CIL module *
 0001:0006de80       ??_Gmeterrenderer@@UAEPAXI@Z 0046ee80 f i renderparticles.obj
 0001:0006de80       ??_Emeterrenderer@@UAEPAXI@Z 0046ee80 f i * CIL library *:* CIL module *
 0001:0006de80       ??_Etextrenderer@@UAEPAXI@Z 0046ee80 f i * CIL library *:* CIL module *
 0001:0006de80       ??_Gtextrenderer@@UAEPAXI@Z 0046ee80 f i renderparticles.obj
 0001:0006de80       ??_Gfireballrenderer@@UAEPAXI@Z 0046ee80 f i renderparticles.obj
 0001:0006dee0       ?startrender@textrenderer@@UAEXXZ 0046eee0 f i renderparticles.obj
 0001:0006df20       ?endrender@textrenderer@@UAEXXZ 0046ef20 f i renderparticles.obj
 0001:0006df50       ?killpart@textrenderer@@UAEXPAUlistparticle@@@Z 0046ef50 f i renderparticles.obj
 0001:0006df70       ?renderpart@textrenderer@@UAEXPAUlistparticle@@ABUvec@@1HH@Z 0046ef70 f i renderparticles.obj
 0001:0006e200       ?startrender@fireballrenderer@@UAEXXZ 0046f200 f i renderparticles.obj
 0001:0006e400       ?endrender@fireballrenderer@@UAEXXZ 0046f400 f i renderparticles.obj
 0001:0006e430       ?cleanup@fireballrenderer@@UAEXXZ 0046f430 f i renderparticles.obj
 0001:0006e480       ?seedemitter@fireballrenderer@@UAEXAAUparticleemitter@@ABUvec@@1HMH@Z 0046f480 f i renderparticles.obj
 0001:0006e530       ?renderpart@fireballrenderer@@UAEXPAUlistparticle@@ABUvec@@1HH@Z 0046f530 f i renderparticles.obj
 0001:0006eeb0       ?reset@flarerenderer@@UAEXXZ 0046feb0 f i renderparticles.obj
 0001:0006eec0       ?addflare@flarerenderer@@QAEXAAUvec@@EEE_N1@Z 0046fec0 f i renderparticles.obj
 0001:0006f240       ?update@flarerenderer@@UAEXXZ 00470240 f i renderparticles.obj
 0001:0006f270       ?count@flarerenderer@@UAEHXZ 00470270 f i renderparticles.obj
 0001:0006f280       ?haswork@flarerenderer@@UAE_NXZ 00470280 f i renderparticles.obj
 0001:0006f290       ?render@flarerenderer@@UAEXXZ 00470290 f i renderparticles.obj
 0001:0006f8c0       ?addpart@flarerenderer@@UAEPAUparticle@@ABUvec@@0HHMH@Z 004708c0 f i renderparticles.obj
 0001:0006f8d0       ??_Eflarerenderer@@UAEPAXI@Z 004708d0 f i * CIL library *:* CIL module *
 0001:0006f8d0       ??_Gflarerenderer@@UAEPAXI@Z 004708d0 f i renderparticles.obj
 0001:0006f950       ?startrender@lightningrenderer@@UAEXXZ 00470950 f i renderparticles.obj
 0001:0006f9d0       ?endrender@lightningrenderer@@UAEXXZ 004709d0 f i renderparticles.obj
 0001:0006f9e0       ?seedemitter@lightningrenderer@@UAEXAAUparticleemitter@@ABUvec@@1HMH@Z 004709e0 f i renderparticles.obj
 0001:0006fae0       ?renderpart@lightningrenderer@@UAEXPAUlistparticle@@ABUvec@@1HH@Z 00470ae0 f i renderparticles.obj
 0001:0006fb80       ?render@?$varenderer@$00@@UAEXXZ 00470b80 f i renderparticles.obj
 0001:0006fd70       ?seedemitter@?$varenderer@$00@@UAEXAAUparticleemitter@@ABUvec@@1HMH@Z 00470d70 f i renderparticles.obj
 0001:0006fff0       ?addpart@?$varenderer@$01@@UAEPAUparticle@@ABUvec@@0HHMH@Z 00470ff0 f i renderparticles.obj
 0001:0006fff0       ?addpart@?$varenderer@$0A@@@UAEPAUparticle@@ABUvec@@0HHMH@Z 00470ff0 f i renderparticles.obj
 0001:0006fff0       ?addpart@?$varenderer@$00@@UAEPAUparticle@@ABUvec@@0HHMH@Z 00470ff0 f i renderparticles.obj
 0001:000700e0       ?haswork@?$varenderer@$0A@@@UAE_NXZ 004710e0 f i renderparticles.obj
 0001:000700e0       ?haswork@?$varenderer@$01@@UAE_NXZ 004710e0 f i renderparticles.obj
 0001:000700e0       ?haswork@?$varenderer@$00@@UAE_NXZ 004710e0 f i renderparticles.obj
 0001:000700f0       ?count@?$varenderer@$01@@UAEHXZ 004710f0 f i renderparticles.obj
 0001:000700f0       ?count@?$varenderer@$0A@@@UAEHXZ 004710f0 f i renderparticles.obj
 0001:000700f0       ?count@?$varenderer@$00@@UAEHXZ 004710f0 f i renderparticles.obj
 0001:00070100       ?resettracked@?$varenderer@$00@@UAEXPAUphysent@@@Z 00471100 f i renderparticles.obj
 0001:00070100       ?resettracked@?$varenderer@$01@@UAEXPAUphysent@@@Z 00471100 f i renderparticles.obj
 0001:00070100       ?resettracked@?$varenderer@$0A@@@UAEXPAUphysent@@@Z 00471100 f i renderparticles.obj
 0001:00070160       ?reset@?$varenderer@$00@@UAEXXZ 00471160 f i renderparticles.obj
 0001:00070160       ?reset@?$varenderer@$0A@@@UAEXXZ 00471160 f i renderparticles.obj
 0001:00070160       ?reset@?$varenderer@$01@@UAEXXZ 00471160 f i renderparticles.obj
 0001:00070180       ?init@?$varenderer@$00@@UAEXH@Z 00471180 f i renderparticles.obj
 0001:00070180       ?init@?$varenderer@$01@@UAEXH@Z 00471180 f i renderparticles.obj
 0001:00070180       ?init@?$varenderer@$0A@@@UAEXH@Z 00471180 f i renderparticles.obj
 0001:00070280       ?cleanup@?$varenderer@$0A@@@UAEXXZ 00471280 f i renderparticles.obj
 0001:00070280       ?cleanup@?$varenderer@$01@@UAEXXZ 00471280 f i renderparticles.obj
 0001:00070280       ?cleanup@?$varenderer@$00@@UAEXXZ 00471280 f i renderparticles.obj
 0001:000702b0       ?render@?$varenderer@$01@@UAEXXZ 004712b0 f i renderparticles.obj
 0001:000704a0       ?seedemitter@?$varenderer@$01@@UAEXAAUparticleemitter@@ABUvec@@1HMH@Z 004714a0 f i renderparticles.obj
 0001:000707a0       ?render@?$varenderer@$0A@@@UAEXXZ 004717a0 f i renderparticles.obj
 0001:00070990       ?seedemitter@?$varenderer@$0A@@@UAEXAAUparticleemitter@@ABUvec@@1HMH@Z 00471990 f i renderparticles.obj
 0001:00070d00       ??_E?$varenderer@$0A@@@UAEPAXI@Z 00471d00 f i * CIL library *:* CIL module *
 0001:00070d00       ??_G?$varenderer@$01@@UAEPAXI@Z 00471d00 f i renderparticles.obj
 0001:00070d00       ??_E?$varenderer@$01@@UAEPAXI@Z 00471d00 f i * CIL library *:* CIL module *
 0001:00070d00       ??_G?$varenderer@$00@@UAEPAXI@Z 00471d00 f i renderparticles.obj
 0001:00070d00       ??_E?$varenderer@$00@@UAEPAXI@Z 00471d00 f i * CIL library *:* CIL module *
 0001:00070d00       ??_G?$varenderer@$0A@@@UAEPAXI@Z 00471d00 f i renderparticles.obj
 0001:00070d60       ?genverts@?$varenderer@$00@@QAEXXZ 00471d60 f i renderparticles.obj
 0001:00071460       ?genverts@?$varenderer@$01@@QAEXXZ 00472460 f i renderparticles.obj
 0001:00071810       ?genverts@?$varenderer@$0A@@@QAEXXZ 00472810 f i renderparticles.obj
 0001:00071d80       ?genverts@?$varenderer@$00@@QAEXPAUparticle@@PAUpartvert@@_N@Z 00472d80 f i renderparticles.obj
 0001:000723e0       ?genverts@?$varenderer@$01@@QAEXPAUparticle@@PAUpartvert@@_N@Z 004733e0 f i renderparticles.obj
 0001:00072700       ?genverts@?$varenderer@$0A@@@QAEXPAUparticle@@PAUpartvert@@_N@Z 00473700 f i renderparticles.obj
 0001:00072b80       ??$concformatstring@$0BAE@@@YAXAAY0BAE@DPBDZZ 00473b80 f i renderparticles.obj
 0001:00072bd0       ??1?$hashbase@U?$hashnameset@Ufont@@@@Ufont@@PBDU2@@@QAE@XZ 00473bd0 f i rendertext.obj
 0001:00072c60       ?growbuf@?$vector@Ucharinfo@font@@@@QAEXH@Z 00473c60 f i rendertext.obj
 0001:00072cf0       ??1chain@?$hashbase@U?$hashnameset@Ufont@@@@Ufont@@PBDU2@@@QAE@XZ 00473cf0 f i rendertext.obj
 0001:00072d30       ??$access@PBD@?$hashbase@U?$hashnameset@Ufont@@@@Ufont@@PBDU2@@@QAEPAUfont@@ABQBD@Z 00473d30 f i rendertext.obj
 0001:00072dc0       ?insert@?$hashbase@U?$hashnameset@Ufont@@@@Ufont@@PBDU2@@@QAEPAUchain@1@I@Z 00473dc0 f i rendertext.obj
 0001:00072f80       ??0chain@?$hashbase@U?$hashnameset@Ufont@@@@Ufont@@PBDU2@@@QAE@XZ 00473f80 f i rendertext.obj
 0001:00072ff0       ??1font@@QAE@XZ            00473ff0 f i rendertext.obj
 0001:00073080       ??0renderstate@@QAE@XZ     00474080 f i renderva.obj
 0001:00073170       ??0geombatch@@QAE@ABUelementset@@HPAUvtxarray@@@Z 00474170 f i renderva.obj
 0001:00073200       ??0decalbatch@@QAE@ABUelementset@@HPAUvtxarray@@@Z 00474200 f i renderva.obj
 0001:00073270       ?add@shadowverts@@QAEHABUvec@@@Z 00474270 f i renderva.obj
 0001:00073370       ??1?$hashbase@U?$hashtable@HUshadowmesh@@@@U?$hashtableentry@HUshadowmesh@@@@HUshadowmesh@@@@QAE@XZ 00474370 f i renderva.obj
 0001:000733f0       ?add@?$vector@Udecalbatch@@@@QAEAAUdecalbatch@@ABU2@@Z 004743f0 f i renderva.obj
 0001:000734e0       ?add@?$vector@Ugeombatch@@@@QAEAAUgeombatch@@ABU2@@Z 004744e0 f i renderva.obj
 0001:000735d0       ?insert@?$hashbase@U?$hashtable@HUshadowmesh@@@@U?$hashtableentry@HUshadowmesh@@@@HUshadowmesh@@@@QAEPAUchain@1@I@Z 004745d0 f i renderva.obj
 0001:00073790       ??9vec2@@QBE_NABU0@@Z      00474790 f i renderva.obj
 0001:000737c0       ??1?$hashbase@U?$hashnameset@UShader@@@@UShader@@PBDU2@@@QAE@XZ 004747c0 f i shader.obj
 0001:00073850       ??1?$hashbase@U?$hashnameset@UGlobalShaderParamState@@@@UGlobalShaderParamState@@PBDU2@@@QAE@XZ 00474850 f i shader.obj
 0001:000738d0       ?growbuf@?$vector@UUniformLoc@@@@QAEXH@Z 004748d0 f i shader.obj
 0001:00073960       ??1chain@?$hashbase@U?$hashnameset@UShader@@@@UShader@@PBDU2@@@QAE@XZ 00474960 f i shader.obj
 0001:000739a0       ??$access@PBD@?$hashbase@U?$hashnameset@UShader@@@@UShader@@PBDU2@@@QAEPAUShader@@ABQBD@Z 004749a0 f i shader.obj
 0001:00073a30       ??$access@PBD@?$hashbase@U?$hashnameset@UGlobalShaderParamState@@@@UGlobalShaderParamState@@PBDU2@@@QAEPAUGlobalShaderParamState@@ABQBD@Z 00474a30 f i shader.obj
 0001:00073ac0       ??$?APAD@?$hashbase@U?$hashnameset@UShader@@@@UShader@@PBDU2@@@QAEAAUShader@@ABQAD@Z 00474ac0 f i shader.obj
 0001:00073b50       ?insert@?$hashbase@U?$hashnameset@UShader@@@@UShader@@PBDU2@@@QAEPAUchain@1@I@Z 00474b50 f i shader.obj
 0001:00073d30       ?insert@?$hashbase@U?$hashtable@PBDH@@U?$hashtableentry@PBDH@@PBDH@@QAEPAUchain@1@I@Z 00474d30 f i shader.obj
 0001:00073ec0       ?insert@?$hashbase@U?$hashnameset@UGlobalShaderParamState@@@@UGlobalShaderParamState@@PBDU2@@@QAEPAUchain@1@I@Z 00474ec0 f i shader.obj
 0001:00074050       ??0chain@?$hashbase@U?$hashnameset@UShader@@@@UShader@@PBDU2@@@QAE@XZ 00475050 f i shader.obj
 0001:00074090       ??0Shader@@QAE@XZ          00475090 f i shader.obj
 0001:00074210       ??1Shader@@QAE@XZ          00475210 f i shader.obj
 0001:000743e0       ?addvariant@Shader@@QAEXHPAU1@@Z 004753e0 f i shader.obj
 0001:000745e0       ?getvariant@Shader@@QBEPAU1@HH@Z 004755e0 f i shader.obj
 0001:00074630       _fprintf                   00475630 f i shader.obj
 0001:00074650       ??1MatSlot@@UAE@XZ         00475650 f i texture.obj
 0001:000746d0       ??_EMatSlot@@UAEPAXI@Z     004756d0 f i * CIL library *:* CIL module *
 0001:000746d0       ??_GMatSlot@@UAEPAXI@Z     004756d0 f i texture.obj
 0001:00074760       ?add@?$vector@Uenvmap@@@@QAEAAUenvmap@@XZ 00475760 f i texture.obj
 0001:000748a0       ?deletecontents@?$vector@PAUDecalSlot@@@@QAEXH@Z 004758a0 f i texture.obj
 0001:000748e0       ??1?$hashbase@U?$hashnameset@UTexture@@@@UTexture@@PBDU2@@@QAE@XZ 004758e0 f i texture.obj
 0001:00074960       ??$?APAD@?$hashbase@U?$hashnameset@UTexture@@@@UTexture@@PBDU2@@@QAEAAUTexture@@ABQAD@Z 00475960 f i texture.obj
 0001:000749f0       ??$access@PAD@?$hashbase@U?$hashnameset@UTexture@@@@UTexture@@PBDU2@@@QAEPAUTexture@@ABQAD@Z 004759f0 f i texture.obj
 0001:00074a80       ?insert@?$hashbase@U?$hashnameset@UTexture@@@@UTexture@@PBDU2@@@QAEPAUchain@1@I@Z 00475a80 f i texture.obj
 0001:00074c50       ?emptyvslot@MatSlot@@UAEAAUVSlot@@XZ 00475c50 f i texture.obj
 0001:00074c50       ?emptyvslot@DecalSlot@@UAEAAUVSlot@@XZ 00475c50 f i texture.obj
 0001:00074c60       ??_EDecalSlot@@UAEPAXI@Z   00475c60 f i * CIL library *:* CIL module *
 0001:00074c60       ??_GDecalSlot@@UAEPAXI@Z   00475c60 f i texture.obj
 0001:00074cf0       ?cleanup@Slot@@QAEXXZ      00475cf0 f i texture.obj
 0001:00074d40       ??_ESlot@@UAEPAXI@Z        00475d40 f i * CIL library *:* CIL module *
 0001:00074d40       ??_GSlot@@UAEPAXI@Z        00475d40 f i texture.obj
 0001:00074d60       ?texturedir@DecalSlot@@UBEPBDXZ 00475d60 f i texture.obj
 0001:00074d70       ??0DecalSlot@@QAE@H@Z      00475d70 f i texture.obj
 0001:00074e40       ?reset@Slot@@QAEXXZ        00475e40 f i texture.obj
 0001:00074ea0       ??0Slot@@QAE@H@Z           00475ea0 f i texture.obj
 0001:00074f60       ?shouldpremul@Slot@@UBE_NH@Z 00475f60 f i texture.obj
 0001:00074f70       ??1Slot@@UAE@XZ            00475f70 f i texture.obj
 0001:00075000       ?texturedir@Slot@@UBEPBDXZ 00476000 f i texture.obj
 0001:00075010       ?wrap@ImageData@@QAEXPAUSDL_Surface@@@Z 00476010 f i texture.obj
 0001:000750a0       ?replace@ImageData@@QAEXAAU1@@Z 004760a0 f i texture.obj
 0001:00075120       ??0editline@@QAE@PBD@Z     00476120 f i ui.obj
 0001:00075180       ?grow@editline@@QAA_NHPBDZZ 00476180 f i ui.obj
 0001:00075210       ?append@editline@@QAEXPBD@Z 00476210 f i ui.obj
 0001:00075270       ?del@editline@@QAEXHH@Z    00476270 f i ui.obj
 0001:000752d0       ?insert@editline@@QAEXPADHH@Z 004762d0 f i ui.obj
 0001:00075350       ?combinelines@editline@@QAEXAAU?$vector@Ueditline@@@@@Z 00476350 f i ui.obj
 0001:000754f0       ??0editor@@QAE@PBDH0@Z     004764f0 f i ui.obj
 0001:000756e0       ?clear@editor@@QAEXPBD@Z   004766e0 f i ui.obj
 0001:00075860       ?setfile@editor@@QAEXPBD@Z 00476860 f i ui.obj
 0001:000758c0       ?load@editor@@QAEXXZ       004768c0 f i ui.obj
 0001:00075b10       ?region@editor@@QAE_NAAH000@Z 00476b10 f i ui.obj
 0001:00075c10       ?currentline@editor@@QAEAAUeditline@@XZ 00476c10 f i ui.obj
 0001:00075c60       ?copyselectionto@editor@@QAEXPAU1@@Z 00476c60 f i ui.obj
 0001:00075e60       ?selectiontostring@editor@@QAEPADXZ 00476e60 f i ui.obj
 0001:00076150       ?removelines@editor@@QAEXHH@Z 00477150 f i ui.obj
 0001:000761f0       ?del@editor@@QAE_NXZ       004771f0 f i ui.obj
 0001:000763a0       ?insert@editor@@QAEXD@Z    004773a0 f i ui.obj
 0001:000764d0       ?insert@editor@@QAEXPBD@Z  004774d0 f i ui.obj
 0001:000766c0       ?insertallfrom@editor@@QAEXPAU1@@Z 004776c0 f i ui.obj
 0001:000768f0       ?key@editor@@QAEXH@Z       004778f0 f i ui.obj
 0001:00076dd0       ?input@editor@@QAEXPBDH@Z  00477dd0 f i ui.obj
 0001:00076fc0       ?draw@editor@@QAEXHHH_N@Z  00477fc0 f i ui.obj
 0001:00077b60       ??1Object@UI@@UAE@XZ       00478b60 f i ui.obj
 0001:00077be0       ?childalign@Object@UI@@UBEEXZ 00478be0 f i ui.obj
 0001:00077bf0       ?layout@Object@UI@@UAEXXZ  00478bf0 f i ui.obj
 0001:00077c60       ?adjustchildrento@Object@UI@@QAEXMMMM@Z 00478c60 f i ui.obj
 0001:00077dd0       ?adjustchildren@Object@UI@@UAEXXZ 00478dd0 f i ui.obj
 0001:00077df0       ?adjustlayout@Object@UI@@QAEXMMMM@Z 00478df0 f i ui.obj
 0001:00077f00       ?aicheck@clientmode@game@@UAE_NPAUgameent@@AAUaistate@ai@@@Z 00478f00 f i client1.obj
 0001:00077f00       ?aipursue@clientmode@game@@UAE_NPAUgameent@@AAUaistate@ai@@@Z 00478f00 f i client1.obj
 0001:00077f00       ?extinfoteam@servmode@server@@UAE_NHAAU?$databuf@E@@@Z 00478f00 f i server1.obj
 0001:00077f00       ?aidefend@clientmode@game@@UAE_NPAUgameent@@AAUaistate@ai@@@Z 00478f00 f i client1.obj
 0001:00077f00       ?target@Object@UI@@UAE_NMM@Z 00478f00 f i ui.obj
 0001:00077f10       ?rawkey@Object@UI@@UAE_NH_N@Z 00478f10 f i ui.obj
 0001:00077f50       ?key@Object@UI@@UAE_NH_N@Z 00478f50 f i ui.obj
 0001:00077f90       ?textinput@Object@UI@@UAE_NPBDH@Z 00478f90 f i ui.obj
 0001:00077fd0       ?enddraw@Object@UI@@QAEXH@Z 00478fd0 f i ui.obj
 0001:00078090       ?changedraw@Object@UI@@QAEXH@Z 00479090 f i ui.obj
 0001:00078100       ?draw@Object@UI@@UAEXMM@Z  00479100 f i ui.obj
 0001:000781d0       ?resetchildstate@Object@UI@@QAEXXZ 004791d0 f i ui.obj
 0001:00078210       ?setstate@Object@UI@@QAE_NHMMH_NH@Z 00479210 f i ui.obj
 0001:00078560       ?clearstate@Object@UI@@QAEXH@Z 00479560 f i ui.obj
 0001:000785c0       ?hoverchildren@Object@UI@@UAEXMMH_NH@Z 004795c0 f i ui.obj
 0001:00078700       ?presschildren@Object@UI@@UAEXMMH_NH@Z 00479700 f i ui.obj
 0001:00078840       ?holdchildren@Object@UI@@UAEXMMH_NH@Z 00479840 f i ui.obj
 0001:00078980       ?releasechildren@Object@UI@@UAEXMMH_NH@Z 00479980 f i ui.obj
 0001:00078ac0       ?altholdchildren@Object@UI@@UAEXMMH_NH@Z 00479ac0 f i ui.obj
 0001:00078c00       ?altpresschildren@Object@UI@@UAEXMMH_NH@Z 00479c00 f i ui.obj
 0001:00078d40       ?altreleasechildren@Object@UI@@UAEXMMH_NH@Z 00479d40 f i ui.obj
 0001:00078e80       ?escholdchildren@Object@UI@@UAEXMMH_NH@Z 00479e80 f i ui.obj
 0001:00078fc0       ?escpresschildren@Object@UI@@UAEXMMH_NH@Z 00479fc0 f i ui.obj
 0001:00079100       ?escreleasechildren@Object@UI@@UAEXMMH_NH@Z 0047a100 f i ui.obj
 0001:00079240       ?scrollupchildren@Object@UI@@UAEXMMH_NH@Z 0047a240 f i ui.obj
 0001:00079380       ?scrolldownchildren@Object@UI@@UAEXMMH_NH@Z 0047a380 f i ui.obj
 0001:000794c0       ?gettype@Object@UI@@UBEPBDXZ 0047a4c0 f i ui.obj
 0001:000794d0       ?getname@Object@UI@@UBEPBDXZ 0047a4d0 f i ui.obj
 0001:000794d0       ?gettypename@Object@UI@@UBEPBDXZ 0047a4d0 f i ui.obj
 0001:000794e0       ?find@Object@UI@@QBEPAU12@PBD_NPBU12@@Z 0047a4e0 f i ui.obj
 0001:000795b0       ?findsibling@Object@UI@@QBEPAU12@PBD@Z 0047a5b0 f i ui.obj
 0001:000796a0       ?buildchildren@Object@UI@@QAEXPAI@Z 0047a6a0 f i ui.obj
 0001:00079750       ?childcolumns@Object@UI@@UBEHXZ 0047a750 f i ui.obj
 0001:00079760       ??_GObject@UI@@UAEPAXI@Z   0047a760 f i ui.obj
 0001:00079760       ??_EObject@UI@@UAEPAXI@Z   0047a760 f i * CIL library *:* CIL module *
 0001:00079780       ?gettype@Window@UI@@UBEPBDXZ 0047a780 f i ui.obj
 0001:00079790       ?childcolumns@TableHeader@UI@@UBEHXZ 0047a790 f i ui.obj
 0001:00079790       ?getname@Window@UI@@UBEPBDXZ 0047a790 f i ui.obj
 0001:000797a0       ?layout@Window@UI@@UAEXXZ  0047a7a0 f i ui.obj
 0001:000797d0       ?draw@Window@UI@@UAEXMM@Z  0047a7d0 f i ui.obj
 0001:00079990       ?adjustchildren@Window@UI@@UAEXXZ 0047a990 f i ui.obj
 0001:000799d0       ?hoverchildren@Window@UI@@UAEXMMH_NH@Z 0047a9d0 f i ui.obj
 0001:00079a70       ?presschildren@Window@UI@@UAEXMMH_NH@Z 0047aa70 f i ui.obj
 0001:00079b10       ?holdchildren@Window@UI@@UAEXMMH_NH@Z 0047ab10 f i ui.obj
 0001:00079bb0       ?releasechildren@Window@UI@@UAEXMMH_NH@Z 0047abb0 f i ui.obj
 0001:00079c50       ?altholdchildren@Window@UI@@UAEXMMH_NH@Z 0047ac50 f i ui.obj
 0001:00079cf0       ?altpresschildren@Window@UI@@UAEXMMH_NH@Z 0047acf0 f i ui.obj
 0001:00079d90       ?altreleasechildren@Window@UI@@UAEXMMH_NH@Z 0047ad90 f i ui.obj
 0001:00079e30       ?escholdchildren@Window@UI@@UAEXMMH_NH@Z 0047ae30 f i ui.obj
 0001:00079ed0       ?escpresschildren@Window@UI@@UAEXMMH_NH@Z 0047aed0 f i ui.obj
 0001:00079f70       ?escreleasechildren@Window@UI@@UAEXMMH_NH@Z 0047af70 f i ui.obj
 0001:0007a010       ?scrollupchildren@Window@UI@@UAEXMMH_NH@Z 0047b010 f i ui.obj
 0001:0007a0b0       ?scrolldownchildren@Window@UI@@UAEXMMH_NH@Z 0047b0b0 f i ui.obj
 0001:0007a150       ?calcscissor@Window@UI@@QAEXMMMMAAH000_N@Z 0047b150 f i ui.obj
 0001:0007a3b0       ??_EWindow@UI@@UAEPAXI@Z   0047b3b0 f i * CIL library *:* CIL module *
 0001:0007a3b0       ??_GWindow@UI@@UAEPAXI@Z   0047b3b0 f i ui.obj
 0001:0007a440       ?gettype@World@UI@@UBEPBDXZ 0047b440 f i ui.obj
 0001:0007a450       ?adjustchildren@World@UI@@UAEXXZ 0047b450 f i ui.obj
 0001:0007a4d0       ?hoverchildren@World@UI@@UAEXMMH_NH@Z 0047b4d0 f i ui.obj
 0001:0007a550       ?presschildren@World@UI@@UAEXMMH_NH@Z 0047b550 f i ui.obj
 0001:0007a5d0       ?holdchildren@World@UI@@UAEXMMH_NH@Z 0047b5d0 f i ui.obj
 0001:0007a650       ?releasechildren@World@UI@@UAEXMMH_NH@Z 0047b650 f i ui.obj
 0001:0007a6d0       ?altholdchildren@World@UI@@UAEXMMH_NH@Z 0047b6d0 f i ui.obj
 0001:0007a750       ?altpresschildren@World@UI@@UAEXMMH_NH@Z 0047b750 f i ui.obj
 0001:0007a7d0       ?altreleasechildren@World@UI@@UAEXMMH_NH@Z 0047b7d0 f i ui.obj
 0001:0007a850       ?escholdchildren@World@UI@@UAEXMMH_NH@Z 0047b850 f i ui.obj
 0001:0007a8d0       ?escpresschildren@World@UI@@UAEXMMH_NH@Z 0047b8d0 f i ui.obj
 0001:0007a950       ?escreleasechildren@World@UI@@UAEXMMH_NH@Z 0047b950 f i ui.obj
 0001:0007a9d0       ?scrollupchildren@World@UI@@UAEXMMH_NH@Z 0047b9d0 f i ui.obj
 0001:0007aa50       ?scrolldownchildren@World@UI@@UAEXMMH_NH@Z 0047ba50 f i ui.obj
 0001:0007aad0       ?hide@World@UI@@QAEXPAUWindow@2@H@Z 0047bad0 f i ui.obj
 0001:0007ab40       ?hide@World@UI@@QAE_NPAUWindow@2@@Z 0047bb40 f i ui.obj
 0001:0007ab80       ?hideall@World@UI@@QAEHXZ  0047bb80 f i ui.obj
 0001:0007ac30       ?allowinput@World@UI@@QBE_NXZ 0047bc30 f i ui.obj
 0001:0007ac70       ?gettype@HorizontalList@UI@@UBEPBDXZ 0047bc70 f i ui.obj
 0001:0007ac80       ?childalign@HorizontalList@UI@@UBEEXZ 0047bc80 f i ui.obj
 0001:0007ac90       ?layout@HorizontalList@UI@@UAEXXZ 0047bc90 f i ui.obj
 0001:0007ad20       ?adjustchildren@HorizontalList@UI@@UAEXXZ 0047bd20 f i ui.obj
 0001:0007aef0       ?gettype@VerticalList@UI@@UBEPBDXZ 0047bef0 f i ui.obj
 0001:0007af00       ?childalign@VerticalList@UI@@UBEEXZ 0047bf00 f i ui.obj
 0001:0007af10       ?layout@VerticalList@UI@@UAEXXZ 0047bf10 f i ui.obj
 0001:0007afa0       ?adjustchildren@VerticalList@UI@@UAEXXZ 0047bfa0 f i ui.obj
 0001:0007b170       ?gettype@Grid@UI@@UBEPBDXZ 0047c170 f i ui.obj
 0001:0007b180       ?layout@Grid@UI@@UAEXXZ    0047c180 f i ui.obj
 0001:0007b410       ?adjustchildren@Grid@UI@@UAEXXZ 0047c410 f i ui.obj
 0001:0007b6c0       ?gettype@TableHeader@UI@@UBEPBDXZ 0047c6c0 f i ui.obj
 0001:0007b6d0       ?childalign@TableHeader@UI@@UBEEXZ 0047c6d0 f i ui.obj
 0001:0007b6e0       ?adjustchildren@TableHeader@UI@@UAEXXZ 0047c6e0 f i ui.obj
 0001:0007b810       ?draw@TableHeader@UI@@UAEXMM@Z 0047c810 f i ui.obj
 0001:0007b990       ??_ETableHeader@UI@@UAEPAXI@Z 0047c990 f i * CIL library *:* CIL module *
 0001:0007b990       ??_EScrollArrow@UI@@UAEPAXI@Z 0047c990 f i * CIL library *:* CIL module *
 0001:0007b990       ??_EFont@UI@@UAEPAXI@Z     0047c990 f i * CIL library *:* CIL module *
 0001:0007b990       ??_GFont@UI@@UAEPAXI@Z     0047c990 f i ui.obj
 0001:0007b990       ??_GScrollArrow@UI@@UAEPAXI@Z 0047c990 f i ui.obj
 0001:0007b990       ??_GTableHeader@UI@@UAEPAXI@Z 0047c990 f i ui.obj
 0001:0007b9e0       ??1TableHeader@UI@@UAE@XZ  0047c9e0 f i ui.obj
 0001:0007b9e0       ??1Clipper@UI@@UAE@XZ      0047c9e0 f i ui.obj
 0001:0007b9e0       ??1ScrollBar@UI@@UAE@XZ    0047c9e0 f i ui.obj
 0001:0007b9e0       ??1Filler@UI@@UAE@XZ       0047c9e0 f i ui.obj
 0001:0007b9e0       ??1Slider@UI@@UAE@XZ       0047c9e0 f i ui.obj
 0001:0007b9e0       ??1Text@UI@@UAE@XZ         0047c9e0 f i ui.obj
 0001:0007ba20       ?gettype@TableRow@UI@@UBEPBDXZ 0047ca20 f i ui.obj
 0001:0007ba30       ?target@Slider@UI@@UAE_NMM@Z 0047ca30 f i ui.obj
 0001:0007ba30       ?target@TextEditor@UI@@UAE_NMM@Z 0047ca30 f i ui.obj
 0001:0007ba30       ?target@TableRow@UI@@UAE_NMM@Z 0047ca30 f i ui.obj
 0001:0007ba30       ?target@Target@UI@@UAE_NMM@Z 0047ca30 f i ui.obj
 0001:0007ba30       ?canspawn@servmode@server@@UAE_NPAUclientinfo@2@_N@Z 0047ca30 f i server1.obj
 0001:0007ba30       ?target@ScrollBar@UI@@UAE_NMM@Z 0047ca30 f i ui.obj
 0001:0007ba40       ?gettype@Table@UI@@UBEPBDXZ 0047ca40 f i ui.obj
 0001:0007ba50       ?layout@Table@UI@@UAEXXZ   0047ca50 f i ui.obj
 0001:0007bc40       ?adjustchildren@Table@UI@@UAEXXZ 0047cc40 f i ui.obj
 0001:0007bfe0       ?gettype@Spacer@UI@@UBEPBDXZ 0047cfe0 f i ui.obj
 0001:0007bff0       ?layout@Spacer@UI@@UAEXXZ  0047cff0 f i ui.obj
 0001:0007c080       ?adjustchildren@Spacer@UI@@UAEXXZ 0047d080 f i ui.obj
 0001:0007c0c0       ?gettype@Offsetter@UI@@UBEPBDXZ 0047d0c0 f i ui.obj
 0001:0007c0d0       ?layout@Offsetter@UI@@UAEXXZ 0047d0d0 f i ui.obj
 0001:0007c130       ?adjustchildren@Offsetter@UI@@UAEXXZ 0047d130 f i ui.obj
 0001:0007c160       ?gettype@Filler@UI@@UBEPBDXZ 0047d160 f i ui.obj
 0001:0007c170       ?layout@Filler@UI@@UAEXXZ  0047d170 f i ui.obj
 0001:0007c1a0       ?gettype@Target@UI@@UBEPBDXZ 0047d1a0 f i ui.obj
 0001:0007c1b0       ?gettype@FillColor@UI@@UBEPBDXZ 0047d1b0 f i ui.obj
 0001:0007c1c0       ?startdraw@FillColor@UI@@UAEXXZ 0047d1c0 f i ui.obj
 0001:0007c1c0       ?startdraw@Shape@UI@@UAEXXZ 0047d1c0 f i ui.obj
 0001:0007c1c0       ?startdraw@Outline@UI@@UAEXXZ 0047d1c0 f i ui.obj
 0001:0007c1c0       ?startdraw@Line@UI@@UAEXXZ 0047d1c0 f i ui.obj
 0001:0007c210       ?draw@FillColor@UI@@UAEXMM@Z 0047d210 f i ui.obj
 0001:0007c3c0       ?gettype@Gradient@UI@@UBEPBDXZ 0047d3c0 f i ui.obj
 0001:0007c3d0       ?startdraw@Gradient@UI@@UAEXXZ 0047d3d0 f i ui.obj
 0001:0007c430       ?draw@Gradient@UI@@UAEXMM@Z 0047d430 f i ui.obj
 0001:0007c740       ?gettype@Line@UI@@UBEPBDXZ 0047d740 f i ui.obj
 0001:0007c750       ?draw@Line@UI@@UAEXMM@Z    0047d750 f i ui.obj
 0001:0007c840       ?gettype@Outline@UI@@UBEPBDXZ 0047d840 f i ui.obj
 0001:0007c850       ?draw@Outline@UI@@UAEXMM@Z 0047d850 f i ui.obj
 0001:0007c9c0       ?gettype@Image@UI@@UBEPBDXZ 0047d9c0 f i ui.obj
 0001:0007c9d0       ?target@Image@UI@@UAE_NMM@Z 0047d9d0 f i ui.obj
 0001:0007ca10       ?startdraw@Image@UI@@UAEXXZ 0047da10 f i ui.obj
 0001:0007ca50       ?enddraw@Image@UI@@UAEXXZ  0047da50 f i ui.obj
 0001:0007ca60       ?draw@Image@UI@@UAEXMM@Z   0047da60 f i ui.obj
 0001:0007cb10       ?gettype@CroppedImage@UI@@UBEPBDXZ 0047db10 f i ui.obj
 0001:0007cb20       ?target@CroppedImage@UI@@UAE_NMM@Z 0047db20 f i ui.obj
 0001:0007cb70       ?draw@CroppedImage@UI@@UAEXMM@Z 0047db70 f i ui.obj
 0001:0007cc00       ?gettype@StretchedImage@UI@@UBEPBDXZ 0047dc00 f i ui.obj
 0001:0007cc10       ?target@StretchedImage@UI@@UAE_NMM@Z 0047dc10 f i ui.obj
 0001:0007ccf0       ?draw@StretchedImage@UI@@UAEXMM@Z 0047dcf0 f i ui.obj
 0001:0007cfe0       ?gettype@BorderedImage@UI@@UBEPBDXZ 0047dfe0 f i ui.obj
 0001:0007cff0       ?target@BorderedImage@UI@@UAE_NMM@Z 0047dff0 f i ui.obj
 0001:0007d100       ?draw@BorderedImage@UI@@UAEXMM@Z 0047e100 f i ui.obj
 0001:0007d320       ?gettype@TiledImage@UI@@UBEPBDXZ 0047e320 f i ui.obj
 0001:0007d330       ?target@TiledImage@UI@@UAE_NMM@Z 0047e330 f i ui.obj
 0001:0007d3c0       ?draw@TiledImage@UI@@UAEXMM@Z 0047e3c0 f i ui.obj
 0001:0007d5a0       ?gettype@Triangle@UI@@UBEPBDXZ 0047e5a0 f i ui.obj
 0001:0007d5b0       ?target@Triangle@UI@@UAE_NMM@Z 0047e5b0 f i ui.obj
 0001:0007d6d0       ?draw@Triangle@UI@@UAEXMM@Z 0047e6d0 f i ui.obj
 0001:0007d860       ?gettype@Circle@UI@@UBEPBDXZ 0047e860 f i ui.obj
 0001:0007d870       ?target@Circle@UI@@UAE_NMM@Z 0047e870 f i ui.obj
 0001:0007d8d0       ?draw@Circle@UI@@UAEXMM@Z  0047e8d0 f i ui.obj
 0001:0007dbe0       ?gettype@Text@UI@@UBEPBDXZ 0047ebe0 f i ui.obj
 0001:0007dbf0       ?getstr@Text@UI@@UBEPBDXZ  0047ebf0 f i ui.obj
 0001:0007dc00       ?draw@Text@UI@@UAEXMM@Z    0047ec00 f i ui.obj
 0001:0007dce0       ?layout@Text@UI@@UAEXXZ    0047ece0 f i ui.obj
 0001:0007dd80       ??0TextString@UI@@QAE@XZ   0047ed80 f i ui.obj
 0001:0007ddf0       ?gettype@TextString@UI@@UBEPBDXZ 0047edf0 f i ui.obj
 0001:0007de00       ?getstr@TextString@UI@@UBEPBDXZ 0047ee00 f i ui.obj
 0001:0007de10       ??_GTextString@UI@@UAEPAXI@Z 0047ee10 f i ui.obj
 0001:0007de10       ??_ETextString@UI@@UAEPAXI@Z 0047ee10 f i * CIL library *:* CIL module *
 0001:0007de80       ??_GText@UI@@UAEPAXI@Z     0047ee80 f i ui.obj
 0001:0007de80       ??_EText@UI@@UAEPAXI@Z     0047ee80 f i * CIL library *:* CIL module *
 0001:0007ded0       ??0TextInt@UI@@QAE@XZ      0047eed0 f i ui.obj
 0001:0007df40       ?gettype@TextInt@UI@@UBEPBDXZ 0047ef40 f i ui.obj
 0001:0007df50       ?getstr@TextFloat@UI@@UBEPBDXZ 0047ef50 f i ui.obj
 0001:0007df50       ?getstr@TextInt@UI@@UBEPBDXZ 0047ef50 f i ui.obj
 0001:0007df60       ??_ETextInt@UI@@UAEPAXI@Z  0047ef60 f i * CIL library *:* CIL module *
 0001:0007df60       ??_GTextInt@UI@@UAEPAXI@Z  0047ef60 f i ui.obj
 0001:0007df60       ??_ETextFloat@UI@@UAEPAXI@Z 0047ef60 f i * CIL library *:* CIL module *
 0001:0007df60       ??_GTextFloat@UI@@UAEPAXI@Z 0047ef60 f i ui.obj
 0001:0007dfb0       ??0TextFloat@UI@@QAE@XZ    0047efb0 f i ui.obj
 0001:0007e020       ?gettype@TextFloat@UI@@UBEPBDXZ 0047f020 f i ui.obj
 0001:0007e030       ?layout@Font@UI@@UAEXXZ    0047f030 f i ui.obj
 0001:0007e080       ?draw@Font@UI@@UAEXMM@Z    0047f080 f i ui.obj
 0001:0007e0e0       ?hoverchildren@Font@UI@@UAEXMMH_NH@Z 0047f0e0 f i ui.obj
 0001:0007e150       ?presschildren@Font@UI@@UAEXMMH_NH@Z 0047f150 f i ui.obj
 0001:0007e1c0       ?holdchildren@Font@UI@@UAEXMMH_NH@Z 0047f1c0 f i ui.obj
 0001:0007e230       ?releasechildren@Font@UI@@UAEXMMH_NH@Z 0047f230 f i ui.obj
 0001:0007e2a0       ?altholdchildren@Font@UI@@UAEXMMH_NH@Z 0047f2a0 f i ui.obj
 0001:0007e310       ?altpresschildren@Font@UI@@UAEXMMH_NH@Z 0047f310 f i ui.obj
 0001:0007e380       ?altreleasechildren@Font@UI@@UAEXMMH_NH@Z 0047f380 f i ui.obj
 0001:0007e3f0       ?escholdchildren@Font@UI@@UAEXMMH_NH@Z 0047f3f0 f i ui.obj
 0001:0007e460       ?escpresschildren@Font@UI@@UAEXMMH_NH@Z 0047f460 f i ui.obj
 0001:0007e4d0       ?escreleasechildren@Font@UI@@UAEXMMH_NH@Z 0047f4d0 f i ui.obj
 0001:0007e540       ?scrollupchildren@Font@UI@@UAEXMMH_NH@Z 0047f540 f i ui.obj
 0001:0007e5b0       ?scrolldownchildren@Font@UI@@UAEXMMH_NH@Z 0047f5b0 f i ui.obj
 0001:0007e620       ?rawkey@Font@UI@@UAE_NH_N@Z 0047f620 f i ui.obj
 0001:0007e670       ?key@Font@UI@@UAE_NH_N@Z   0047f670 f i ui.obj
 0001:0007e6c0       ?textinput@Font@UI@@UAE_NPBDH@Z 0047f6c0 f i ui.obj
 0001:0007e710       ?gettype@Console@UI@@UBEPBDXZ 0047f710 f i ui.obj
 0001:0007e720       ?draw@Console@UI@@UAEXMM@Z 0047f720 f i ui.obj
 0001:0007e830       ?gettype@Clipper@UI@@UBEPBDXZ 0047f830 f i ui.obj
 0001:0007e840       ?layout@Clipper@UI@@UAEXXZ 0047f840 f i ui.obj
 0001:0007e890       ?adjustchildren@Clipper@UI@@UAEXXZ 0047f890 f i ui.obj
 0001:0007e8b0       ?draw@Clipper@UI@@UAEXMM@Z 0047f8b0 f i ui.obj
 0001:0007e990       ?gettype@Scroller@UI@@UBEPBDXZ 0047f990 f i ui.obj
 0001:0007e9a0       ?layout@Scroller@UI@@UAEXXZ 0047f9a0 f i ui.obj
 0001:0007ea20       ?hoverchildren@Scroller@UI@@UAEXMMH_NH@Z 0047fa20 f i ui.obj
 0001:0007ea70       ?presschildren@Scroller@UI@@UAEXMMH_NH@Z 0047fa70 f i ui.obj
 0001:0007eac0       ?holdchildren@Scroller@UI@@UAEXMMH_NH@Z 0047fac0 f i ui.obj
 0001:0007eb10       ?releasechildren@Scroller@UI@@UAEXMMH_NH@Z 0047fb10 f i ui.obj
 0001:0007eb60       ?altholdchildren@Scroller@UI@@UAEXMMH_NH@Z 0047fb60 f i ui.obj
 0001:0007ebb0       ?altpresschildren@Scroller@UI@@UAEXMMH_NH@Z 0047fbb0 f i ui.obj
 0001:0007ec00       ?altreleasechildren@Scroller@UI@@UAEXMMH_NH@Z 0047fc00 f i ui.obj
 0001:0007ec50       ?escholdchildren@Scroller@UI@@UAEXMMH_NH@Z 0047fc50 f i ui.obj
 0001:0007eca0       ?escpresschildren@Scroller@UI@@UAEXMMH_NH@Z 0047fca0 f i ui.obj
 0001:0007ecf0       ?escreleasechildren@Scroller@UI@@UAEXMMH_NH@Z 0047fcf0 f i ui.obj
 0001:0007ed40       ?scrollupchildren@Scroller@UI@@UAEXMMH_NH@Z 0047fd40 f i ui.obj
 0001:0007ed90       ?scrolldownchildren@Scroller@UI@@UAEXMMH_NH@Z 0047fd90 f i ui.obj
 0001:0007ede0       ?draw@Scroller@UI@@UAEXMM@Z 0047fde0 f i ui.obj
 0001:0007eed0       ??_GScroller@UI@@UAEPAXI@Z 0047fed0 f i ui.obj
 0001:0007eed0       ??_EScroller@UI@@UAEPAXI@Z 0047fed0 f i * CIL library *:* CIL module *
 0001:0007ef20       ??_EClipper@UI@@UAEPAXI@Z  0047ff20 f i * CIL library *:* CIL module *
 0001:0007ef20       ??_GClipper@UI@@UAEPAXI@Z  0047ff20 f i ui.obj
 0001:0007ef70       ?gettype@ScrollButton@UI@@UBEPBDXZ 0047ff70 f i ui.obj
 0001:0007ef80       ?gettypename@ScrollBar@UI@@UBEPBDXZ 0047ff80 f i ui.obj
 0001:0007ef90       ?hold@ScrollBar@UI@@UAEXMM@Z 0047ff90 f i ui.obj
 0001:0007f030       ?press@ScrollBar@UI@@UAEXMM@Z 00480030 f i ui.obj
 0001:0007f0d0       ?scrollup@ScrollBar@UI@@UAEXMM@Z 004800d0 f i ui.obj
 0001:0007f150       ?scrolldown@ScrollBar@UI@@UAEXMM@Z 00480150 f i ui.obj
 0001:0007f1d0       ?gettype@ScrollArrow@UI@@UBEPBDXZ 004801d0 f i ui.obj
 0001:0007f1e0       ?hold@ScrollArrow@UI@@UAEXMM@Z 004801e0 f i ui.obj
 0001:0007f240       ?gettype@HorizontalScrollBar@UI@@UBEPBDXZ 00480240 f i ui.obj
 0001:0007f250       ?addscroll@HorizontalScrollBar@UI@@UAEXPAUScroller@2@M@Z 00480250 f i ui.obj
 0001:0007f280       ?scrollto@HorizontalScrollBar@UI@@UAEXMM_N@Z 00480280 f i ui.obj
 0001:0007f360       ?adjustchildren@HorizontalScrollBar@UI@@UAEXXZ 00480360 f i ui.obj
 0001:0007f440       ?movebutton@HorizontalScrollBar@UI@@UAEXPAUObject@2@MMMM@Z 00480440 f i ui.obj
 0001:0007f480       ?gettype@VerticalScrollBar@UI@@UBEPBDXZ 00480480 f i ui.obj
 0001:0007f490       ?addscroll@VerticalScrollBar@UI@@UAEXPAUScroller@2@M@Z 00480490 f i ui.obj
 0001:0007f4c0       ?scrollto@VerticalScrollBar@UI@@UAEXMM_N@Z 004804c0 f i ui.obj
 0001:0007f5a0       ?adjustchildren@VerticalScrollBar@UI@@UAEXXZ 004805a0 f i ui.obj
 0001:0007f680       ?movebutton@VerticalScrollBar@UI@@UAEXPAUObject@2@MMMM@Z 00480680 f i ui.obj
 0001:0007f6c0       ?wheelscrolldirection@VerticalScrollBar@UI@@UBEHXZ 004806c0 f i ui.obj
 0001:0007f6c0       ?wheelscrolldirection@VerticalSlider@UI@@UBEHXZ 004806c0 f i ui.obj
 0001:0007f6d0       ?gettype@SliderButton@UI@@UBEPBDXZ 004806d0 f i ui.obj
 0001:0007f6e0       ?setup@Slider@UI@@QAEXPAUident@@NNNPAI@Z 004806e0 f i ui.obj
 0001:0007f9f0       ?gettypename@Slider@UI@@UBEPBDXZ 004809f0 f i ui.obj
 0001:0007fa00       ?arrowscroll@Slider@UI@@QAEXN@Z 00480a00 f i ui.obj
 0001:0007fab0       ?scrollup@Slider@UI@@UAEXMM@Z 00480ab0 f i ui.obj
 0001:0007fba0       ?scrolldown@Slider@UI@@UAEXMM@Z 00480ba0 f i ui.obj
 0001:0007fc80       ?hold@Slider@UI@@UAEXMM@Z  00480c80 f i ui.obj
 0001:0007fcb0       ?gettype@SliderArrow@UI@@UBEPBDXZ 00480cb0 f i ui.obj
 0001:0007fcc0       ?press@SliderArrow@UI@@UAEXMM@Z 00480cc0 f i ui.obj
 0001:0007fd90       ?hold@SliderArrow@UI@@UAEXMM@Z 00480d90 f i ui.obj
 0001:0007fde0       ??_GSliderArrow@UI@@UAEPAXI@Z 00480de0 f i ui.obj
 0001:0007fde0       ??_ESliderArrow@UI@@UAEPAXI@Z 00480de0 f i * CIL library *:* CIL module *
 0001:0007fe30       ?gettype@HorizontalSlider@UI@@UBEPBDXZ 00480e30 f i ui.obj
 0001:0007fe40       ?scrollto@HorizontalSlider@UI@@UAEXMM@Z 00480e40 f i ui.obj
 0001:0007ff20       ?adjustchildren@HorizontalSlider@UI@@UAEXXZ 00480f20 f i ui.obj
 0001:0007fff0       ?gettype@VerticalSlider@UI@@UBEPBDXZ 00480ff0 f i ui.obj
 0001:00080000       ?scrollto@VerticalSlider@UI@@UAEXMM@Z 00481000 f i ui.obj
 0001:000800e0       ?adjustchildren@VerticalSlider@UI@@UAEXXZ 004810e0 f i ui.obj
 0001:000801b0       ?setup@TextEditor@UI@@QAEXPBDHHM0H0@Z 004811b0 f i ui.obj
 0001:00080380       ??1TextEditor@UI@@UAE@XZ   00481380 f i ui.obj
 0001:00080420       ?gettype@TextEditor@UI@@UBEPBDXZ 00481420 f i ui.obj
 0001:00080430       ?draw@TextEditor@UI@@UAEXMM@Z 00481430 f i ui.obj
 0001:00080510       ?layout@TextEditor@UI@@UAEXXZ 00481510 f i ui.obj
 0001:00080570       ?resetmark@TextEditor@UI@@UAEXMM@Z 00481570 f i ui.obj
 0001:000805a0       ?press@TextEditor@UI@@UAEXMM@Z 004815a0 f i ui.obj
 0001:00080640       ?hold@TextEditor@UI@@UAEXMM@Z 00481640 f i ui.obj
 0001:00080880       ?scrollup@TextEditor@UI@@UAEXMM@Z 00481880 f i ui.obj
 0001:00080890       ?scrolldown@TextEditor@UI@@UAEXMM@Z 00481890 f i ui.obj
 0001:000808a0       ?commit@TextEditor@UI@@UAEXXZ 004818a0 f i ui.obj
 0001:000808a0       ?cancel@TextEditor@UI@@UAEXXZ 004818a0 f i ui.obj
 0001:000808e0       ?key@TextEditor@UI@@UAE_NH_N@Z 004818e0 f i ui.obj
 0001:00080970       ?textinput@TextEditor@UI@@UAE_NPBDH@Z 00481970 f i ui.obj
 0001:00080a10       ??_ETextEditor@UI@@UAEPAXI@Z 00481a10 f i * CIL library *:* CIL module *
 0001:00080a10       ??_GTextEditor@UI@@UAEPAXI@Z 00481a10 f i ui.obj
 0001:00080a30       ?setup@Field@UI@@QAEXPAUident@@HPAIMPBD@Z 00481a30 f i ui.obj
 0001:00080c40       ?gettype@Field@UI@@UBEPBDXZ 00481c40 f i ui.obj
 0001:00080c50       ?commit@Field@UI@@UAEXXZ   00481c50 f i ui.obj
 0001:00080c90       ?cancel@Field@UI@@UAEXXZ   00481c90 f i ui.obj
 0001:00080cd0       ??_EField@UI@@UAEPAXI@Z    00481cd0 f i * CIL library *:* CIL module *
 0001:00080cd0       ??_GField@UI@@UAEPAXI@Z    00481cd0 f i ui.obj
 0001:00080d20       ??1Field@UI@@UAE@XZ        00481d20 f i ui.obj
 0001:00080d60       ?gettype@KeyField@UI@@UBEPBDXZ 00481d60 f i ui.obj
 0001:00080d70       ?resetmark@KeyField@UI@@UAEXMM@Z 00481d70 f i ui.obj
 0001:00080db0       ?rawkey@KeyField@UI@@UAE_NH_N@Z 00481db0 f i ui.obj
 0001:00080e60       ?startdraw@Preview@UI@@UAEXXZ 00481e60 f i ui.obj
 0001:00080e80       ?enddraw@Preview@UI@@UAEXXZ 00481e80 f i ui.obj
 0001:00080ea0       ??0ModelPreview@UI@@QAE@XZ 00481ea0 f i ui.obj
 0001:00080f30       ?gettype@ModelPreview@UI@@UBEPBDXZ 00481f30 f i ui.obj
 0001:00080f40       ?draw@ModelPreview@UI@@UAEXMM@Z 00481f40 f i ui.obj
 0001:00081170       ??_EModelPreview@UI@@UAEPAXI@Z 00482170 f i * CIL library *:* CIL module *
 0001:00081170       ??_GModelPreview@UI@@UAEPAXI@Z 00482170 f i ui.obj
 0001:000811e0       ??1Preview@UI@@UAE@XZ      004821e0 f i ui.obj
 0001:000811e0       ??1FillColor@UI@@UAE@XZ    004821e0 f i ui.obj
 0001:000811e0       ??1SlotViewer@UI@@UAE@XZ   004821e0 f i ui.obj
 0001:00081220       ??_GPreview@UI@@UAEPAXI@Z  00482220 f i ui.obj
 0001:00081220       ??_EPreview@UI@@UAEPAXI@Z  00482220 f i * CIL library *:* CIL module *
 0001:00081270       ??1Image@UI@@UAE@XZ        00482270 f i ui.obj
 0001:00081270       ??1Target@UI@@UAE@XZ       00482270 f i ui.obj
 0001:00081270       ??1Shape@UI@@UAE@XZ        00482270 f i ui.obj
 0001:000812b0       ??_GTarget@UI@@UAEPAXI@Z   004822b0 f i ui.obj
 0001:000812b0       ??_GVerticalScrollBar@UI@@UAEPAXI@Z 004822b0 f i ui.obj
 0001:000812b0       ??_EVerticalScrollBar@UI@@UAEPAXI@Z 004822b0 f i * CIL library *:* CIL module *
 0001:000812b0       ??_EHorizontalScrollBar@UI@@UAEPAXI@Z 004822b0 f i * CIL library *:* CIL module *
 0001:000812b0       ??_EConsole@UI@@UAEPAXI@Z  004822b0 f i * CIL library *:* CIL module *
 0001:000812b0       ??_GConsole@UI@@UAEPAXI@Z  004822b0 f i ui.obj
 0001:000812b0       ??_ETarget@UI@@UAEPAXI@Z   004822b0 f i * CIL library *:* CIL module *
 0001:000812b0       ??_GHorizontalScrollBar@UI@@UAEPAXI@Z 004822b0 f i ui.obj
 0001:00081300       ??_GSpacer@UI@@UAEPAXI@Z   00482300 f i ui.obj
 0001:00081300       ??_EHorizontalList@UI@@UAEPAXI@Z 00482300 f i * CIL library *:* CIL module *
 0001:00081300       ??_EVerticalList@UI@@UAEPAXI@Z 00482300 f i * CIL library *:* CIL module *
 0001:00081300       ??_GFiller@UI@@UAEPAXI@Z   00482300 f i ui.obj
 0001:00081300       ??_GHorizontalList@UI@@UAEPAXI@Z 00482300 f i ui.obj
 0001:00081300       ??_GVerticalList@UI@@UAEPAXI@Z 00482300 f i ui.obj
 0001:00081300       ??_EFiller@UI@@UAEPAXI@Z   00482300 f i * CIL library *:* CIL module *
 0001:00081300       ??_EOffsetter@UI@@UAEPAXI@Z 00482300 f i * CIL library *:* CIL module *
 0001:00081300       ??_ESpacer@UI@@UAEPAXI@Z   00482300 f i * CIL library *:* CIL module *
 0001:00081300       ??_GOffsetter@UI@@UAEPAXI@Z 00482300 f i ui.obj
 0001:00081350       ?gettype@PlayerPreview@UI@@UBEPBDXZ 00482350 f i ui.obj
 0001:00081360       ?draw@PlayerPreview@UI@@UAEXMM@Z 00482360 f i ui.obj
 0001:00081490       ??0PrefabPreview@UI@@QAE@XZ 00482490 f i ui.obj
 0001:00081520       ?gettype@PrefabPreview@UI@@UBEPBDXZ 00482520 f i ui.obj
 0001:00081530       ?draw@PrefabPreview@UI@@UAEXMM@Z 00482530 f i ui.obj
 0001:000816d0       ??_GPrefabPreview@UI@@UAEPAXI@Z 004826d0 f i ui.obj
 0001:000816d0       ??_EPrefabPreview@UI@@UAEPAXI@Z 004826d0 f i * CIL library *:* CIL module *
 0001:00081740       ?gettype@SlotViewer@UI@@UBEPBDXZ 00482740 f i ui.obj
 0001:00081750       ?previewslot@SlotViewer@UI@@QAEXAAUSlot@@AAUVSlot@@MM@Z 00482750 f i ui.obj
 0001:00081e60       ?draw@SlotViewer@UI@@UAEXMM@Z 00482e60 f i ui.obj
 0001:00081ee0       ?gettype@VSlotViewer@UI@@UBEPBDXZ 00482ee0 f i ui.obj
 0001:00081ef0       ?draw@VSlotViewer@UI@@UAEXMM@Z 00482ef0 f i ui.obj
 0001:00081f70       ??_GSliderButton@UI@@UAEPAXI@Z 00482f70 f i ui.obj
 0001:00081f70       ??_ESliderButton@UI@@UAEPAXI@Z 00482f70 f i * CIL library *:* CIL module *
 0001:00081f70       ??_GScrollButton@UI@@UAEPAXI@Z 00482f70 f i ui.obj
 0001:00081f70       ??_EWorld@UI@@UAEPAXI@Z    00482f70 f i * CIL library *:* CIL module *
 0001:00081f70       ??_EScrollButton@UI@@UAEPAXI@Z 00482f70 f i * CIL library *:* CIL module *
 0001:00081f70       ??_GWorld@UI@@UAEPAXI@Z    00482f70 f i ui.obj
 0001:00081fc0       ?deletecontents@?$vector@PAUObject@UI@@@@QAEXH@Z 00482fc0 f i ui.obj
 0001:00081ff0       ?add@?$vector@PAUeditor@@@@QAEAAPAUeditor@@ABQAU2@@Z 00482ff0 f i ui.obj
 0001:000820d0       ?insert@?$vector@Ueditline@@@@QAEAAUeditline@@HABU2@@Z 004830d0 f i ui.obj
 0001:00082170       ?add@?$vector@Ueditline@@@@QAEAAUeditline@@XZ 00483170 f i ui.obj
 0001:000821c0       ?growbuf@?$vector@Ueditline@@@@QAEXH@Z 004831c0 f i ui.obj
 0001:00082250       ??$find@PBD@?$hashbase@U?$hashnameset@PAUWindow@UI@@@@PAUWindow@UI@@PBDPAU23@@@QAEABQAUWindow@UI@@ABQBDABQAU12@@Z 00483250 f i ui.obj
 0001:000822e0       ??0Gradient@UI@@QAE@XZ     004832e0 f i ui.obj
 0001:00082360       ??0KeyField@UI@@QAE@XZ     00483360 f i ui.obj
 0001:000823e0       ??0PlayerPreview@UI@@QAE@XZ 004833e0 f i ui.obj
 0001:00082460       ??0VSlotViewer@UI@@QAE@XZ  00483460 f i ui.obj
 0001:000824e0       ??_GGrid@UI@@UAEPAXI@Z     004834e0 f i ui.obj
 0001:000824e0       ??_EGrid@UI@@UAEPAXI@Z     004834e0 f i * CIL library *:* CIL module *
 0001:00082570       ??_ETableRow@UI@@UAEPAXI@Z 00483570 f i * CIL library *:* CIL module *
 0001:00082570       ??_GTableRow@UI@@UAEPAXI@Z 00483570 f i ui.obj
 0001:000825c0       ??_ETable@UI@@UAEPAXI@Z    004835c0 f i * CIL library *:* CIL module *
 0001:000825c0       ??_GTable@UI@@UAEPAXI@Z    004835c0 f i ui.obj
 0001:00082630       ??_EHorizontalSlider@UI@@UAEPAXI@Z 00483630 f i * CIL library *:* CIL module *
 0001:00082630       ??_GHorizontalSlider@UI@@UAEPAXI@Z 00483630 f i ui.obj
 0001:00082630       ??_GVerticalSlider@UI@@UAEPAXI@Z 00483630 f i ui.obj
 0001:00082630       ??_EVerticalSlider@UI@@UAEPAXI@Z 00483630 f i * CIL library *:* CIL module *
 0001:00082680       ??_GFillColor@UI@@UAEPAXI@Z 00483680 f i ui.obj
 0001:00082680       ??_EFillColor@UI@@UAEPAXI@Z 00483680 f i * CIL library *:* CIL module *
 0001:000826d0       ??_EGradient@UI@@UAEPAXI@Z 004836d0 f i * CIL library *:* CIL module *
 0001:000826d0       ??_EPlayerPreview@UI@@UAEPAXI@Z 004836d0 f i * CIL library *:* CIL module *
 0001:000826d0       ??_GPlayerPreview@UI@@UAEPAXI@Z 004836d0 f i ui.obj
 0001:000826d0       ??_GGradient@UI@@UAEPAXI@Z 004836d0 f i ui.obj
 0001:00082720       ??_ELine@UI@@UAEPAXI@Z     00483720 f i * CIL library *:* CIL module *
 0001:00082720       ??_GLine@UI@@UAEPAXI@Z     00483720 f i ui.obj
 0001:00082720       ??_EImage@UI@@UAEPAXI@Z    00483720 f i * CIL library *:* CIL module *
 0001:00082720       ??_GOutline@UI@@UAEPAXI@Z  00483720 f i ui.obj
 0001:00082720       ??_EOutline@UI@@UAEPAXI@Z  00483720 f i * CIL library *:* CIL module *
 0001:00082720       ??_GImage@UI@@UAEPAXI@Z    00483720 f i ui.obj
 0001:00082770       ??_ETriangle@UI@@UAEPAXI@Z 00483770 f i * CIL library *:* CIL module *
 0001:00082770       ??_GTriangle@UI@@UAEPAXI@Z 00483770 f i ui.obj
 0001:000827c0       ??_ETiledImage@UI@@UAEPAXI@Z 004837c0 f i * CIL library *:* CIL module *
 0001:000827c0       ??_GCircle@UI@@UAEPAXI@Z   004837c0 f i ui.obj
 0001:000827c0       ??_GBorderedImage@UI@@UAEPAXI@Z 004837c0 f i ui.obj
 0001:000827c0       ??_GTiledImage@UI@@UAEPAXI@Z 004837c0 f i ui.obj
 0001:000827c0       ??_EBorderedImage@UI@@UAEPAXI@Z 004837c0 f i * CIL library *:* CIL module *
 0001:000827c0       ??_ECircle@UI@@UAEPAXI@Z   004837c0 f i * CIL library *:* CIL module *
 0001:00082810       ??_GKeyField@UI@@UAEPAXI@Z 00483810 f i ui.obj
 0001:00082810       ??_EKeyField@UI@@UAEPAXI@Z 00483810 f i * CIL library *:* CIL module *
 0001:00082860       ??_GSlotViewer@UI@@UAEPAXI@Z 00483860 f i ui.obj
 0001:00082860       ??_GStretchedImage@UI@@UAEPAXI@Z 00483860 f i ui.obj
 0001:00082860       ??_ESlotViewer@UI@@UAEPAXI@Z 00483860 f i * CIL library *:* CIL module *
 0001:00082860       ??_EStretchedImage@UI@@UAEPAXI@Z 00483860 f i * CIL library *:* CIL module *
 0001:000828b0       ??_ECroppedImage@UI@@UAEPAXI@Z 004838b0 f i * CIL library *:* CIL module *
 0001:000828b0       ??_GCroppedImage@UI@@UAEPAXI@Z 004838b0 f i ui.obj
 0001:00082900       ??_GVSlotViewer@UI@@UAEPAXI@Z 00483900 f i ui.obj
 0001:00082900       ??_EVSlotViewer@UI@@UAEPAXI@Z 00483900 f i * CIL library *:* CIL module *
 0001:00082950       ?insert@?$hashbase@U?$hashnameset@PAUWindow@UI@@@@PAUWindow@UI@@PBDPAU23@@@QAEPAUchain@1@I@Z 00483950 f i ui.obj
 0001:00082ab0       ?hexcolor@vec@@SA?AU1@H@Z  00483ab0 f i ui.obj
 0001:00082b00       ?getstr@ident@@QBEPBDXZ    00483b00 f i ui.obj
 0001:00082b50       ??1defvar@@QAE@XZ          00483b50 f i command.obj
 0001:00082bb0       ?changed@defvar@@SAXPAUident@@@Z 00483bb0 f i command.obj
 0001:00082bd0       ??Rsortfun@@QAE_NABUsortitem@@0@Z 00483bd0 f i command.obj
 0001:00082c70       ?reserve@?$vector@I@@QAE?AU?$databuf@I@@H@Z 00483c70 f i command.obj
 0001:00082cb0       ??1?$hashbase@U?$hashnameset@Udefvar@@@@Udefvar@@PBDU2@@@QAE@XZ 00483cb0 f i command.obj
 0001:00082d40       ??A?$vector@PAUident@@@@QAEAAPAUident@@H@Z 00483d40 f i command.obj
 0001:00082d50       ??1chain@?$hashbase@U?$hashnameset@Udefvar@@@@Udefvar@@PBDU2@@@QAE@XZ 00483d50 f i command.obj
 0001:00082db0       ??$access@PAD@?$hashbase@U?$hashnameset@Uident@@@@Uident@@PBDU2@@@QAEPAUident@@ABQAD@Z 00483db0 f i command.obj
 0001:00082db0       ??$access@PBD@?$hashbase@U?$hashnameset@Uident@@@@Uident@@PBDU2@@@QAEPAUident@@ABQBD@Z 00483db0 f i command.obj
 0001:00082e40       ??$?APAD@?$hashbase@U?$hashnameset@Udefvar@@@@Udefvar@@PBDU2@@@QAEAAUdefvar@@ABQAD@Z 00483e40 f i command.obj
 0001:00082ed0       ??$access@Ustringslice@@@?$hashbase@U?$hashnameset@Uident@@@@Uident@@PBDU2@@@QAEPAUident@@ABUstringslice@@@Z 00483ed0 f i command.obj
 0001:00082fa0       ?insert@?$hashbase@U?$hashnameset@Udefvar@@@@Udefvar@@PBDU2@@@QAEPAUchain@1@I@Z 00483fa0 f i command.obj
 0001:00083150       ?insert@?$hashbase@U?$hashnameset@Uident@@@@Uident@@PBDU2@@@QAEPAUchain@1@I@Z 00484150 f i command.obj
 0001:00083300       ??0chain@?$hashbase@U?$hashnameset@Udefvar@@@@Udefvar@@PBDU2@@@QAE@XZ 00484300 f i command.obj
 0001:00083350       ?getcval@ident@@QBEXAAUtagval@@@Z 00484350 f i command.obj
 0001:000833f0       ?getcstr@ident@@QBEXAAUtagval@@@Z 004843f0 f i command.obj
 0001:00083490       ?getval@ident@@QBEXAAUtagval@@@Z 00484490 f i command.obj
 0001:000834b0       ?getfloat@ident@@QBEMXZ    004844b0 f i command.obj
 0001:00083510       ?getint@ident@@QBEHXZ      00484510 f i command.obj
 0001:00083560       ?setcstr@tagval@@QAEXPBD@Z 00484560 f i command.obj
 0001:00083570       ?setnull@tagval@@QAEXXZ    00484570 f i command.obj
 0001:00083580       ??1keym@@QAE@XZ            00484580 f i console.obj
 0001:00083600       ?restore@hline@@QAEXXZ     00484600 f i console.obj
 0001:00083720       ?run@hline@@QAEXXZ         00484720 f i console.obj
 0001:00083780       ?update@filesval@@QAEXXZ   00484780 f i console.obj
 0001:00083920       ?add@?$vector@Ureleaseaction@@@@QAEAAUreleaseaction@@XZ 00484920 f i console.obj
 0001:000839f0       ??1?$hashbase@U?$hashtable@HUkeym@@@@U?$hashtableentry@HUkeym@@@@HUkeym@@@@QAE@XZ 004849f0 f i console.obj
 0001:00083a40       ?deletechunks@?$hashbase@U?$hashtable@HUkeym@@@@U?$hashtableentry@HUkeym@@@@HUkeym@@@@QAEXXZ 00484a40 f i console.obj
 0001:00083ac0       ??1chain@?$hashbase@U?$hashtable@HUkeym@@@@U?$hashtableentry@HUkeym@@@@HUkeym@@@@QAE@XZ 00484ac0 f i console.obj
 0001:00083b10       ??1?$hashtableentry@HUkeym@@@@QAE@XZ 00484b10 f i console.obj
 0001:00083b50       ??$formatstring@$0CAA@@@YAXAAY0CAA@DPBDZZ 00484b50 f i console.obj
 0001:00083b90       ??$access@H@?$hashbase@U?$hashtable@HUkeym@@@@U?$hashtableentry@HUkeym@@@@HUkeym@@@@QAEPAUkeym@@ABH@Z 00484b90 f i console.obj
 0001:00083bd0       ??$access@PAD@?$hashbase@U?$hashtable@PADPAUfilesval@@@@U?$hashtableentry@PADPAUfilesval@@@@PADPAUfilesval@@@@QAEPAPAUfilesval@@ABQAD@Z 00484bd0 f i console.obj
 0001:00083c60       ??$?APAD@?$hashbase@U?$hashtable@PADPAUfilesval@@@@U?$hashtableentry@PADPAUfilesval@@@@PADPAUfilesval@@@@QAEAAPAUfilesval@@ABQAD@Z 00484c60 f i console.obj
 0001:00083d00       ?insert@?$hashbase@U?$hashtable@Ufileskey@@PAUfilesval@@@@U?$hashtableentry@Ufileskey@@PAUfilesval@@@@Ufileskey@@PAUfilesval@@@@QAEPAUchain@1@I@Z 00484d00 f i console.obj
 0001:00083ea0       ?insert@?$hashbase@U?$hashtable@HUkeym@@@@U?$hashtableentry@HUkeym@@@@HUkeym@@@@QAEPAUchain@1@I@Z 00484ea0 f i console.obj
 0001:00084060       ??0chain@?$hashbase@U?$hashtable@HUkeym@@@@U?$hashtableentry@HUkeym@@@@HUkeym@@@@QAE@XZ 00485060 f i console.obj
 0001:000840e0       ??$concformatstring@$0CAA@@@YAXAAY0CAA@DPBDZZ 004850e0 f i main.obj
 0001:00084130       ?strrchr@@YAPADQADH@Z      00485130 f i main.obj
 0001:00084140       ?addindex@aviwriter@@QAEAAUaviindexentry@@HHH@Z 00485140 f i movie.obj
 0001:000842e0       ?startchunk@aviwriter@@QAEXPBDI@Z 004852e0 f i movie.obj
 0001:00084340       ?listchunk@aviwriter@@QAEXPBD0@Z 00485340 f i movie.obj
 0001:000843b0       ?endlistchunk@aviwriter@@QAEXXZ 004853b0 f i movie.obj
 0001:00084420       ?writechunk@aviwriter@@QAEXPBDPBXI@Z 00485420 f i movie.obj
 0001:00084480       ?close@aviwriter@@QAEXXZ   00485480 f i movie.obj
 0001:000847f0       ??0aviwriter@@QAE@PBDIII_N@Z 004857f0 f i movie.obj
 0001:00084a70       ?open@aviwriter@@QAE_NXZ   00485a70 f i movie.obj
 0001:00085810       ?boxsample@aviwriter@@SAXPBEIIIIIIIIAAI11@Z 00486810 f i movie.obj
 0001:00085c80       ?scaleyuv@aviwriter@@QAEXPBEII@Z 00486c80 f i movie.obj
 0001:000861e0       ?encodeyuv@aviwriter@@QAEXPBE@Z 004871e0 f i movie.obj
 0001:000864b0       ?compressyuv@aviwriter@@QAEXPBE@Z 004874b0 f i movie.obj
 0001:00086660       ?writesound@aviwriter@@QAE_NPAEII@Z 00487660 f i movie.obj
 0001:00086850       ?flushsegment@aviwriter@@QAEXXZ 00487850 f i movie.obj
 0001:00086cf0       ?nextsegment@aviwriter@@QAE_NXZ 00487cf0 f i movie.obj
 0001:00086e80       ?writevideoframe@aviwriter@@QAE_NPBEIIHI@Z 00487e80 f i movie.obj
 0001:00086f90       ??0soundbuffer@recorder@@QAE@XZ 00487f90 f i movie.obj
 0001:00086fa0       ??1soundbuffer@recorder@@QAE@XZ 00487fa0 f i movie.obj
 0001:00086ff0       ?init@videobuffer@recorder@@QAEXHHH@Z 00487ff0 f i movie.obj
 0001:00087050       ??_Gaviwriter@@QAEPAXI@Z   00488050 f i movie.obj
 0001:00087110       ??0soundtype@@QAE@PBD@Z    00488110 f i sound.obj
 0001:000871e0       ?addslot@soundtype@@QAEHPBDH@Z 004881e0 f i sound.obj
 0001:00087470       ?addsound@soundtype@@QAEHPBDHH@Z 00488470 f i sound.obj
 0001:00087540       ?reset@soundtype@@QAEXXZ   00488540 f i sound.obj
 0001:000875e0       ?cleanupsamples@soundtype@@QAEXXZ 004885e0 f i sound.obj
 0001:00087630       ?preloadsound@soundtype@@QAEXH@Z 00488630 f i sound.obj
 0001:00087680       ?playing@soundtype@@QBE_NABUsoundchannel@@ABUsoundconfig@@@Z 00488680 f i sound.obj
 0001:000876d0       ??1soundtype@@QAE@XZ       004886d0 f i sound.obj
 0001:00087780       ??1?$hashnameset@Usoundsample@@@@QAE@XZ 00488780 f i sound.obj
 0001:000877e0       ??1?$hashbase@U?$hashnameset@Usoundsample@@@@Usoundsample@@PBDU2@@@QAE@XZ 004887e0 f i sound.obj
 0001:00087830       ?inrange@?$vector@Usoundchannel@@@@QBE_NH@Z 00488830 f i sound.obj
 0001:00087850       ?deletechunks@?$hashbase@U?$hashnameset@Usoundsample@@@@Usoundsample@@PBDU2@@@QAEXXZ 00488850 f i sound.obj
 0001:000878d0       ??1chain@?$hashbase@U?$hashnameset@Uzipfile@@@@Uzipfile@@PBDU2@@@QAE@XZ 004888d0 f i zip.obj
 0001:000878d0       ??1chain@?$hashbase@U?$hashnameset@Usoundsample@@@@Usoundsample@@PBDU2@@@QAE@XZ 004888d0 f i sound.obj
 0001:00087920       ?insert@?$hashbase@U?$hashnameset@Usoundsample@@@@Usoundsample@@PBDU2@@@QAEPAUchain@1@I@Z 00488920 f i sound.obj
 0001:00087ab0       ??0chain@?$hashbase@U?$hashnameset@Usoundsample@@@@Usoundsample@@PBDU2@@@QAE@XZ 00488ab0 f i sound.obj
 0001:00087af0       ??0stainbuffer@@QAE@XZ     00488af0 f i stain.obj
 0001:00087b30       ?render@stainbuffer@@QAEXXZ 00488b30 f i stain.obj
 0001:00087c60       ??1stainrenderer@@QAE@XZ   00488c60 f i stain.obj
 0001:00087cd0       ?freestain@stainrenderer@@QAEHXZ 00488cd0 f i stain.obj
 0001:00087d50       ?fadestain@stainrenderer@@QAEXABUstaininfo@@E@Z 00488d50 f i stain.obj
 0001:00087e50       ?clearfadedstains@stainrenderer@@QAEXXZ 00488e50 f i stain.obj
 0001:00088010       ?fadeinstains@stainrenderer@@QAEXXZ 00489010 f i stain.obj
 0001:000882c0       ?fadeoutstains@stainrenderer@@QAEXXZ 004892c0 f i stain.obj
 0001:00088590       ?render@stainrenderer@@QAEXH@Z 00489590 f i stain.obj
 0001:00088910       ?addstain@stainrenderer@@QAEXABUvec@@0MABUbvec@@H@Z 00489910 f i stain.obj
 0001:00088ee0       ?gentris@stainrenderer@@QAEXAAUcube@@HABUivec@@HPAUmaterialsurface@@H@Z 00489ee0 f i stain.obj
 0001:0008a440       ?findescaped@stainrenderer@@QAEXPAUcube@@ABUivec@@HH@Z 0048b440 f i stain.obj
 0001:0008a530       ?genmmtri@stainrenderer@@QAEXQBUvec@@@Z 0048b530 f i stain.obj
 0001:0008ada0       ?genmmtris@stainrenderer@@QAEXAAUoctaentities@@@Z 0048bda0 f i stain.obj
 0001:0008b060       ?gentris@stainrenderer@@QAEXPAUcube@@ABUivec@@HH@Z 0048c060 f i stain.obj
 0001:0008b470       ?invert@gfield@@QAE_NABU1@@Z 0048c470 f i crypto.obj
 0001:0008bea0       ?sqrt@gfield@@QAE_NABU1@@Z 0048cea0 f i crypto.obj
 0001:0008c120       ?mul2@ecjacobian@@QAEXXZ   0048d120 f i crypto.obj
 0001:0008c400       ?add@ecjacobian@@QAEXABU1@@Z 0048d400 f i crypto.obj
 0001:0008c680       ?normalize@ecjacobian@@QAEXXZ 0048d680 f i crypto.obj
 0001:0008c6f0       ?parse@ecjacobian@@QAEXPBD@Z 0048d6f0 f i crypto.obj
 0001:0008c7d0       ?rshift@?$bigint@$0N@@@QAEAAU1@H@Z 0048d7d0 f i crypto.obj
 0001:0008c8e0       ?printdigits@?$bigint@$0N@@@QBEXAAU?$vector@D@@@Z 0048d8e0 f i crypto.obj
 0001:0008c980       ?parse@?$bigint@$0N@@@QAEXPBD@Z 0048d980 f i crypto.obj
 0001:0008ca80       ??$add@$0N@$0N@@?$bigint@$0N@@@QAEAAU0@ABU0@0@Z 0048da80 f i crypto.obj
 0001:0008cb40       ??$?M$0N@@?$bigint@$0N@@@QBE_NABU0@@Z 0048db40 f i crypto.obj
 0001:0008cb90       ??$sub@$0N@$0N@@?$bigint@$0N@@@QAEAAU0@ABU0@0@Z 0048db90 f i crypto.obj
 0001:0008cc50       ??$pow@$0N@$0N@@gfield@@QAEAAU0@ABU?$bigint@$0N@@@0@Z 0048dc50 f i crypto.obj
 0001:0008cd00       ??$sub@$0N@$0N@@gfield@@QAEAAU0@ABU?$bigint@$0N@@@0@Z 0048dd00 f i crypto.obj
 0001:0008cd60       ??$sub@$0N@@gfield@@QAEAAU0@ABU?$bigint@$0N@@@@Z 0048dd60 f i crypto.obj
 0001:0008cdb0       ??$mul@$0N@$0N@@gfield@@QAEAAU0@ABU?$bigint@$0N@@@0@Z 0048ddb0 f i crypto.obj
 0001:0008cee0       ??$add@$0N@$0N@@gfield@@QAEAAU0@ABU?$bigint@$0N@@@0@Z 0048dee0 f i crypto.obj
 0001:0008cf50       ??$mul@$0N@@ecjacobian@@QAEXABU?$bigint@$0N@@@@Z 0048df50 f i crypto.obj
 0001:0008d020       ?numbits@?$bigint@$0N@@@QBEHXZ 0048e020 f i crypto.obj
 0001:0008d070       ??$reduce@$0BK@@gfield@@QAEXABU?$bigint@$0BK@@@@Z 0048e070 f i crypto.obj
 0001:0008d220       ??$copybits@$0BK@@?$bigint@$0N@@@QAEXHABU?$bigint@$0BK@@@HH@Z 0048e220 f i crypto.obj
 0001:0008d2b0       ?close@filestream@@UAEXXZ  0048e2b0 f i stream.obj
 0001:0008d2d0       ?end@filestream@@UAE_NXZ   0048e2d0 f i stream.obj
 0001:0008d2f0       ?tell@filestream@@UAE_JXZ  0048e2f0 f i stream.obj
 0001:0008d320       ?seek@filestream@@UAE_N_JH@Z 0048e320 f i stream.obj
 0001:0008d340       ?read@filestream@@UAEIPAXI@Z 0048e340 f i stream.obj
 0001:0008d360       ?write@filestream@@UAEIPBXI@Z 0048e360 f i stream.obj
 0001:0008d380       ?flush@filestream@@UAE_NXZ 0048e380 f i stream.obj
 0001:0008d3a0       ?getchar@filestream@@UAEHXZ 0048e3a0 f i stream.obj
 0001:0008d3b0       ?putchar@filestream@@UAE_NH@Z 0048e3b0 f i stream.obj
 0001:0008d3d0       ?getline@filestream@@UAE_NPADI@Z 0048e3d0 f i stream.obj
 0001:0008d3f0       ?putstring@filestream@@UAE_NPBD@Z 0048e3f0 f i stream.obj
 0001:0008d410       ?printf@filestream@@UAAIPBDZZ 0048e410 f i stream.obj
 0001:0008d450       ??_Efilestream@@UAEPAXI@Z  0048e450 f i * CIL library *:* CIL module *
 0001:0008d450       ??_Gfilestream@@UAEPAXI@Z  0048e450 f i stream.obj
 0001:0008d4d0       ?readbyte@gzstream@@QAEEI@Z 0048e4d0 f i stream.obj
 0001:0008d520       ?skipbytes@gzstream@@QAEXI@Z 0048e520 f i stream.obj
 0001:0008d560       ?checkheader@gzstream@@QAE_NXZ 0048e560 f i stream.obj
 0001:0008d780       ?getcrc@gzstream@@UAEIXZ   0048e780 f i stream.obj
 0001:0008d790       ?finishreading@gzstream@@QAEXXZ 0048e790 f i stream.obj
 0001:0008d8a0       ?stopreading@gzstream@@QAEXXZ 0048e8a0 f i stream.obj
 0001:0008d8c0       ?stopwriting@gzstream@@QAEXXZ 0048e8c0 f i stream.obj
 0001:0008d8e0       ?close@gzstream@@UAEXXZ    0048e8e0 f i stream.obj
 0001:0008da30       ?end@gzstream@@UAE_NXZ     0048ea30 f i stream.obj
 0001:0008da50       ?tell@gzstream@@UAE_JXZ    0048ea50 f i stream.obj
 0001:0008da70       ?rawtell@gzstream@@UAE_JXZ 0048ea70 f i stream.obj
 0001:0008da90       ?size@gzstream@@UAE_JXZ    0048ea90 f i stream.obj
 0001:0008db20       ?rawsize@gzstream@@UAE_JXZ 0048eb20 f i stream.obj
 0001:0008db40       ?seek@gzstream@@UAE_N_JH@Z 0048eb40 f i stream.obj
 0001:0008dcb0       ?read@gzstream@@UAEIPAXI@Z 0048ecb0 f i stream.obj
 0001:0008dd90       ?flush@gzstream@@UAE_NXZ   0048ed90 f i stream.obj
 0001:0008de00       ?write@gzstream@@UAEIPBXI@Z 0048ee00 f i stream.obj
 0001:0008dec0       ??_Egzstream@@UAEPAXI@Z    0048eec0 f i * CIL library *:* CIL module *
 0001:0008dec0       ??_Ggzstream@@UAEPAXI@Z    0048eec0 f i stream.obj
 0001:0008df30       ?readbuf@utf8stream@@QAE_NI@Z 0048ef30 f i stream.obj
 0001:0008e010       ?checkheader@utf8stream@@QAE_NXZ 0048f010 f i stream.obj
 0001:0008e050       ?close@utf8stream@@UAEXXZ  0048f050 f i stream.obj
 0001:0008e090       ?end@utf8stream@@UAE_NXZ   0048f090 f i stream.obj
 0001:0008e0b0       ?tell@utf8stream@@UAE_JXZ  0048f0b0 f i stream.obj
 0001:0008e0d0       ?seek@utf8stream@@UAE_N_JH@Z 0048f0d0 f i stream.obj
 0001:0008e230       ?read@utf8stream@@UAEIPAXI@Z 0048f230 f i stream.obj
 0001:0008e2c0       ?getline@utf8stream@@UAE_NPADI@Z 0048f2c0 f i stream.obj
 0001:0008e390       ?write@utf8stream@@UAEIPBXI@Z 0048f390 f i stream.obj
 0001:0008e5c0       ?flush@utf8stream@@UAE_NXZ 0048f5c0 f i stream.obj
 0001:0008e5d0       ??_Gutf8stream@@UAEPAXI@Z  0048f5d0 f i stream.obj
 0001:0008e5d0       ??_Eutf8stream@@UAEPAXI@Z  0048f5d0 f i * CIL library *:* CIL module *
 0001:0008e660       ??_Gstream@@UAEPAXI@Z      0048f660 f i stream.obj
 0001:0008e660       ??_Estream@@UAEPAXI@Z      0048f660 f i * CIL library *:* CIL module *
 0001:0008e690       ?rawtell@stream@@UAE_JXZ   0048f690 f i stream.obj
 0001:0008e6a0       ?rawsize@stream@@UAE_JXZ   0048f6a0 f i stream.obj
 0001:0008e6b0       ?getchar@stream@@UAEHXZ    0048f6b0 f i stream.obj
 0001:0008e6d0       ?putstring@stream@@UAE_NPBD@Z 0048f6d0 f i stream.obj
 0001:0008e700       ?putchar@stream@@UAE_NH@Z  0048f700 f i stream.obj
 0001:0008e720       ?putline@stream@@UAE_NPBD@Z 0048f720 f i stream.obj
 0001:0008e750       ??1stream@@UAE@XZ          0048f750 f i stream.obj
 0001:0008e760       ?tell@stream@@UAE_JXZ      0048f760 f i stream.obj
 0001:0008e770       ?seek@stream@@UAE_N_JH@Z   0048f770 f i stream.obj
 0001:0008e780       ?put@packetbuf@@QAEXABE@Z  0048f780 f i tools.obj
 0001:0008e7f0       ??1?$hashnameset@Uzipfile@@@@QAE@XZ 0048f7f0 f i zip.obj
 0001:0008e830       ?stopreading@zipstream@@QAEXXZ 0048f830 f i zip.obj
 0001:0008e8a0       ?close@zipstream@@UAEXXZ   0048f8a0 f i zip.obj
 0001:0008e8e0       ?size@zipstream@@UAE_JXZ   0048f8e0 f i zip.obj
 0001:0008e8f0       ?end@zipstream@@UAE_NXZ    0048f8f0 f i zip.obj
 0001:0008e910       ?tell@zipstream@@UAE_JXZ   0048f910 f i zip.obj
 0001:0008e940       ?seek@zipstream@@UAE_N_JH@Z 0048f940 f i zip.obj
 0001:0008eb50       ?read@zipstream@@UAEIPAXI@Z 0048fb50 f i zip.obj
 0001:0008ed00       ??_Gzipstream@@UAEPAXI@Z   0048fd00 f i zip.obj
 0001:0008ed00       ??_Ezipstream@@UAEPAXI@Z   0048fd00 f i * CIL library *:* CIL module *
 0001:0008eda0       ??1?$vector@Uzipfile@@@@QAE@XZ 0048fda0 f i zip.obj
 0001:0008ee10       ??1?$hashbase@U?$hashnameset@Uzipfile@@@@Uzipfile@@PBDU2@@@QAE@XZ 0048fe10 f i zip.obj
 0001:0008eea0       ?insert@?$hashbase@U?$hashnameset@Uzipfile@@@@Uzipfile@@PBDU2@@@QAEPAUchain@1@I@Z 0048fea0 f i zip.obj
 0001:0008f050       ??0chain@?$hashbase@U?$hashnameset@Uzipfile@@@@Uzipfile@@PBDU2@@@QAE@XZ 00490050 f i zip.obj
 0001:0008f0b0       ??1avoidset@ai@@QAE@XZ     004900b0 f i ai.obj
 0001:0008f130       ?add@?$vector@Uinterest@ai@@@@QAEAAUinterest@ai@@XZ 00490130 f i ai.obj
 0001:0008f210       ?add@avoidset@ai@@QAEXPAXM@Z 00490210 f i ai.obj
 0001:0008f2e0       ?add@avoidset@ai@@QAEXAAU12@@Z 004902e0 f i ai.obj
 0001:0008f4c0       ?addprevnode@aiinfo@ai@@QAEXH@Z 004904c0 f i ai.obj
 0001:0008f4f0       ?switchstate@aiinfo@ai@@QAEAAUaistate@2@AAU32@HHH@Z 004904f0 f i ai.obj
 0001:0008f550       ?feetpos@physent@@QBE?AUvec@@M@Z 00490550 f i ai.obj
 0001:0008f590       ?find@avoidset@ai@@QBE_NHPAUgameent@@@Z 00490590 f i ai.obj
 0001:0008f610       ??_Gaiinfo@ai@@QAEPAXI@Z   00490610 f i ai.obj
 0001:0008f6a0       ?clearsetup@aiinfo@ai@@QAEXXZ 004906a0 f i ai.obj
 0001:0008f760       ?addstate@aiinfo@ai@@QAEAAUaistate@2@HHH@Z 00490760 f i ai.obj
 0001:0008f860       ?reset@aiinfo@ai@@QAEX_N@Z 00490860 f i ai.obj
 0001:0008f8d0       ??1gameent@@QAE@XZ         004908d0 f i game.obj
 0001:0008f9d0       ??0dynent@@QAE@XZ          004909d0 f i game.obj
 0001:0008fba0       ??1dynent@@QAE@XZ          00490ba0 f i game.obj
 0001:0008fbc0       ??0gameent@@QAE@XZ         00490bc0 f i game.obj
 0001:0008fd30       ?spawnstate@gamestate@@QAEXH@Z 00490d30 f i game.obj
 0001:0008fd90       ?reset@dynent@@QAEXXZ      00490d90 f i game.obj
 0001:0008fe10       ?respawn@gameent@@QAEXXZ   00490e10 f i game.obj
 0001:0008feb0       ?compare@teamscore@@SA_NABU1@0@Z 00490eb0 f i scoreboard.obj
 0001:0008fee0       ??0wpcache@ai@@QAE@XZ      00490ee0 f i waypoint.obj
 0001:0008ff80       ?build@wpcache@ai@@QAEXHH@Z 00490f80 f i waypoint.obj
 0001:000901c0       ?build@wpcache@ai@@QAEXPAHHABUvec@@1@Z 004911c0 f i waypoint.obj
 0001:000908a0       ?add@?$vector@PAUwaypoint@ai@@@@QAEAAPAUwaypoint@ai@@ABQAU23@@Z 004918a0 f i waypoint.obj
 0001:00090980       ?add@?$vector@PAUnode@wpcache@ai@@@@QAEAAPAUnode@wpcache@ai@@ABQAU234@@Z 00491980 f i waypoint.obj
 0001:00090a60       ?add@?$vector@Uwaypoint@ai@@@@QAEAAUwaypoint@ai@@ABU23@@Z 00491a60 f i waypoint.obj
 0001:00090b60       ??0waypoint@ai@@QAE@ABUvec@@H@Z 00491b60 f i waypoint.obj
 0001:00090b90       ?remove@?$vector@Uprojectile@game@@@@QAE?AUprojectile@game@@H@Z 00491b90 f i weapon.obj
 0001:00090c50       ?crouched@physent@@QBE_NXZ 00491c50 f i weapon.obj
 0001:00090c90       ?reset@flag@ctfclientmode@game@@QAEXXZ 00491c90 f i client1.obj
 0001:00090d50       ?pos@flag@ctfclientmode@game@@QBE?AUvec@@XZ 00491d50 f i client1.obj
 0001:00090de0       ?dropflag@ctfclientmode@game@@QAEXHABUvec@@MH@Z 00491de0 f i client1.obj
 0001:00090e50       ?returnflag@ctfclientmode@game@@QAEXH@Z 00491e50 f i client1.obj
 0001:00090eb0       ?getteamscore@ctfclientmode@game@@UAEHH@Z 00491eb0 f i client1.obj
 0001:00090eb0       ?getteamscore@ctfservmode@server@@UAEHH@Z 00491eb0 f i server1.obj
 0001:00090ed0       ?getteamscores@ctfservmode@server@@UAEXAAU?$vector@Uteamscore@@@@@Z 00491ed0 f i server1.obj
 0001:00090ed0       ?getteamscores@ctfclientmode@game@@UAEXAAU?$vector@Uteamscore@@@@@Z 00491ed0 f i client1.obj
 0001:00090fb0       ?preload@ctfclientmode@game@@UAEXXZ 00491fb0 f i client1.obj
 0001:00090ff0       ?clipconsole@ctfclientmode@game@@UAEMMM@Z 00491ff0 f i client1.obj
 0001:00091000       ?drawhud@ctfclientmode@game@@UAEXPAUgameent@@HH@Z 00492000 f i client1.obj
 0001:00091850       ?removeplayer@ctfclientmode@game@@UAEXPAUgameent@@@Z 00492850 f i client1.obj
 0001:00091900       ?interpflagpos@ctfclientmode@game@@QAE?AUvec@@AAUflag@12@AAM@Z 00492900 f i client1.obj
 0001:00091a60       ?rendergame@ctfclientmode@game@@UAEXXZ 00492a60 f i client1.obj
 0001:00091c60       ?setup@ctfclientmode@game@@UAEXXZ 00492c60 f i client1.obj
 0001:00091de0       ?senditems@ctfclientmode@game@@UAEXAAUpacketbuf@@@Z 00492de0 f i client1.obj
 0001:00091e80       ?parseflags@ctfclientmode@game@@QAEXAAU?$databuf@E@@_N@Z 00492e80 f i client1.obj
 0001:00092060       ?teamcolorflag@ctfclientmode@game@@QAEPBDAAUflag@12@@Z 00493060 f i client1.obj
 0001:000920d0       ?flagexplosion@ctfclientmode@game@@QAEXHHABUvec@@@Z 004930d0 f i client1.obj
 0001:00092200       ?flageffect@ctfclientmode@game@@QAEXHHABUvec@@0@Z 00493200 f i client1.obj
 0001:000922c0       ?scoreflag@ctfclientmode@game@@QAEXPAUgameent@@HHHHHHH@Z 004932c0 f i client1.obj
 0001:00092600       ?checkitems@ctfclientmode@game@@UAEXPAUgameent@@@Z 00493600 f i client1.obj
 0001:00092920       ?respawned@ctfclientmode@game@@UAEXPAUgameent@@@Z 00493920 f i client1.obj
 0001:00092a00       ?respawnwait@ctfclientmode@game@@UAEHPAUgameent@@H@Z 00493a00 f i client1.obj
 0001:00092a40       ?aihomerun@ctfclientmode@game@@QAE_NPAUgameent@@AAUaistate@ai@@@Z 00493a40 f i client1.obj
 0001:00092ee0       ?aicheck@ctfclientmode@game@@UAE_NPAUgameent@@AAUaistate@ai@@@Z 00493ee0 f i client1.obj
 0001:00093170       ?aifind@ctfclientmode@game@@UAEXPAUgameent@@AAUaistate@ai@@AAU?$vector@Uinterest@ai@@@@@Z 00494170 f i client1.obj
 0001:00093ba0       ?aidefend@ctfclientmode@game@@UAE_NPAUgameent@@AAUaistate@ai@@@Z 00494ba0 f i client1.obj
 0001:00094270       ?aipursue@ctfclientmode@game@@UAE_NPAUgameent@@AAUaistate@ai@@@Z 00495270 f i client1.obj
 0001:000943c0       ??_Gctfclientmode@game@@UAEPAXI@Z 004953c0 f i client1.obj
 0001:000943c0       ??_Ectfclientmode@game@@UAEPAXI@Z 004953c0 f i * CIL library *:* CIL module *
 0001:00094440       ?remove@?$vector@Udemoreq@game@@@@QAE?AUdemoreq@game@@H@Z 00495440 f i client1.obj
 0001:000944d0       ?validate@selinfo@@QAE_NXZ 004954d0 f i client1.obj
 0001:00094610       ??1clientmode@game@@UAE@XZ 00495610 f i client1.obj
 0001:00094620       ??_Eclientmode@game@@UAEPAXI@Z 00495620 f i * CIL library *:* CIL module *
 0001:00094620       ??_Gclientmode@game@@UAEPAXI@Z 00495620 f i client1.obj
 0001:00094650       ?clipconsole@clientmode@game@@UAEMMM@Z 00495650 f i client1.obj
 0001:00094660       ?pickspawn@clientmode@game@@UAEXPAUgameent@@@Z 00495660 f i client1.obj
 0001:000946a0       ??1gameevent@server@@UAE@XZ 004956a0 f i server1.obj
 0001:000946b0       ??_Egameevent@server@@UAEPAXI@Z 004956b0 f i * CIL library *:* CIL module *
 0001:000946b0       ??_Ggameevent@server@@UAEPAXI@Z 004956b0 f i server1.obj
 0001:000946e0       ?respawn@servstate@server@@QAEXXZ 004956e0 f i server1.obj
 0001:00094740       ?save@savedscore@server@@QAEXAAUservstate@2@@Z 00495740 f i server1.obj
 0001:000947a0       ??0clientinfo@server@@QAE@XZ 004957a0 f i server1.obj
 0001:00094990       ?addevent@clientinfo@server@@QAEXPAUgameevent@2@@Z 00495990 f i server1.obj
 0001:00094a80       ?calcpushrange@clientinfo@server@@QAEHXZ 00495a80 f i server1.obj
 0001:00094ac0       ?setpushed@clientinfo@server@@QAEXXZ 00495ac0 f i server1.obj
 0001:00094b40       ?mapchange@clientinfo@server@@QAEXXZ 00495b40 f i server1.obj
 0001:00094cd0       ?cleanauth@clientinfo@server@@QAEX_N@Z 00495cd0 f i server1.obj
 0001:00094d30       ??_Gclientinfo@server@@QAEPAXI@Z 00495d30 f i server1.obj
 0001:00094eb0       ??1servmode@server@@UAE@XZ 00495eb0 f i server1.obj
 0001:00094ec0       ?moved@servmode@server@@UAEXPAUclientinfo@2@ABUvec@@_N12@Z 00495ec0 f i server1.obj
 0001:00094ed0       ?fragvalue@servmode@server@@UAEHPAUclientinfo@2@0@Z 00495ed0 f i server1.obj
 0001:00094f20       ?canchangeteam@ctfservmode@server@@UAE_NPAUclientinfo@2@HH@Z 00495f20 f i server1.obj
 0001:00094f20       ?canchangeteam@servmode@server@@UAE_NPAUclientinfo@2@HH@Z 00495f20 f i server1.obj
 0001:00094f30       ??_Gservmode@server@@UAEPAXI@Z 00495f30 f i server1.obj
 0001:00094f30       ??_Eservmode@server@@UAEPAXI@Z 00495f30 f i * CIL library *:* CIL module *
 0001:00094f60       ?reset@flag@ctfservmode@server@@QAEXXZ 00495f60 f i server1.obj
 0001:00094fc0       ?addflag@ctfservmode@server@@QAE_NHABUvec@@H@Z 00495fc0 f i server1.obj
 0001:00095150       ?returnflag@ctfservmode@server@@QAEXH@Z 00496150 f i server1.obj
 0001:00095190       ?cleanup@ctfservmode@server@@UAEXXZ 00496190 f i server1.obj
 0001:000951c0       ?setup@ctfservmode@server@@UAEXXZ 004961c0 f i server1.obj
 0001:00095260       ?newmap@ctfservmode@server@@UAEXXZ 00496260 f i server1.obj
 0001:00095290       ?dropflag@ctfservmode@server@@QAEXPAUclientinfo@2@0@Z 00496290 f i server1.obj
 0001:00095400       ?leavegame@ctfservmode@server@@UAEXPAUclientinfo@2@_N@Z 00496400 f i server1.obj
 0001:00095450       ?died@ctfservmode@server@@UAEXPAUclientinfo@2@0@Z 00496450 f i server1.obj
 0001:000954e0       ?canspawn@ctfservmode@server@@UAE_NPAUclientinfo@2@_N@Z 004964e0 f i server1.obj
 0001:00095520       ?changeteam@ctfservmode@server@@UAEXPAUclientinfo@2@HH@Z 00496520 f i server1.obj
 0001:00095530       ?takeflag@ctfservmode@server@@QAEXPAUclientinfo@2@HH@Z 00496530 f i server1.obj
 0001:000957b0       ?update@ctfservmode@server@@UAEXXZ 004967b0 f i server1.obj
 0001:00095850       ?initclient@ctfservmode@server@@UAEXPAUclientinfo@2@AAUpacketbuf@@_N@Z 00496850 f i server1.obj
 0001:00095950       ??_Gctfservmode@server@@UAEPAXI@Z 00496950 f i server1.obj
 0001:00095950       ??_Ectfservmode@server@@UAEPAXI@Z 00496950 f i * CIL library *:* CIL module *
 0001:000959d0       ??1userinfo@server@@QAE@XZ 004969d0 f i server1.obj
 0001:00095a30       ??0msgfilter@server@@QAA@HZZ 00496a30 f i server1.obj
 0001:00095a80       ?compare@crcinfo@server@@SA_NABU12@0@Z 00496a80 f i server1.obj
 0001:00095aa0       ?add@banlist@server@@QAEXPBD@Z 00496aa0 f i server1.obj
 0001:00095cb0       ??_Gsuicideevent@server@@UAEPAXI@Z 00496cb0 f i server1.obj
 0001:00095cb0       ??_Esuicideevent@server@@UAEPAXI@Z 00496cb0 f i * CIL library *:* CIL module *
 0001:00095d00       ??_Eshotevent@server@@UAEPAXI@Z 00496d00 f i * CIL library *:* CIL module *
 0001:00095d00       ??_Gshotevent@server@@UAEPAXI@Z 00496d00 f i server1.obj
 0001:00095d80       ??1timedevent@server@@UAE@XZ 00496d80 f i server1.obj
 0001:00095dc0       ??_Gtimedevent@server@@UAEPAXI@Z 00496dc0 f i server1.obj
 0001:00095dc0       ??_Epickupevent@server@@UAEPAXI@Z 00496dc0 f i * CIL library *:* CIL module *
 0001:00095dc0       ??_Etimedevent@server@@UAEPAXI@Z 00496dc0 f i * CIL library *:* CIL module *
 0001:00095dc0       ??_Gpickupevent@server@@UAEPAXI@Z 00496dc0 f i server1.obj
 0001:00095e10       ??_Gexplodeevent@server@@UAEPAXI@Z 00496e10 f i server1.obj
 0001:00095e10       ??_Eexplodeevent@server@@UAEPAXI@Z 00496e10 f i * CIL library *:* CIL module *
 0001:00095e90       ??1?$hashbase@U?$hashset@Uuserinfo@server@@@@Uuserinfo@server@@U23@U23@@@QAE@XZ 00496e90 f i server1.obj
 0001:00095ee0       ?add@?$vector@Userver_entity@server@@@@QAEAAUserver_entity@server@@ABU23@@Z 00496ee0 f i server1.obj
 0001:00095fd0       ?add@?$vector@Umaprotation@server@@@@QAEAAUmaprotation@server@@XZ 00496fd0 f i server1.obj
 0001:000960a0       ?add@?$vector@Uban@server@@@@QAEAAUban@server@@ABU23@@Z 004970a0 f i server1.obj
 0001:00096190       ?add@?$vector@Uhitinfo@server@@@@QAEAAUhitinfo@server@@XZ 00497190 f i server1.obj
 0001:00096250       ?deletechunks@?$hashbase@U?$hashset@Uuserinfo@server@@@@Uuserinfo@server@@U23@U23@@@QAEXXZ 00497250 f i server1.obj
 0001:000962d0       ??1chain@?$hashbase@U?$hashset@Uuserinfo@server@@@@Uuserinfo@server@@U23@U23@@@QAE@XZ 004972d0 f i server1.obj
 0001:00096340       ??$formatstring@$0CAI@@@YAXAAY0CAI@DPBDZZ 00497340 f i server1.obj
 0001:00096380       ??$sendstate@Upacketbuf@@@server@@YAXAAUservstate@0@AAUpacketbuf@@@Z 00497380 f i server1.obj
 0001:00096480       ??$access@Uuserkey@server@@@?$hashbase@U?$hashset@Uuserinfo@server@@@@Uuserinfo@server@@U23@U23@@@QAEPAUuserinfo@server@@ABUuserkey@2@@Z 00497480 f i server1.obj
 0001:00096540       ?insert@?$hashbase@U?$hashset@Uuserinfo@server@@@@Uuserinfo@server@@U23@U23@@@QAEPAUchain@1@I@Z 00497540 f i server1.obj
 0001:00096700       ??0chain@?$hashbase@U?$hashset@Uuserinfo@server@@@@Uuserinfo@server@@U23@U23@@@QAE@XZ 00497700 f i server1.obj
 0001:0009674e       ___WSAFDIsSet@8            0049774e f   ws2_32:WS2_32.dll
 0001:00096754       ??3@YAXPAXI@Z              00497754 f   LIBCMT:delete_scalar_size.obj
 0001:000967a6       ___scrt_acquire_startup_lock 004977a6 f   LIBCMT:utility.obj
 0001:000967d8       ___scrt_initialize_crt     004977d8 f   LIBCMT:utility.obj
 0001:00096811       ___scrt_initialize_onexit_tables 00497811 f   LIBCMT:utility.obj
 0001:00096898       ___scrt_is_nonwritable_in_current_image 00497898 f   LIBCMT:utility.obj
 0001:0009692c       ___scrt_release_startup_lock 0049792c f   LIBCMT:utility.obj
 0001:00096949       ___scrt_uninitialize_crt   00497949 f   LIBCMT:utility.obj
 0001:00096971       __onexit                   00497971 f   LIBCMT:utility.obj
 0001:0009699e       _atexit                    0049799e f   LIBCMT:utility.obj
 0001:00096a78       __Init_thread_abort        00497a78 f   LIBCMT:thread_safe_statics.obj
 0001:00096a9c       __Init_thread_footer       00497a9c f   LIBCMT:thread_safe_statics.obj
 0001:00096ae6       __Init_thread_header       00497ae6 f   LIBCMT:thread_safe_statics.obj
 0001:00096b38       __Init_thread_notify       00497b38 f   LIBCMT:thread_safe_statics.obj
 0001:00096b6e       __Init_thread_wait         00497b6e f   LIBCMT:thread_safe_statics.obj
 0001:00096bbc       ??_M@YGXPAXIIP6EX0@Z@Z     00497bbc f   LIBCMT:ehvecdtr.obj
 0001:00096c41       ?__ArrayUnwind@@YGXPAXIIP6EX0@Z@Z 00497c41 f   LIBCMT:ehvecdtr.obj
 0001:00096cd1       ??_L@YGXPAXIIP6EX0@Z1@Z    00497cd1 f   LIBCMT:ehvecctr.obj
 0001:00096d45       ??_V@YAXPAXI@Z             00497d45 f   LIBCMT:delete_array_size.obj
 0001:00096d53       ??_Gtype_info@@UAEPAXI@Z   00497d53 f i LIBCMT:std_type_info_static.obj
 0001:00096d53       ??_Etype_info@@UAEPAXI@Z   00497d53 f i LIBCMT:std_type_info_static.obj
 0001:00096fb7       _WinMainCRTStartup         00497fb7 f   LIBCMT:exe_winmain.obj
 0001:00096fc1       ___isa_available_init      00497fc1 f   LIBCMT:cpu_disp.obj
 0001:00097192       __get_startup_argv_mode    00498192 f   LIBCMT:argv_mode.obj
 0001:00097196       ___scrt_is_ucrt_dll_in_use 00498196 f   LIBCMT:ucrt_detection.obj
 0001:000971a2       ___scrt_fastfail           004981a2 f   LIBCMT:utility_desktop.obj
 0001:000972bd       ___scrt_get_show_window_mode 004982bd f   LIBCMT:utility_desktop.obj
 0001:000972ee       ___scrt_initialize_mta     004982ee f   LIBCMT:utility_desktop.obj
 0001:000972f3       ___scrt_is_managed_app     004982f3 f   LIBCMT:utility_desktop.obj
 0001:00097336       ___scrt_set_unhandled_exception_filter 00498336 f   LIBCMT:utility_desktop.obj
 0001:00097342       ___scrt_unhandled_exception_filter@4 00498342 f   LIBCMT:utility_desktop.obj
 0001:00097398       __crt_debugger_hook        00498398 f   LIBCMT:utility_desktop.obj
 0001:000973a0       __SEH_prolog4              004983a0 f   LIBCMT:sehprolg4.obj
 0001:00097433       ___security_init_cookie    00498433 f   LIBCMT:gs_support.obj
 0001:0009747e       __get_startup_file_mode    0049847e f   LIBCMT:file_mode.obj
 0001:00097484       ?__scrt_initialize_type_info@@YAXXZ 00498484 f   LIBCMT:tncleanup.obj
 0001:00097490       __initialize_default_precision 00498490 f   LIBCMT:default_precision.obj
 0001:000974b1       ___scrt_initialize_default_local_stdio_options 004984b1 f   LIBCMT:default_local_stdio_options.obj
 0001:000974ce       ___scrt_is_user_matherr_present 004984ce f   LIBCMT:matherr_detection.obj
 0001:000974da       ___scrt_get_dyn_tls_init_callback 004984da f   LIBCMT:dyn_tls_init.obj
 0001:000974e0       ___scrt_get_dyn_tls_dtor_callback 004984e0 f   LIBCMT:dyn_tls_dtor.obj
 0001:000974e6       __RTC_Initialize           004984e6 f   LIBCMT:initsect.obj
 0001:00097512       __RTC_Terminate            00498512 f   LIBCMT:initsect.obj
 0001:0009753e       @__security_check_cookie@4 0049853e f   LIBCMT:secchk.obj
 0001:0009754f       ___raise_securityfailure   0049854f f   LIBCMT:gs_report.obj
 0001:00097577       ___report_gsfailure        00498577 f   LIBCMT:gs_report.obj
 0001:00097671       ?GetRangeOfTrysToCheck@__FrameHandler3@@SA?AU?$pair@Viterator@TryBlockMap@__FrameHandler3@@V123@@std@@AAVTryBlockMap@1@HPAXPBU_s_FuncInfo@@H@Z 00498671 f   libvcruntime:trnsctrl.obj
 0001:000976e1       ?_CallCatchBlock2@@YAPAXPAUEHRegistrationNode@@PBU_s_FuncInfo@@PAXHK@Z 004986e1 f   libvcruntime:trnsctrl.obj
 0001:0009773e       ?_CallSETranslator@@YAHPAUEHExceptionRecord@@PAUEHRegistrationNode@@PAX2PBU_s_FuncInfo@@H1@Z 0049873e f   libvcruntime:trnsctrl.obj
 0001:00097834       ?_JumpToContinuation@@YGXPAXPAUEHRegistrationNode@@@Z 00498834 f   libvcruntime:trnsctrl.obj
 0001:00097864       ?_UnwindNestedFrames@@YGXPAUEHRegistrationNode@@PAUEHExceptionRecord@@@Z 00498864 f   libvcruntime:trnsctrl.obj
 0001:000978b7       __CatchGuardHandler        004988b7 f   libvcruntime:trnsctrl.obj
 0001:000978e8       __CreateFrameInfo          004988e8 f   libvcruntime:trnsctrl.obj
 0001:0009790c       __FindAndUnlinkFrame       0049890c f   libvcruntime:trnsctrl.obj
 0001:00097954       __TranslatorGuardHandler   00498954 f   libvcruntime:trnsctrl.obj
 0001:000979f1       ___CxxFrameHandler3        004989f1 f   libvcruntime:trnsctrl.obj
 0001:00097a30       _strrchr                   00498a30 f   libvcruntime:strrchr.obj
 0001:00097b70       _strstr                    00498b70 f   libvcruntime:strstr.obj
 0001:00097de0       _strchr                    00498de0 f   libvcruntime:strchr.obj
 0001:00097e4e       ___from_strstr_to_strchr   00498e4e     libvcruntime:strchr.obj
 0001:00097f0b       __get_purecall_handler     00498f0b f   libvcruntime:purevirt.obj
 0001:00097f11       __purecall                 00498f11 f   libvcruntime:purevirt.obj
 0001:00097f70       __except_handler4          00498f70 f   libvcruntime:chandler4.obj
 0001:000980d0       _memset                    004990d0 f   libvcruntime:memset.obj
 0001:00098230       _memcpy                    00499230 f   libvcruntime:memcpy.obj
 0001:00098230       _memmove                   00499230 f   libvcruntime:memmove.obj
 0001:000987a4       ___vcrt_initialize         004997a4 f   libvcruntime:initialization.obj
 0001:000987c3       ___vcrt_uninitialize       004997c3 f   libvcruntime:initialization.obj
 0001:000987da       ___DestructExceptionObject 004997da f   libvcruntime:ehhelpers.obj
 0001:0009887b       ?_CallMemberFunction0@@YGXQAX0@Z 0049987b f i libvcruntime:ehhelpers.obj
 0001:000988e0       __IsExceptionObjectToBeDestroyed 004998e0 f   libvcruntime:ehhelpers.obj
 0001:00098906       ___AdjustPointer           00499906 f   libvcruntime:ehhelpers.obj
 0001:0009892b       ___FrameUnwindFilter       0049992b f   libvcruntime:ehhelpers.obj
 0001:00098981       ___current_exception       00499981 f   libvcruntime:ehhelpers.obj
 0001:0009898a       ___current_exception_context 0049998a f   libvcruntime:ehhelpers.obj
 0001:00098993       ___std_type_info_compare   00499993 f   libvcruntime:std_type_info.obj
 0001:000989cf       ___vcrt_freefls@4          004999cf f   libvcruntime:per_thread_data.obj
 0001:000989eb       ___vcrt_getptd             004999eb f   libvcruntime:per_thread_data.obj
 0001:000989f9       ___vcrt_getptd_noexit      004999f9 f   libvcruntime:per_thread_data.obj
 0001:00098a8b       ___vcrt_initialize_ptd     00499a8b f   libvcruntime:per_thread_data.obj
 0001:00098abe       ___vcrt_uninitialize_ptd   00499abe f   libvcruntime:per_thread_data.obj
 0001:00099210       ??$TypeMatchHelper@V__FrameHandler3@@@@YAHPBU_s_HandlerType@@PBU_s_CatchableType@@PBU_s_ThrowInfo@@@Z 0049a210 f i libvcruntime:frame.obj
 0001:0009929e       ??$__InternalCxxFrameHandler@V__FrameHandler3@@@@YA?AW4_EXCEPTION_DISPOSITION@@PAUEHExceptionRecord@@PAUEHRegistrationNode@@PAU_CONTEXT@@PAXPBU_s_FuncInfo@@H1E@Z 0049a29e f i libvcruntime:frame.obj
 0001:000993a0       ??0bad_exception@std@@QAE@ABV01@@Z 0049a3a0 f i libvcruntime:frame.obj
 0001:000993bb       ??0bad_exception@std@@QAE@XZ 0049a3bb f i libvcruntime:frame.obj
 0001:000993d3       ??0exception@std@@QAE@ABV01@@Z 0049a3d3 f i libvcruntime:frame.obj
 0001:000993ff       ??1bad_exception@std@@UAE@XZ 0049a3ff f i libvcruntime:frame.obj
 0001:00099410       ??8type_info@@QBE_NABV0@@Z 0049a410 f i libvcruntime:frame.obj
 0001:0009942f       ??_Eexception@std@@UAEPAXI@Z 0049a42f f i libvcruntime:frame.obj
 0001:0009942f       ??_Ebad_exception@std@@UAEPAXI@Z 0049a42f f i libvcruntime:frame.obj
 0001:0009942f       ??_Gexception@std@@UAEPAXI@Z 0049a42f f i libvcruntime:frame.obj
 0001:0009942f       ??_Gbad_exception@std@@UAEPAXI@Z 0049a42f f i libvcruntime:frame.obj
 0001:000996a9       ?FrameUnwindToEmptyState@__FrameHandler3@@SAXPAUEHRegistrationNode@@PAXPBU_s_FuncInfo@@@Z 0049a6a9 f   libvcruntime:frame.obj
 0001:000996c1       ?FrameUnwindToState@__FrameHandler3@@SAXPAUEHRegistrationNode@@PAXPBU_s_FuncInfo@@H@Z 0049a6c1 f   libvcruntime:frame.obj
 0001:00099843       ?_CallMemberFunction1@@YGXQAX00@Z 0049a843 f i libvcruntime:frame.obj
 0001:00099853       ?_CallMemberFunction2@@YGXQAX00H@Z 0049a853 f i libvcruntime:frame.obj
 0001:00099866       ?getESTypes@__FrameHandler3@@SAPBU_s_ESTypeList@@PBU_s_FuncInfo@@@Z 0049a866 f i libvcruntime:frame.obj
 0001:00099871       ?what@exception@std@@UBEPBDXZ 0049a871 f i libvcruntime:frame.obj
 0001:00099880       __CallSettingFrame@12      0049a880 f   libvcruntime:lowhelpr.obj
 0001:000998a7       __NLG_Return               0049a8a7     libvcruntime:lowhelpr.obj
 0001:000998cc       ___except_validate_context_record 0049a8cc f   libvcruntime:jbcxrval.obj
 0001:00099900       __local_unwind4            0049a900 f   libvcruntime:exsup4.obj
 0001:000999f0       @_EH4_CallFilterFunc@8     0049a9f0 f   libvcruntime:exsup4.obj
 0001:00099a10       @_EH4_TransferToHandler@8  0049aa10 f   libvcruntime:exsup4.obj
 0001:00099a30       @_EH4_GlobalUnwind2@8      0049aa30 f   libvcruntime:exsup4.obj
 0001:00099a50       @_EH4_LocalUnwind@16       0049aa50 f   libvcruntime:exsup4.obj
 0001:00099a67       ___vcrt_initialize_locks   0049aa67 f   libvcruntime:locks.obj
 0001:00099aa3       ___vcrt_uninitialize_locks 0049aaa3 f   libvcruntime:locks.obj
 0001:00099bb5       ___vcrt_FlsAlloc           0049abb5 f   libvcruntime:winapi_downlevel.obj
 0001:00099bf0       ___vcrt_FlsFree            0049abf0 f   libvcruntime:winapi_downlevel.obj
 0001:00099c2b       ___vcrt_FlsGetValue        0049ac2b f   libvcruntime:winapi_downlevel.obj
 0001:00099c66       ___vcrt_FlsSetValue        0049ac66 f   libvcruntime:winapi_downlevel.obj
 0001:00099ca4       ___vcrt_InitializeCriticalSectionEx 0049aca4 f   libvcruntime:winapi_downlevel.obj
 0001:00099ceb       _unexpected                0049aceb f   libvcruntime:unexpected.obj
 0001:00099d08       ?GetCurrentState@__FrameHandler3@@SAHPAUEHRegistrationNode@@PAXPBU_s_FuncInfo@@@Z 0049ad08 f   libvcruntime:ehstate.obj
 0001:00099d25       ?SetState@__FrameHandler3@@SAXPAUEHRegistrationNode@@PBU_s_FuncInfo@@H@Z 0049ad25 f   libvcruntime:ehstate.obj
 0001:00099d33       ___std_exception_copy      0049ad33 f   libvcruntime:std_exception.obj
 0001:00099d96       ___std_exception_destroy   0049ad96 f   libvcruntime:std_exception.obj
 0001:00099db5       __CxxThrowException@8      0049adb5 f   libvcruntime:throw.obj
 0001:00099e30       __global_unwind2           0049ae30 f   libvcruntime:exsup.obj
 0001:00099eb0       __local_unwind2            0049aeb0 f   libvcruntime:exsup.obj
 0001:00099f50       __NLG_Notify1              0049af50 f   libvcruntime:exsup.obj
 0001:00099f60       __NLG_Notify               0049af60 f   libvcruntime:exsup.obj
 0001:00099f77       __NLG_Dispatch2            0049af77     libvcruntime:exsup.obj
 0001:00099f77       __NLG_Dispatch             0049af77     libvcruntime:exsup.obj
 0001:00099f80       __NLG_Call                 0049af80 f   libvcruntime:exsup.obj
 0001:00099f82       __NLG_Return2              0049af82     libvcruntime:exsup.obj
 0001:0009a15c       ??$count@D@formatting_buffer@__crt_stdio_output@@QBEIXZ 0049b15c f i libucrt:output.obj
 0001:0009a174       ??$ensure_buffer_is_big_enough@D@formatting_buffer@__crt_stdio_output@@QAE_NI@Z 0049b174 f i libucrt:output.obj
 0001:0009a1f1       ??$is_wide_character_specifier@D@__crt_stdio_output@@YA_N_KDW4length_modifier@0@@Z 0049b1f1 f i libucrt:output.obj
 0001:0009a222       ??$scratch_data@D@formatting_buffer@__crt_stdio_output@@QAEPADXZ 0049b222 f i libucrt:output.obj
 0001:0009a240       ??$type_case_integer_parse_into_buffer@I@?$output_processor@DV?$stream_output_adapter@D@__crt_stdio_output@@V?$standard_base@DV?$stream_output_adapter@D@__crt_stdio_output@@@2@@__crt_stdio_output@@AAEXII_N@Z 0049b240 f i libucrt:output.obj
 0001:0009a240       ??$type_case_integer_parse_into_buffer@I@?$output_processor@DV?$string_output_adapter@D@__crt_stdio_output@@V?$standard_base@DV?$string_output_adapter@D@__crt_stdio_output@@@2@@__crt_stdio_output@@AAEXII_N@Z 0049b240 f i libucrt:output.obj
 0001:0009a2b3       ??$type_case_integer_parse_into_buffer@_K@?$output_processor@DV?$string_output_adapter@D@__crt_stdio_output@@V?$standard_base@DV?$string_output_adapter@D@__crt_stdio_output@@@2@@__crt_stdio_output@@AAEX_KI_N@Z 0049b2b3 f i libucrt:output.obj
 0001:0009a2b3       ??$type_case_integer_parse_into_buffer@_K@?$output_processor@DV?$stream_output_adapter@D@__crt_stdio_output@@V?$standard_base@DV?$stream_output_adapter@D@__crt_stdio_output@@@2@@__crt_stdio_output@@AAEX_KI_N@Z 0049b2b3 f i libucrt:output.obj
 0001:0009a341       ??$write_multiple_characters@V?$stream_output_adapter@D@__crt_stdio_output@@D@__crt_stdio_output@@YAXABV?$stream_output_adapter@D@0@DHQAH@Z 0049b341 f i libucrt:output.obj
 0001:0009a37c       ??$write_multiple_characters@V?$string_output_adapter@D@__crt_stdio_output@@D@__crt_stdio_output@@YAXABV?$string_output_adapter@D@0@DHQAH@Z 0049b37c f i libucrt:output.obj
 0001:0009a3a8       ??0?$common_data@D@__crt_stdio_output@@IAE@XZ 0049b3a8 f i libucrt:output.obj
 0001:0009a3ed       ??0?$output_adapter_data@DV?$stream_output_adapter@D@__crt_stdio_output@@@__crt_stdio_output@@IAE@ABV?$stream_output_adapter@D@1@_KQBDQAU__crt_locale_pointers@@QAD@Z 0049b3ed f i libucrt:output.obj
 0001:0009a3ed       ??0?$output_adapter_data@DV?$string_output_adapter@D@__crt_stdio_output@@@__crt_stdio_output@@IAE@ABV?$string_output_adapter@D@1@_KQBDQAU__crt_locale_pointers@@QAD@Z 0049b3ed f i libucrt:output.obj
 0001:0009a429       ??0_LocaleUpdate@@QAE@QAU__crt_locale_pointers@@@Z 0049b429 f i libucrt:output.obj
 0001:0009a4ac       ??1formatting_buffer@__crt_stdio_output@@QAE@XZ 0049b4ac f i libucrt:output.obj
 0001:0009a4c6       ??4?$__crt_unique_heap_ptr@DU__crt_internal_free_policy@@@@QAEAAV0@$$QAV0@@Z 0049b4c6 f i libucrt:output.obj
 0001:0009a5b0       ?crop_zeroes@__crt_stdio_output@@YAXPADQAU__crt_locale_pointers@@@Z 0049b5b0 f i libucrt:output.obj
 0001:0009a631       ?find_next_state@?$output_processor@DV?$stream_output_adapter@D@__crt_stdio_output@@V?$standard_base@DV?$stream_output_adapter@D@__crt_stdio_output@@@2@@__crt_stdio_output@@ABE?AW4state@2@DW432@@Z 0049b631 f i libucrt:output.obj
 0001:0009a631       ?find_next_state@?$output_processor@DV?$string_output_adapter@D@__crt_stdio_output@@V?$standard_base@DV?$string_output_adapter@D@__crt_stdio_output@@@2@@__crt_stdio_output@@ABE?AW4state@2@DW432@@Z 0049b631 f i libucrt:output.obj
 0001:0009a670       ?force_decimal_point@__crt_stdio_output@@YAXPADQAU__crt_locale_pointers@@@Z 0049b670 f i libucrt:output.obj
 0001:0009a6d5       ?parse_int_from_format_string@?$output_processor@DV?$string_output_adapter@D@__crt_stdio_output@@V?$standard_base@DV?$string_output_adapter@D@__crt_stdio_output@@@2@@__crt_stdio_output@@AAE_NQAH@Z 0049b6d5 f i libucrt:output.obj
 0001:0009a6d5       ?parse_int_from_format_string@?$output_processor@DV?$stream_output_adapter@D@__crt_stdio_output@@V?$standard_base@DV?$stream_output_adapter@D@__crt_stdio_output@@@2@@__crt_stdio_output@@AAE_NQAH@Z 0049b6d5 f i libucrt:output.obj
 0001:0009a749       ?process@?$output_processor@DV?$stream_output_adapter@D@__crt_stdio_output@@V?$standard_base@DV?$stream_output_adapter@D@__crt_stdio_output@@@2@@__crt_stdio_output@@QAEHXZ 0049b749 f i libucrt:output.obj
 0001:0009a85d       ?process@?$output_processor@DV?$string_output_adapter@D@__crt_stdio_output@@V?$standard_base@DV?$string_output_adapter@D@__crt_stdio_output@@@2@@__crt_stdio_output@@QAEHXZ 0049b85d f i libucrt:output.obj
 0001:0009a971       ?state_case_flag@?$output_processor@DV?$string_output_adapter@D@__crt_stdio_output@@V?$standard_base@DV?$string_output_adapter@D@__crt_stdio_output@@@2@@__crt_stdio_output@@AAE_NXZ 0049b971 f i libucrt:output.obj
 0001:0009a971       ?state_case_flag@?$output_processor@DV?$stream_output_adapter@D@__crt_stdio_output@@V?$standard_base@DV?$stream_output_adapter@D@__crt_stdio_output@@@2@@__crt_stdio_output@@AAE_NXZ 0049b971 f i libucrt:output.obj
 0001:0009a9ae       ?state_case_normal@?$output_processor@DV?$stream_output_adapter@D@__crt_stdio_output@@V?$standard_base@DV?$stream_output_adapter@D@__crt_stdio_output@@@2@@__crt_stdio_output@@AAE_NXZ 0049b9ae f i libucrt:output.obj
 0001:0009a9cd       ?state_case_normal@?$output_processor@DV?$string_output_adapter@D@__crt_stdio_output@@V?$standard_base@DV?$string_output_adapter@D@__crt_stdio_output@@@2@@__crt_stdio_output@@AAE_NXZ 0049b9cd f i libucrt:output.obj
 0001:0009a9ec       ?state_case_normal_common@?$output_processor@DV?$stream_output_adapter@D@__crt_stdio_output@@V?$standard_base@DV?$stream_output_adapter@D@__crt_stdio_output@@@2@@__crt_stdio_output@@AAE_NXZ 0049b9ec f i libucrt:output.obj
 0001:0009aa26       ?state_case_normal_common@?$output_processor@DV?$string_output_adapter@D@__crt_stdio_output@@V?$standard_base@DV?$string_output_adapter@D@__crt_stdio_output@@@2@@__crt_stdio_output@@AAE_NXZ 0049ba26 f i libucrt:output.obj
 0001:0009aa50       ?state_case_normal_tchar@?$output_processor@DV?$stream_output_adapter@D@__crt_stdio_output@@V?$standard_base@DV?$stream_output_adapter@D@__crt_stdio_output@@@2@@__crt_stdio_output@@AAE_ND@Z 0049ba50 f i libucrt:output.obj
 0001:0009aabd       ?state_case_normal_tchar@?$output_processor@DV?$string_output_adapter@D@__crt_stdio_output@@V?$standard_base@DV?$string_output_adapter@D@__crt_stdio_output@@@2@@__crt_stdio_output@@AAE_ND@Z 0049babd f i libucrt:output.obj
 0001:0009ab21       ?state_case_precision@?$output_processor@DV?$stream_output_adapter@D@__crt_stdio_output@@V?$standard_base@DV?$stream_output_adapter@D@__crt_stdio_output@@@2@@__crt_stdio_output@@AAE_NXZ 0049bb21 f i libucrt:output.obj
 0001:0009ab21       ?state_case_precision@?$output_processor@DV?$string_output_adapter@D@__crt_stdio_output@@V?$standard_base@DV?$string_output_adapter@D@__crt_stdio_output@@@2@@__crt_stdio_output@@AAE_NXZ 0049bb21 f i libucrt:output.obj
 0001:0009ab47       ?state_case_size@?$output_processor@DV?$stream_output_adapter@D@__crt_stdio_output@@V?$standard_base@DV?$stream_output_adapter@D@__crt_stdio_output@@@2@@__crt_stdio_output@@AAE_NXZ 0049bb47 f i libucrt:output.obj
 0001:0009ac95       ?state_case_size@?$output_processor@DV?$string_output_adapter@D@__crt_stdio_output@@V?$standard_base@DV?$string_output_adapter@D@__crt_stdio_output@@@2@@__crt_stdio_output@@AAE_NXZ 0049bc95 f i libucrt:output.obj
 0001:0009ade3       ?state_case_type@?$output_processor@DV?$stream_output_adapter@D@__crt_stdio_output@@V?$standard_base@DV?$stream_output_adapter@D@__crt_stdio_output@@@2@@__crt_stdio_output@@AAE_NXZ 0049bde3 f i libucrt:output.obj
 0001:0009b015       ?state_case_type@?$output_processor@DV?$string_output_adapter@D@__crt_stdio_output@@V?$standard_base@DV?$string_output_adapter@D@__crt_stdio_output@@@2@@__crt_stdio_output@@AAE_NXZ 0049c015 f i libucrt:output.obj
 0001:0009b247       ?state_case_width@?$output_processor@DV?$stream_output_adapter@D@__crt_stdio_output@@V?$standard_base@DV?$stream_output_adapter@D@__crt_stdio_output@@@2@@__crt_stdio_output@@AAE_NXZ 0049c247 f i libucrt:output.obj
 0001:0009b247       ?state_case_width@?$output_processor@DV?$string_output_adapter@D@__crt_stdio_output@@V?$standard_base@DV?$string_output_adapter@D@__crt_stdio_output@@@2@@__crt_stdio_output@@AAE_NXZ 0049c247 f i libucrt:output.obj
 0001:0009b280       ?to_integer_size@__crt_stdio_output@@YAIW4length_modifier@1@@Z 0049c280 f i libucrt:output.obj
 0001:0009b2dc       ?type_case_Z@?$output_processor@DV?$stream_output_adapter@D@__crt_stdio_output@@V?$standard_base@DV?$stream_output_adapter@D@__crt_stdio_output@@@2@@__crt_stdio_output@@AAE_NXZ 0049c2dc f i libucrt:output.obj
 0001:0009b2dc       ?type_case_Z@?$output_processor@DV?$string_output_adapter@D@__crt_stdio_output@@V?$standard_base@DV?$string_output_adapter@D@__crt_stdio_output@@@2@@__crt_stdio_output@@AAE_NXZ 0049c2dc f i libucrt:output.obj
 0001:0009b336       ?type_case_a@?$output_processor@DV?$string_output_adapter@D@__crt_stdio_output@@V?$standard_base@DV?$string_output_adapter@D@__crt_stdio_output@@@2@@__crt_stdio_output@@AAE_NXZ 0049c336 f i libucrt:output.obj
 0001:0009b336       ?type_case_a@?$output_processor@DV?$stream_output_adapter@D@__crt_stdio_output@@V?$standard_base@DV?$stream_output_adapter@D@__crt_stdio_output@@@2@@__crt_stdio_output@@AAE_NXZ 0049c336 f i libucrt:output.obj
 0001:0009b487       ?type_case_c_tchar@?$output_processor@DV?$string_output_adapter@D@__crt_stdio_output@@V?$standard_base@DV?$string_output_adapter@D@__crt_stdio_output@@@2@@__crt_stdio_output@@AAE_ND@Z 0049c487 f i libucrt:output.obj
 0001:0009b487       ?type_case_c_tchar@?$output_processor@DV?$stream_output_adapter@D@__crt_stdio_output@@V?$standard_base@DV?$stream_output_adapter@D@__crt_stdio_output@@@2@@__crt_stdio_output@@AAE_ND@Z 0049c487 f i libucrt:output.obj
 0001:0009b51a       ?type_case_integer@?$output_processor@DV?$stream_output_adapter@D@__crt_stdio_output@@V?$standard_base@DV?$stream_output_adapter@D@__crt_stdio_output@@@2@@__crt_stdio_output@@AAE_NI_N@Z 0049c51a f i libucrt:output.obj
 0001:0009b51a       ?type_case_integer@?$output_processor@DV?$string_output_adapter@D@__crt_stdio_output@@V?$standard_base@DV?$string_output_adapter@D@__crt_stdio_output@@@2@@__crt_stdio_output@@AAE_NI_N@Z 0049c51a f i libucrt:output.obj
 0001:0009b66b       ?type_case_n@?$output_processor@DV?$string_output_adapter@D@__crt_stdio_output@@V?$standard_base@DV?$string_output_adapter@D@__crt_stdio_output@@@2@@__crt_stdio_output@@AAE_NXZ 0049c66b f i libucrt:output.obj
 0001:0009b66b       ?type_case_n@?$output_processor@DV?$stream_output_adapter@D@__crt_stdio_output@@V?$standard_base@DV?$stream_output_adapter@D@__crt_stdio_output@@@2@@__crt_stdio_output@@AAE_NXZ 0049c66b f i libucrt:output.obj
 0001:0009b6df       ?type_case_o@?$output_processor@DV?$string_output_adapter@D@__crt_stdio_output@@V?$standard_base@DV?$string_output_adapter@D@__crt_stdio_output@@@2@@__crt_stdio_output@@AAE_NXZ 0049c6df f i libucrt:output.obj
 0001:0009b6df       ?type_case_o@?$output_processor@DV?$stream_output_adapter@D@__crt_stdio_output@@V?$standard_base@DV?$stream_output_adapter@D@__crt_stdio_output@@@2@@__crt_stdio_output@@AAE_NXZ 0049c6df f i libucrt:output.obj
 0001:0009b6fe       ?type_case_p@?$output_processor@DV?$stream_output_adapter@D@__crt_stdio_output@@V?$standard_base@DV?$stream_output_adapter@D@__crt_stdio_output@@@2@@__crt_stdio_output@@AAE_NXZ 0049c6fe f i libucrt:output.obj
 0001:0009b6fe       ?type_case_p@?$output_processor@DV?$string_output_adapter@D@__crt_stdio_output@@V?$standard_base@DV?$string_output_adapter@D@__crt_stdio_output@@@2@@__crt_stdio_output@@AAE_NXZ 0049c6fe f i libucrt:output.obj
 0001:0009b716       ?type_case_s@?$output_processor@DV?$string_output_adapter@D@__crt_stdio_output@@V?$standard_base@DV?$string_output_adapter@D@__crt_stdio_output@@@2@@__crt_stdio_output@@AAE_NXZ 0049c716 f i libucrt:output.obj
 0001:0009b716       ?type_case_s@?$output_processor@DV?$stream_output_adapter@D@__crt_stdio_output@@V?$standard_base@DV?$stream_output_adapter@D@__crt_stdio_output@@@2@@__crt_stdio_output@@AAE_NXZ 0049c716 f i libucrt:output.obj
 0001:0009b787       ?validate@?$stream_output_adapter@D@__crt_stdio_output@@QBE_NXZ 0049c787 f i libucrt:output.obj
 0001:0009b7a8       ?validate@?$c_string_character_source@_W@__crt_strtox@@QBE_NXZ 0049c7a8 f i libucrt:strtox.obj
 0001:0009b7a8       ?validate@?$c_string_character_source@D@__crt_strtox@@QBE_NXZ 0049c7a8 f i libucrt:strtox.obj
 0001:0009b7a8       ?validate@?$string_output_adapter@D@__crt_stdio_output@@QBE_NXZ 0049c7a8 f i libucrt:output.obj
 0001:0009b7c3       ?validate_stream_is_ansi_if_required@?$__acrt_stdio_char_traits@D@@SA_NQAU_iobuf@@@Z 0049c7c3 f i libucrt:output.obj
 0001:0009b84a       ?write_character@?$string_output_adapter@D@__crt_stdio_output@@QBE_NDQAH@Z 0049c84a f i libucrt:output.obj
 0001:0009b88c       ?write_character_without_count_update@?$stream_output_adapter@D@__crt_stdio_output@@QBE_ND@Z 0049c88c f i libucrt:output.obj
 0001:0009b8c2       ?write_stored_string_tchar@?$output_processor@DV?$stream_output_adapter@D@__crt_stdio_output@@V?$standard_base@DV?$stream_output_adapter@D@__crt_stdio_output@@@2@@__crt_stdio_output@@AAE_ND@Z 0049c8c2 f i libucrt:output.obj
 0001:0009b967       ?write_stored_string_tchar@?$output_processor@DV?$string_output_adapter@D@__crt_stdio_output@@V?$standard_base@DV?$string_output_adapter@D@__crt_stdio_output@@@2@@__crt_stdio_output@@AAE_ND@Z 0049c967 f i libucrt:output.obj
 0001:0009ba0c       ?write_string@?$stream_output_adapter@D@__crt_stdio_output@@QBEXQBDHQAHAAV__crt_deferred_errno_cache@@@Z 0049ca0c f i libucrt:output.obj
 0001:0009ba38       ?write_string@?$string_output_adapter@D@__crt_stdio_output@@QBEXQBDHQAHAAV__crt_deferred_errno_cache@@@Z 0049ca38 f i libucrt:output.obj
 0001:0009ba9f       ?write_string_impl@?$output_adapter_common@DV?$stream_output_adapter@D@__crt_stdio_output@@@__crt_stdio_output@@IBEXQBDHQAHAAV__crt_deferred_errno_cache@@@Z 0049ca9f f i libucrt:output.obj
 0001:0009bb3d       ___acrt_locale_get_ctype_array_value 0049cb3d f i libucrt:output.obj
 0001:0009bb5f       ___stdio_common_vfprintf   0049cb5f f   libucrt:output.obj
 0001:0009bbe2       ___stdio_common_vsprintf   0049cbe2 f   libucrt:output.obj
 0001:0009bc06       ___acrt_initialize_stdio   0049cc06 f   libucrt:_file.obj
 0001:0009bcce       ___acrt_iob_func           0049ccce f   libucrt:_file.obj
 0001:0009bcde       ___acrt_uninitialize_stdio 0049ccde f   libucrt:_file.obj
 0001:0009bd2a       __lock_file                0049cd2a f   libucrt:_file.obj
 0001:0009bd3e       __unlock_file              0049cd3e f   libucrt:_file.obj
 0001:0009beae       __beginthreadex            0049ceae f   libucrt:thread.obj
 0001:0009bf31       __endthreadex              0049cf31 f   libucrt:thread.obj
 0001:0009bf3f       __time64                   0049cf3f f   libucrt:time.obj
 0001:0009c116       ??$__acrt_mbs_to_wcs_cp@U__crt_win32_buffer_internal_dynamic_resizing@@@@YAHQBDAAV?$__crt_win32_buffer@_WU__crt_win32_buffer_internal_dynamic_resizing@@@@I@Z 0049d116 f i libucrt:strftime.obj
 0001:0009c133       ??$__acrt_wcs_to_mbs_cp@U__crt_win32_buffer_no_resizing@@@@YAHQB_WAAV?$__crt_win32_buffer@DU__crt_win32_buffer_no_resizing@@@@I@Z 0049d133 f i libucrt:strftime.obj
 0001:0009c150       ?_deallocate@?$__crt_win32_buffer@_WU__crt_win32_buffer_internal_dynamic_resizing@@@@AAEXXZ 0049d150 f i libucrt:strftime.obj
 0001:0009c150       ?_deallocate@?$__crt_win32_buffer@DU__crt_win32_buffer_internal_dynamic_resizing@@@@AAEXXZ 0049d150 f i libucrt:argv_wildcards.obj
 0001:0009c16a       ?allocate@?$__crt_win32_buffer@DU__crt_win32_buffer_no_resizing@@@@QAEHI@Z 0049d16a f i libucrt:strftime.obj
 0001:0009c191       ?allocate@?$__crt_win32_buffer@_WU__crt_win32_buffer_internal_dynamic_resizing@@@@QAEHI@Z 0049d191 f i libucrt:strftime.obj
 0001:0009c1d0       ?allocate@__crt_win32_buffer_internal_dynamic_resizing@@SAHQAPAXIABV__crt_win32_buffer_empty_debug_info@@@Z 0049d1d0 f i libucrt:strftime.obj
 0001:0009c1ef       ?set_to_nullptr@?$__crt_win32_buffer@DU__crt_win32_buffer_no_resizing@@@@QAEXXZ 0049d1ef f i libucrt:strftime.obj
 0001:0009c203       __Strftime_l               0049d203 f   libucrt:strftime.obj
 0001:0009c300       _strftime                  0049d300 f   libucrt:strftime.obj
 0001:0009c5ae       __localtime64              0049d5ae f   libucrt:localtime.obj
 0001:0009c5d5       __localtime64_s            0049d5d5 f   libucrt:localtime.obj
 0001:0009c5e0       ?__acrt_get_utf8_acp_compatibility_codepage@@YAIXZ 0049d5e0 f i libucrt:unlink.obj
 0001:0009c61f       _remove                    0049d61f f   libucrt:unlink.obj
 0001:0009c689       _rename                    0049d689 f   libucrt:rename.obj
 0001:0009c737       ??$is_overflow_condition@K@__crt_strtox@@YA_NIK@Z 0049d737 f i libucrt:strtox.obj
 0001:0009c768       ??$is_overflow_condition@_K@__crt_strtox@@YA_NI_K@Z 0049d768 f i libucrt:strtox.obj
 0001:0009c7a9       ??$make_c_string_character_source@DPAPAD@__crt_strtox@@YA?AV?$c_string_character_source@D@0@QBDQAPAD@Z 0049d7a9 f i libucrt:strtox.obj
 0001:0009c7a9       ??$make_c_string_character_source@_WPAPA_W@__crt_strtox@@YA?AV?$c_string_character_source@_W@0@QB_WQAPA_W@Z 0049d7a9 f i libucrt:strtox.obj
 0001:0009c7c4       ??$parse_integer@KV?$c_string_character_source@D@__crt_strtox@@@__crt_strtox@@YAKQAU__crt_locale_pointers@@V?$c_string_character_source@D@0@H_N@Z 0049d7c4 f i libucrt:strtox.obj
 0001:0009c9e7       ??$parse_integer@KV?$c_string_character_source@_W@__crt_strtox@@@__crt_strtox@@YAKQAU__crt_locale_pointers@@V?$c_string_character_source@_W@0@H_N@Z 0049d9e7 f i libucrt:strtox.obj
 0001:0009cfef       ??$parse_integer@_KV?$c_string_character_source@D@__crt_strtox@@@__crt_strtox@@YA_KQAU__crt_locale_pointers@@V?$c_string_character_source@D@0@H_N@Z 0049dfef f i libucrt:strtox.obj
 0001:0009d295       ?unget@?$c_string_character_source@D@__crt_strtox@@QAEXD@Z 0049e295 f i libucrt:strtox.obj
 0001:0009d2be       ?unget@?$c_string_character_source@_W@__crt_strtox@@QAEX_W@Z 0049e2be f i libucrt:strtox.obj
 0001:0009d2ec       __ischartype_l             0049e2ec f i libucrt:strtox.obj
 0001:0009d340       _strtol                    0049e340 f   libucrt:strtox.obj
 0001:0009d36a       _strtoul                   0049e36a f   libucrt:strtox.obj
 0001:0009d394       _strtoull                  0049e394 f   libucrt:strtox.obj
 0001:0009d3be       _wcstol                    0049e3be f   libucrt:strtox.obj
 0001:0009d3e8       ??$assemble_floating_point_snan@N@__crt_strtox@@YAX_NAAN@Z 0049e3e8 f i libucrt:strtod.obj
 0001:0009d409       ??$assemble_floating_point_value_t@M@__crt_strtox@@YA?AW4SLD_STATUS@@_NH_KAAM@Z 0049e409 f i libucrt:strtod.obj
 0001:0009d439       ??$assemble_floating_point_value_t@N@__crt_strtox@@YA?AW4SLD_STATUS@@_NH_KAAN@Z 0049e439 f i libucrt:strtod.obj
 0001:0009d504       ??$convert_decimal_string_to_floating_type@M@__crt_strtox@@YA?AW4SLD_STATUS@@ABUfloating_point_string@0@AAM@Z 0049e504 f i libucrt:strtod.obj
 0001:0009d525       ??$convert_decimal_string_to_floating_type@N@__crt_strtox@@YA?AW4SLD_STATUS@@ABUfloating_point_string@0@AAN@Z 0049e525 f i libucrt:strtod.obj
 0001:0009d546       ??$convert_hexadecimal_string_to_floating_type@M@__crt_strtox@@YA?AW4SLD_STATUS@@ABUfloating_point_string@0@AAM@Z 0049e546 f i libucrt:strtod.obj
 0001:0009d567       ??$convert_hexadecimal_string_to_floating_type@N@__crt_strtox@@YA?AW4SLD_STATUS@@ABUfloating_point_string@0@AAN@Z 0049e567 f i libucrt:strtod.obj
 0001:0009d588       ??$parse_floating_point@V?$c_string_character_source@D@__crt_strtox@@N@__crt_strtox@@YA?AW4SLD_STATUS@@QAU__crt_locale_pointers@@V?$c_string_character_source@D@0@QAN@Z 0049e588 f i libucrt:strtod.obj
 0001:0009d5fc       ??$parse_floating_point_from_source@V?$c_string_character_source@D@__crt_strtox@@@__crt_strtox@@YA?AW4floating_point_parse_result@0@QAU__crt_locale_pointers@@AAV?$c_string_character_source@D@0@AAUfloating_point_string@0@@Z 0049e5fc f i libucrt:strtod.obj
 0001:0009d9e5       ??$parse_floating_point_possible_infinity@DV?$c_string_character_source@D@__crt_strtox@@PBD@__crt_strtox@@YA?AW4floating_point_parse_result@0@AADAAV?$c_string_character_source@D@0@PBD@Z 0049e9e5 f i libucrt:strtod.obj
 0001:0009da87       ??$parse_floating_point_possible_nan@DV?$c_string_character_source@D@__crt_strtox@@PBD@__crt_strtox@@YA?AW4floating_point_parse_result@0@AADAAV?$c_string_character_source@D@0@PBD@Z 0049ea87 f i libucrt:strtod.obj
 0001:0009db96       ??$parse_floating_point_possible_nan_is_ind@DV?$c_string_character_source@D@__crt_strtox@@@__crt_strtox@@YA_NAADAAV?$c_string_character_source@D@0@@Z 0049eb96 f i libucrt:strtod.obj
 0001:0009dbd2       ??$parse_floating_point_possible_nan_is_snan@DV?$c_string_character_source@D@__crt_strtox@@@__crt_strtox@@YA_NAADAAV?$c_string_character_source@D@0@@Z 0049ebd2 f i libucrt:strtod.obj
 0001:0009dc0e       ??$parse_floating_point_write_result@M@__crt_strtox@@YA?AW4SLD_STATUS@@W4floating_point_parse_result@0@ABUfloating_point_string@0@QAM@Z 0049ec0e f i libucrt:strtod.obj
 0001:0009dd7a       ??$parse_floating_point_write_result@N@__crt_strtox@@YA?AW4SLD_STATUS@@W4floating_point_parse_result@0@ABUfloating_point_string@0@QAN@Z 0049ed7a f i libucrt:strtod.obj
 0001:0009dec4       ?as_double@floating_point_value@__crt_strtox@@QBEAANXZ 0049eec4 f i libucrt:strtod.obj
 0001:0009dee9       ?as_float@floating_point_value@__crt_strtox@@QBEAAMXZ 0049eee9 f i libucrt:strtod.obj
 0001:0009df0e       ?assemble_floating_point_infinity@__crt_strtox@@YAX_NABVfloating_point_value@1@@Z 0049ef0e f i libucrt:strtod.obj
 0001:0009df4e       ?assemble_floating_point_value@__crt_strtox@@YA?AW4SLD_STATUS@@_KH_N1ABVfloating_point_value@1@@Z 0049ef4e f i libucrt:strtod.obj
 0001:0009e2a3       ?assemble_floating_point_value_from_big_integer@__crt_strtox@@YA?AW4SLD_STATUS@@ABUbig_integer@1@I_N1ABVfloating_point_value@1@@Z 0049f2a3 f i libucrt:strtod.obj
 0001:0009e437       ?assemble_floating_point_zero@__crt_strtox@@YAX_NABVfloating_point_value@1@@Z 0049f437 f i libucrt:strtod.obj
 0001:0009e46c       ?convert_decimal_string_to_floating_type_common@__crt_strtox@@YA?AW4SLD_STATUS@@ABUfloating_point_string@1@ABVfloating_point_value@1@@Z 0049f46c f i libucrt:strtod.obj
 0001:000a0140       ?convert_hexadecimal_string_to_floating_type_common@__crt_strtox@@YA?AW4SLD_STATUS@@ABUfloating_point_string@1@ABVfloating_point_value@1@@Z 004a1140 f i libucrt:strtod.obj
 0001:000a01e6       ?denormal_mantissa_mask@floating_point_value@__crt_strtox@@QBE_KXZ 004a11e6 f i libucrt:strtod.obj
 0001:000a0200       ?divide@__crt_strtox@@YA_KAAUbig_integer@1@ABU21@@Z 004a1200 f i libucrt:strtod.obj
 0001:000a0698       ?normal_mantissa_mask@floating_point_value@__crt_strtox@@QBE_KXZ 004a1698 f i libucrt:strtod.obj
 0001:000a0730       _strtod                    004a1730 f   libucrt:strtod.obj
 0001:000a0747       __fclose_nolock            004a1747 f   libucrt:fclose.obj
 0001:000a07be       _fclose                    004a17be f   libucrt:fclose.obj
 0001:000a08f9       _fopen                     004a18f9 f   libucrt:fopen.obj
 0001:000a0a3b       _setvbuf                   004a1a3b f   libucrt:setvbuf.obj
 0001:000a0b5b       __fwrite_nolock            004a1b5b f   libucrt:fwrite.obj
 0001:000a0cdc       _fwrite                    004a1cdc f   libucrt:fwrite.obj
 0001:000a0d40       _isalpha                   004a1d40 f   libucrt:_ctype.obj
 0001:000a0dd0       _isdigit                   004a1dd0 f   libucrt:_ctype.obj
 0001:000a0e60       _isspace                   004a1e60 f   libucrt:_ctype.obj
 0001:000a0ef0       _isxdigit                  004a1ef0 f   libucrt:_ctype.obj
 0001:000a0fc8       ??$__crt_fast_encode_pointer@PAP6AXXZ@@YAPAP6AXXZQAP6AXXZ@Z 004a1fc8 f i libucrt:onexit.obj
 0001:000a0fc8       ??$__crt_fast_encode_pointer@P6AHXZ@@YAP6AHXZQ6AHXZ@Z 004a1fc8 f i libucrt:onexit.obj
 0001:000a0fc8       ??$__crt_fast_encode_pointer@P6AHPAU_exception@@@Z@@YAP6AHPAU_exception@@@ZQ6AH0@Z@Z 004a1fc8 f i libucrt:matherr.obj
 0001:000a0fc8       ??$__crt_fast_encode_pointer@P6GXPAXK0@Z@@YAP6GXPAXK0@ZQ6GX0K0@Z@Z 004a1fc8 f i libucrt:exit.obj
 0001:000a0fc8       ??$__crt_fast_encode_pointer@PAX@@YAPAXQAX@Z 004a1fc8 f i libucrt:initialization.obj
 0001:000a11cd       ___acrt_initialize_thread_local_exit_callback 004a21cd f   libucrt:exit.obj
 0001:000a11dc       __c_exit                   004a21dc f   libucrt:exit.obj
 0001:000a11eb       __cexit                    004a21eb f   libucrt:exit.obj
 0001:000a11fa       __exit                     004a21fa f   libucrt:exit.obj
 0001:000a1210       __register_thread_local_exe_atexit_callback 004a2210 f   libucrt:exit.obj
 0001:000a1236       _exit                      004a2236 f   libucrt:exit.obj
 0001:000a1300       ??$make_input_adapter_character_source@V?$string_input_adapter@D@__crt_stdio_input@@@__crt_strtox@@YA?AV?$input_adapter_character_source@V?$string_input_adapter@D@__crt_stdio_input@@@0@QAV?$string_input_adapter@D@__crt_stdio_input@@_KQA_N@Z 004a2300 f i libucrt:input.obj
 0001:000a131e       ??$parse_floating_point@V?$input_adapter_character_source@V?$string_input_adapter@D@__crt_stdio_input@@@__crt_strtox@@M@__crt_strtox@@YA?AW4SLD_STATUS@@QAU__crt_locale_pointers@@V?$input_adapter_character_source@V?$string_input_adapter@D@__crt_stdio_input@@@0@QAM@Z 004a231e f i libucrt:input.obj
 0001:000a1397       ??$parse_floating_point@V?$input_adapter_character_source@V?$string_input_adapter@D@__crt_stdio_input@@@__crt_strtox@@N@__crt_strtox@@YA?AW4SLD_STATUS@@QAU__crt_locale_pointers@@V?$input_adapter_character_source@V?$string_input_adapter@D@__crt_stdio_input@@@0@QAN@Z 004a2397 f i libucrt:input.obj
 0001:000a1410       ??$parse_floating_point_from_source@V?$input_adapter_character_source@V?$string_input_adapter@D@__crt_stdio_input@@@__crt_strtox@@@__crt_strtox@@YA?AW4floating_point_parse_result@0@QAU__crt_locale_pointers@@AAV?$input_adapter_character_source@V?$string_input_adapter@D@__crt_stdio_input@@@0@AAUfloating_point_string@0@@Z 004a2410 f i libucrt:input.obj
 0001:000a186d       ??$parse_floating_point_possible_infinity@DV?$input_adapter_character_source@V?$string_input_adapter@D@__crt_stdio_input@@@__crt_strtox@@_K@__crt_strtox@@YA?AW4floating_point_parse_result@0@AADAAV?$input_adapter_character_source@V?$string_input_adapter@D@__crt_stdio_input@@@0@_K@Z 004a286d f i libucrt:input.obj
 0001:000a192c       ??$parse_floating_point_possible_nan@DV?$input_adapter_character_source@V?$string_input_adapter@D@__crt_stdio_input@@@__crt_strtox@@_K@__crt_strtox@@YA?AW4floating_point_parse_result@0@AADAAV?$input_adapter_character_source@V?$string_input_adapter@D@__crt_stdio_input@@@0@_K@Z 004a292c f i libucrt:input.obj
 0001:000a1a47       ??$parse_floating_point_possible_nan_is_ind@DV?$input_adapter_character_source@V?$string_input_adapter@D@__crt_stdio_input@@@__crt_strtox@@@__crt_strtox@@YA_NAADAAV?$input_adapter_character_source@V?$string_input_adapter@D@__crt_stdio_input@@@0@@Z 004a2a47 f i libucrt:input.obj
 0001:000a1a81       ??$parse_floating_point_possible_nan_is_snan@DV?$input_adapter_character_source@V?$string_input_adapter@D@__crt_stdio_input@@@__crt_strtox@@@__crt_strtox@@YA_NAADAAV?$input_adapter_character_source@V?$string_input_adapter@D@__crt_stdio_input@@@0@@Z 004a2a81 f i libucrt:input.obj
 0001:000a1abb       ??$parse_integer@_KV?$input_adapter_character_source@V?$string_input_adapter@D@__crt_stdio_input@@@__crt_strtox@@@__crt_strtox@@YA_KQAU__crt_locale_pointers@@V?$input_adapter_character_source@V?$string_input_adapter@D@__crt_stdio_input@@@0@H_N@Z 004a2abb f i libucrt:input.obj
 0001:000a1d79       ??$process_floating_point_specifier_t@M@?$input_processor@DV?$string_input_adapter@D@__crt_stdio_input@@@__crt_stdio_input@@AAE_NXZ 004a2d79 f i libucrt:input.obj
 0001:000a1ddf       ??$process_floating_point_specifier_t@N@?$input_processor@DV?$string_input_adapter@D@__crt_stdio_input@@@__crt_stdio_input@@AAE_NXZ 004a2ddf f i libucrt:input.obj
 0001:000a1e45       ??$process_string_specifier_tchar@D@?$input_processor@DV?$string_input_adapter@D@__crt_stdio_input@@@__crt_stdio_input@@AAE_NW4conversion_mode@1@D@Z 004a2e45 f i libucrt:input.obj
 0001:000a1fa2       ??$process_string_specifier_tchar@_W@?$input_processor@DV?$string_input_adapter@D@__crt_stdio_input@@@__crt_stdio_input@@AAE_NW4conversion_mode@1@_W@Z 004a2fa2 f i libucrt:input.obj
 0001:000a2109       ??$skip_whitespace@Vstring_input_adapter@__crt_stdio_input@@D@__crt_stdio_input@@YAHAAV?$string_input_adapter@D@0@QAU__crt_locale_pointers@@@Z 004a3109 f i libucrt:input.obj
 0001:000a2138       ??$write_floating_point@M@?$input_processor@DV?$string_input_adapter@D@__crt_stdio_input@@@__crt_stdio_input@@AAE_NABM@Z 004a3138 f i libucrt:input.obj
 0001:000a216c       ??$write_floating_point@N@?$input_processor@DV?$string_input_adapter@D@__crt_stdio_input@@@__crt_stdio_input@@AAE_NABN@Z 004a316c f i libucrt:input.obj
 0001:000a21a6       ??0?$format_string_parser@D@__crt_stdio_input@@QAE@_KQBE@Z 004a31a6 f i libucrt:input.obj
 0001:000a21f0       ??0?$input_adapter_character_source@V?$string_input_adapter@D@__crt_stdio_input@@@__crt_strtox@@QAE@QAV?$string_input_adapter@D@__crt_stdio_input@@_KQA_N@Z 004a31f0 f i libucrt:input.obj
 0001:000a2221       ??0?$input_processor@DV?$string_input_adapter@D@__crt_stdio_input@@@__crt_stdio_input@@QAE@ABV?$string_input_adapter@D@1@_KQBDQAU__crt_locale_pointers@@QAD@Z 004a3221 f i libucrt:input.obj
 0001:000a228f       ?advance@?$format_string_parser@D@__crt_stdio_input@@QAE_NXZ 004a328f f i libucrt:input.obj
 0001:000a23a7       ?get@?$input_adapter_character_source@V?$string_input_adapter@D@__crt_stdio_input@@@__crt_strtox@@QAEDXZ 004a33a7 f i libucrt:input.obj
 0001:000a23de       ?get@?$string_input_adapter@D@__crt_stdio_input@@QAEHXZ 004a33de f i libucrt:input.obj
 0001:000a23f4       ?invert@?$scanset_buffer@E@__crt_stdio_input@@QAEXXZ 004a33f4 f i libucrt:input.obj
 0001:000a2412       ?is_character_allowed_in_string@?$input_processor@DV?$string_input_adapter@D@__crt_stdio_input@@@__crt_stdio_input@@ABE_NW4conversion_mode@2@H@Z 004a3412 f i libucrt:input.obj
 0001:000a2462       ?length@?$format_string_parser@D@__crt_stdio_input@@QBEIXZ 004a3462 f i libucrt:input.obj
 0001:000a24a3       ?process@?$input_processor@DV?$string_input_adapter@D@__crt_stdio_input@@@__crt_stdio_input@@QAEHXZ 004a34a3 f i libucrt:input.obj
 0001:000a2527       ?process_character_count_specifier@?$input_processor@DV?$string_input_adapter@D@__crt_stdio_input@@@__crt_stdio_input@@AAE_NXZ 004a3527 f i libucrt:input.obj
 0001:000a253f       ?process_conversion_specifier@?$input_processor@DV?$string_input_adapter@D@__crt_stdio_input@@@__crt_stdio_input@@AAE_NXZ 004a353f f i libucrt:input.obj
 0001:000a25b3       ?process_floating_point_specifier@?$input_processor@DV?$string_input_adapter@D@__crt_stdio_input@@@__crt_stdio_input@@AAE_NXZ 004a35b3 f i libucrt:input.obj
 0001:000a25e3       ?process_integer_specifier@?$input_processor@DV?$string_input_adapter@D@__crt_stdio_input@@@__crt_stdio_input@@AAE_NI_N@Z 004a35e3 f i libucrt:input.obj
 0001:000a2645       ?process_literal_character@?$input_processor@DV?$string_input_adapter@D@__crt_stdio_input@@@__crt_stdio_input@@AAE_NXZ 004a3645 f i libucrt:input.obj
 0001:000a267b       ?process_literal_character_tchar@?$input_processor@DV?$string_input_adapter@D@__crt_stdio_input@@@__crt_stdio_input@@AAE_ND@Z 004a367b f i libucrt:input.obj
 0001:000a26c9       ?process_state@?$input_processor@DV?$string_input_adapter@D@__crt_stdio_input@@@__crt_stdio_input@@AAE_NXZ 004a36c9 f i libucrt:input.obj
 0001:000a270b       ?process_string_specifier@?$input_processor@DV?$string_input_adapter@D@__crt_stdio_input@@@__crt_stdio_input@@AAE_NW4conversion_mode@2@@Z 004a370b f i libucrt:input.obj
 0001:000a2753       ?process_whitespace@?$input_processor@DV?$string_input_adapter@D@__crt_stdio_input@@@__crt_stdio_input@@AAE_NXZ 004a3753 f i libucrt:input.obj
 0001:000a2770       ?restore_state@?$input_adapter_character_source@V?$string_input_adapter@D@__crt_stdio_input@@@__crt_strtox@@QAE_N_K@Z 004a3770 f i libucrt:input.obj
 0001:000a2795       ?scan_conversion_specifier@?$format_string_parser@D@__crt_stdio_input@@AAE_NXZ 004a3795 f i libucrt:input.obj
 0001:000a2900       ?scan_optional_field_width@?$format_string_parser@D@__crt_stdio_input@@AAE_NXZ 004a3900 f i libucrt:input.obj
 0001:000a299d       ?scan_optional_length_modifier@?$format_string_parser@D@__crt_stdio_input@@AAEXXZ 004a399d f i libucrt:input.obj
 0001:000a2aac       ?scan_optional_literal_character_trail_bytes_tchar@?$format_string_parser@D@__crt_stdio_input@@AAE_ND@Z 004a3aac f i libucrt:input.obj
 0001:000a2afe       ?scan_optional_wide_modifier@?$format_string_parser@D@__crt_stdio_input@@AAEXXZ 004a3afe f i libucrt:input.obj
 0001:000a2b1c       ?scan_scanset_range@?$format_string_parser@D@__crt_stdio_input@@AAE_NXZ 004a3b1c f i libucrt:input.obj
 0001:000a2c54       ?set_wide_for_c_s_or_scanset@?$format_string_parser@D@__crt_stdio_input@@AAEXXZ 004a3c54 f i libucrt:input.obj
 0001:000a2c74       ?to_floating_point_length@__crt_stdio_input@@YAIW4length_modifier@1@@Z 004a3c74 f i libucrt:input.obj
 0001:000a2c97       ?to_integer_length@__crt_stdio_input@@YAIW4length_modifier@1@@Z 004a3c97 f i libucrt:input.obj
 0001:000a2cea       ?unget@?$input_adapter_character_source@V?$string_input_adapter@D@__crt_stdio_input@@@__crt_strtox@@QAEXD@Z 004a3cea f i libucrt:input.obj
 0001:000a2d31       ?unget@?$string_input_adapter@D@__crt_stdio_input@@QAEXH@Z 004a3d31 f i libucrt:input.obj
 0001:000a2d50       ?validate@?$format_string_parser@D@__crt_stdio_input@@QBE_NXZ 004a3d50 f i libucrt:input.obj
 0001:000a2d6c       ?validate@?$input_adapter_character_source@V?$string_input_adapter@D@__crt_stdio_input@@@__crt_strtox@@QBE_NXZ 004a3d6c f i libucrt:input.obj
 0001:000a2d8d       ?validate@?$string_input_adapter@D@__crt_stdio_input@@QAE_NXZ 004a3d8d f i libucrt:input.obj
 0001:000a2daf       ?write_character@?$input_processor@DV?$string_input_adapter@D@__crt_stdio_input@@@__crt_stdio_input@@AAE_NQA_WIAAPA_WAAID@Z 004a3daf f i libucrt:input.obj
 0001:000a2e1c       ?write_integer@?$input_processor@DV?$string_input_adapter@D@__crt_stdio_input@@@__crt_stdio_input@@AAE_N_K@Z 004a3e1c f i libucrt:input.obj
 0001:000a2e8a       ___stdio_common_vsscanf    004a3e8a f   libucrt:input.obj
 0001:000a2eae       __tolower_l                004a3eae f   libucrt:tolower_toupper.obj
 0001:000a2fb2       __toupper_l                004a3fb2 f   libucrt:tolower_toupper.obj
 0001:000a30b7       _tolower                   004a40b7 f   libucrt:tolower_toupper.obj
 0001:000a30e7       _toupper                   004a40e7 f   libucrt:tolower_toupper.obj
 0001:000a3120       _strncmp                   004a4120 f   libucrt:strncmp.obj
 0001:000a3198       ___ascii_stricmp           004a4198 f   libucrt:stricmp.obj
 0001:000a31d1       __stricmp                  004a41d1 f   libucrt:stricmp.obj
 0001:000a321a       __stricmp_l                004a421a f   libucrt:stricmp.obj
 0001:000a32a8       __dexp                     004a42a8 f   libucrt:exp2d.obj
 0001:000a34e0       _exp2                      004a44e0 f   libucrt:exp2d.obj
 0001:000a35aa       __fputc_nolock             004a45aa f   libucrt:fputc.obj
 0001:000a35d3       _fputc                     004a45d3 f   libucrt:fputc.obj
 0001:000a36e0       _strspn                    004a46e0 f   libucrt:strspn.obj
 0001:000a3730       _strcspn                   004a4730 f   libucrt:strcspn.obj
 0001:000a37da       _atof                      004a47da f   libucrt:atof.obj
 0001:000a37ed       _atoi                      004a47ed f   libucrt:atox.obj
 0001:000a3810       _wcsncpy                   004a4810 f   libucrt:wcsncpy.obj
 0001:000a3860       _strpbrk                   004a4860 f   libucrt:strpbrk.obj
 0001:000a38a0       _feof                      004a48a0 f   libucrt:feoferr.obj
 0001:000a3f39       __ftelli64                 004a4f39 f   libucrt:ftell.obj
 0001:000a3f44       __ftelli64_nolock          004a4f44 f   libucrt:ftell.obj
 0001:000a3f4f       _ftell                     004a4f4f f   libucrt:ftell.obj
 0001:000a3f5a       ?LongLongSub@@YAJ_J0PA_J@Z 004a4f5a f i libucrt:fseek.obj
 0001:000a4216       __fseeki64                 004a5216 f   libucrt:fseek.obj
 0001:000a4231       _fseek                     004a5231 f   libucrt:fseek.obj
 0001:000a424c       __fread_nolock_s           004a524c f   libucrt:fread.obj
 0001:000a4432       _fread                     004a5432 f   libucrt:fread.obj
 0001:000a444f       _fread_s                   004a544f f   libucrt:fread.obj
 0001:000a4729       ___acrt_stdio_flush_nolock 004a5729 f   libucrt:fflush.obj
 0001:000a478e       __fflush_nolock            004a578e f   libucrt:fflush.obj
 0001:000a47d6       __flushall                 004a57d6 f   libucrt:fflush.obj
 0001:000a47df       _fflush                    004a57df f   libucrt:fflush.obj
 0001:000a4834       __fgetc_nolock             004a5834 f   libucrt:fgetc.obj
 0001:000a4870       __getc_nolock              004a5870 f   libucrt:fgetc.obj
 0001:000a487b       _fgetc                     004a587b f   libucrt:fgetc.obj
 0001:000a4a46       _fgets                     004a5a46 f   libucrt:fgets.obj
 0001:000a4af7       _fputs                     004a5af7 f   libucrt:fputs.obj
 0001:000a4be1       _malloc                    004a5be1 f   libucrt:malloc.obj
 0001:000a4bec       _abort                     004a5bec f   libucrt:abort.obj
 0001:000a4c30       _free                      004a5c30 f   libucrt:free.obj
 0001:000a4c4b       __strnicmp                 004a5c4b f   libucrt:strnicmp.obj
 0001:000a4cb8       __strnicmp_l               004a5cb8 f   libucrt:strnicmp.obj
 0001:000a4d81       __ctime64                  004a5d81 f   libucrt:ctime.obj
 0001:000a4e00       _strlen                    004a5e00 f   libucrt:strlen.obj
 0001:000a4e8b       __seh_filter_exe           004a5e8b f   libucrt:exception_filter.obj
 0001:000a528d       ___acrt_allocate_buffer_for_argv 004a628d f   libucrt:argv_parsing.obj
 0001:000a52dc       __configure_narrow_argv    004a62dc f   libucrt:argv_parsing.obj
 0001:000a563d       ??$uninitialize@A6AXAAPAPA_W@Z@?$dual_state_global@PAPA_W@__crt_state_management@@QAEXA6AXAAPAPA_W@Z@Z 004a663d f i libucrt:environment_initialization.obj
 0001:000a563d       ??$uninitialize@A6AXAAPAPAD@Z@?$dual_state_global@PAPAD@__crt_state_management@@QAEXA6AXAAPAPAD@Z@Z 004a663d f i libucrt:environment_initialization.obj
 0001:000a569c       ___dcrt_get_or_create_wide_environment_nolock 004a669c f   libucrt:environment_initialization.obj
 0001:000a56a1       ___dcrt_uninitialize_environments_nolock 004a66a1 f   libucrt:environment_initialization.obj
 0001:000a56d8       __initialize_narrow_environment 004a66d8 f   libucrt:environment_initialization.obj
 0001:000a5996       __crt_atexit               004a6996 f   libucrt:onexit.obj
 0001:000a59ac       __execute_onexit_table     004a69ac f   libucrt:onexit.obj
 0001:000a59d9       __initialize_onexit_table  004a69d9 f   libucrt:onexit.obj
 0001:000a5a02       __register_onexit_function 004a6a02 f   libucrt:onexit.obj
 0001:000a5b30       ___acrt_initialize         004a6b30 f   libucrt:initialization.obj
 0001:000a5b42       ___acrt_uninitialize       004a6b42 f   libucrt:initialization.obj
 0001:000a5b72       _terminate                 004a6b72 f   libucrt:terminate.obj
 0001:000a5bae       __query_app_type           004a6bae f   libucrt:report_runtime_error.obj
 0001:000a5bb4       __set_app_type             004a6bb4 f   libucrt:report_runtime_error.obj
 0001:000a5bc3       ___acrt_has_user_matherr   004a6bc3 f   libucrt:matherr.obj
 0001:000a5bdb       ___acrt_initialize_user_matherr 004a6bdb f   libucrt:matherr.obj
 0001:000a5bea       ___acrt_invoke_user_matherr 004a6bea f   libucrt:matherr.obj
 0001:000a5c1c       ___setusermatherr          004a6c1c f   libucrt:matherr.obj
 0001:000a5c31       __get_narrow_winmain_command_line 004a6c31 f   libucrt:argv_winmain.obj
 0001:000a5c84       __initterm                 004a6c84 f   libucrt:initterm.obj
 0001:000a5cc9       __initterm_e               004a6cc9 f   libucrt:initterm.obj
 0001:000a5cf7       __get_fmode                004a6cf7 f   libucrt:setmode.obj
 0001:000a5d24       __set_fmode                004a6d24 f   libucrt:setmode.obj
 0001:000a5d61       __setmode_nolock           004a6d61 f   libucrt:setmode.obj
 0001:000a5e9e       ___acrt_set_locale_changed 004a6e9e f   libucrt:wsetlocale.obj
 0001:000a5ea9       ___acrt_uninitialize_locale 004a6ea9 f   libucrt:wsetlocale.obj
 0001:000a5ed0       __configthreadlocale       004a6ed0 f   libucrt:wsetlocale.obj
 0001:000a5f32       __query_new_mode           004a6f32 f   libucrt:new_mode.obj
 0001:000a5f39       __set_new_mode             004a6f39 f   libucrt:new_mode.obj
 0001:000a5f68       ___p__commode              004a6f68 f   libucrt:ncommode.obj
 0001:000a5f6e       __controlfp_s              004a6f6e f   libucrt:contrlfp.obj
 0001:000a5fcd       _strcpy_s                  004a6fcd f   libucrt:strcpy_s.obj
 0001:000a6027       _calloc                    004a7027 f   libucrt:calloc.obj
 0001:000a6032       _wcsncmp                   004a7032 f   libucrt:wcsncmp.obj
 0001:000a606c       ___acrt_call_reportfault   004a706c f   libucrt:invalid_parameter.obj
 0001:000a61a5       ___acrt_initialize_invalid_parameter_handler 004a71a5 f   libucrt:invalid_parameter.obj
 0001:000a61b4       __invalid_parameter        004a71b4 f   libucrt:invalid_parameter.obj
 0001:000a6218       __invalid_parameter_noinfo 004a7218 f   libucrt:invalid_parameter.obj
 0001:000a6228       __invoke_watson            004a7228 f   libucrt:invalid_parameter.obj
 0001:000a625c       ___acrt_errno_from_os_error 004a725c f   libucrt:errno.obj
 0001:000a629f       ___acrt_errno_map_os_error 004a729f f   libucrt:errno.obj
 0001:000a62c2       ___doserrno                004a72c2 f   libucrt:errno.obj
 0001:000a62d5       __errno                    004a72d5 f   libucrt:errno.obj
 0001:000a62e8       __free_base                004a72e8 f   libucrt:free_base.obj
 0001:000a6322       __malloc_base              004a7322 f   libucrt:malloc_base.obj
 0001:000a6370       __mbtowc_l                 004a7370 f   libucrt:mbtowc.obj
 0001:000a64b2       _mbtowc                    004a74b2 f   libucrt:mbtowc.obj
 0001:000a64cc       __wctomb_s_l               004a74cc f   libucrt:wctomb.obj
 0001:000a6627       _strnlen                   004a7627 f   libucrt:strnlen.obj
 0001:000a6749       _wcsnlen                   004a7749 f   libucrt:strnlen.obj
 0001:000a6c37       ___acrt_getptd             004a7c37 f   libucrt:per_thread_data.obj
 0001:000a6cf4       ___acrt_getptd_head        004a7cf4 f   libucrt:per_thread_data.obj
 0001:000a6d8e       ___acrt_getptd_noexit      004a7d8e f   libucrt:per_thread_data.obj
 0001:000a6e43       ___acrt_initialize_ptd     004a7e43 f   libucrt:per_thread_data.obj
 0001:000a6e6f       ___acrt_uninitialize_ptd   004a7e6f f   libucrt:per_thread_data.obj
 0001:000a6e89       ___acrt_update_locale_info 004a7e89 f   libucrt:locale_update.obj
 0001:000a6eb6       ___acrt_update_multibyte_info 004a7eb6 f   libucrt:locale_update.obj
 0001:000a6ee3       ?__acrt_fp_classify@@YA?AW4__acrt_fp_class@@ABN@Z 004a7ee3 f i libucrt:cvt.obj
 0001:000a7896       ___acrt_fp_format          004a8896 f   libucrt:cvt.obj
 0001:000a79f2       __fileno                   004a89f2 f   libucrt:fileno.obj
 0001:000a7a19       __get_printf_count_output  004a8a19 f   libucrt:printf_count_output.obj
 0001:000a7a2e       ___acrt_should_use_temporary_buffer 004a8a2e f   libucrt:_sftbuf.obj
 0001:000a7a69       ___acrt_stdio_begin_temporary_buffering_nolock 004a8a69 f   libucrt:_sftbuf.obj
 0001:000a7b15       ___acrt_stdio_end_temporary_buffering_nolock 004a8b15 f   libucrt:_sftbuf.obj
 0001:000a7cb9       ___acrt_initialize_lowio   004a8cb9 f   libucrt:ioinit.obj
 0001:000a7d19       ___acrt_uninitialize_lowio 004a8d19 f   libucrt:ioinit.obj
 0001:000a7d45       __calloc_base              004a8d45 f   libucrt:calloc_base.obj
 0001:000a7f88       ___acrt_AppPolicyGetProcessTerminationMethodInternal@4 004a8f88 f   libucrt:winapi_thunks.obj
 0001:000a7fc8       ___acrt_AppPolicyGetThreadInitializationTypeInternal@4 004a8fc8 f   libucrt:winapi_thunks.obj
 0001:000a8008       ___acrt_AreFileApisANSI@0  004a9008 f   libucrt:winapi_thunks.obj
 0001:000a8027       ___acrt_CompareStringEx@36 004a9027 f   libucrt:winapi_thunks.obj
 0001:000a8084       ___acrt_FlsAlloc@4         004a9084 f   libucrt:winapi_thunks.obj
 0001:000a80c3       ___acrt_FlsFree@4          004a90c3 f   libucrt:winapi_thunks.obj
 0001:000a8102       ___acrt_FlsGetValue@4      004a9102 f   libucrt:winapi_thunks.obj
 0001:000a8141       ___acrt_FlsSetValue@8      004a9141 f   libucrt:winapi_thunks.obj
 0001:000a8183       ___acrt_GetDateFormatEx@28 004a9183 f   libucrt:winapi_thunks.obj
 0001:000a81da       ___acrt_GetTimeFormatEx@24 004a91da f   libucrt:winapi_thunks.obj
 0001:000a821f       ___acrt_InitializeCriticalSectionEx@12 004a921f f   libucrt:winapi_thunks.obj
 0001:000a826a       ___acrt_LCMapStringEx@36   004a926a f   libucrt:winapi_thunks.obj
 0001:000a82c7       ___acrt_LocaleNameToLCID@8 004a92c7 f   libucrt:winapi_thunks.obj
 0001:000a82f8       ___acrt_RoInitialize@4     004a92f8 f   libucrt:winapi_thunks.obj
 0001:000a8333       ___acrt_RoUninitialize@0   004a9333 f   libucrt:winapi_thunks.obj
 0001:000a8361       ___acrt_initialize_winapi_thunks 004a9361 f   libucrt:winapi_thunks.obj
 0001:000a838c       ___acrt_uninitialize_winapi_thunks 004a938c f   libucrt:winapi_thunks.obj
 0001:000a83c2       __fcloseall                004a93c2 f   libucrt:closeall.obj
 0001:000a846d       ___acrt_stdio_free_buffer_nolock 004a946d f   libucrt:_freebuf.obj
 0001:000a84ad       ___acrt_get_begin_thread_init_policy 004a94ad f   libucrt:win_policies.obj
 0001:000a84f1       ___acrt_get_process_end_policy 004a94f1 f   libucrt:win_policies.obj
 0001:000a8522       ___acrt_MultiByteToWideChar 004a9522 f   libucrt:multibytetowidechar.obj
 0001:000a859e       ___acrt_WideCharToMultiByte 004a959e f   libucrt:widechartomultibyte.obj
 0001:000a8655       ??$__crt_time_is_leap_year@H@@YA_NH@Z 004a9655 f i libucrt:wcsftime.obj
 0001:000a96de       __Wcsftime_l               004aa6de f   libucrt:wcsftime.obj
 0001:000a984f       __freea_crt                004aa84f f i libucrt:wcsftime.obj
 0001:000a986f       ___acrt_initialize_timeset 004aa86f f   libucrt:timeset.obj
 0001:000a98a4       ___daylight                004aa8a4 f   libucrt:timeset.obj
 0001:000a98aa       ___dstbias                 004aa8aa f   libucrt:timeset.obj
 0001:000a98b0       ___timezone                004aa8b0 f   libucrt:timeset.obj
 0001:000a98b6       ___tzname                  004aa8b6 f   libucrt:timeset.obj
 0001:000a98bc       ___wide_tzname             004aa8bc f   libucrt:timeset.obj
 0001:000a98c2       __get_daylight             004aa8c2 f   libucrt:timeset.obj
 0001:000a98ee       __get_dstbias              004aa8ee f   libucrt:timeset.obj
 0001:000a991a       __get_timezone             004aa91a f   libucrt:timeset.obj
 0001:000a9946       ??$__crt_time_elapsed_leap_years@H@@YAHH@Z 004aa946 f i libucrt:gmtime.obj
 0001:000a9b83       ___getgmtimebuf            004aab83 f   libucrt:gmtime.obj
 0001:000a9bc1       __gmtime64_s               004aabc1 f   libucrt:gmtime.obj
 0001:000aa48f       ___tzset                   004ab48f f   libucrt:tzset.obj
 0001:000aa4ec       __isindst                  004ab4ec f   libucrt:tzset.obj
 0001:000aa540       __wremove                  004ab540 f   libucrt:wunlink.obj
 0001:000aa568       __wrename                  004ab568 f   libucrt:wrename.obj
 0001:000aa595       ___pctype_func             004ab595 f   libucrt:ctype.obj
 0001:000aa5b9       _iswctype                  004ab5b9 f   libucrt:iswctype.obj
 0001:000aa622       __isctype_l                004ab622 f   libucrt:isctype.obj
 0001:000aa6ed       _fegetround                004ab6ed f   libucrt:fegetround.obj
 0001:000aa786       __close                    004ab786 f   libucrt:close.obj
 0001:000aa813       __close_nolock             004ab813 f   libucrt:close.obj
 0001:000aa8af       ?__acrt_stdio_allocate_stream@@YA?AV__crt_stdio_stream@@XZ 004ab8af f   libucrt:stream.obj
 0001:000aa918       ?__acrt_stdio_free_stream@@YAXV__crt_stdio_stream@@@Z 004ab918 f   libucrt:stream.obj
 0001:000aaa15       ??$__acrt_stdio_parse_mode@D@@YA?AU__acrt_stdio_stream_mode@@QBD@Z 004aba15 f i libucrt:openfile.obj
 0001:000aacc2       ?__acrt_stdio_parse_mode_D@@YA_NAAU__acrt_stdio_stream_mode@@@Z 004abcc2 f i libucrt:openfile.obj
 0001:000aacdd       ?__acrt_stdio_parse_mode_T@@YA_NAAU__acrt_stdio_stream_mode@@@Z 004abcdd f i libucrt:openfile.obj
 0001:000aacfc       ?__acrt_stdio_parse_mode_b@@YA_NAAU__acrt_stdio_stream_mode@@@Z 004abcfc f i libucrt:openfile.obj
 0001:000aad1c       ?__acrt_stdio_parse_mode_c@@YA_NAAU__acrt_stdio_stream_mode@@AA_N@Z 004abd1c f i libucrt:openfile.obj
 0001:000aad3e       ?__acrt_stdio_parse_mode_n@@YA_NAAU__acrt_stdio_stream_mode@@AA_N@Z 004abd3e f i libucrt:openfile.obj
 0001:000aad60       ?__acrt_stdio_parse_mode_plus@@YA_NAAU__acrt_stdio_stream_mode@@AA_N@Z 004abd60 f i libucrt:openfile.obj
 0001:000aad96       ?__acrt_stdio_parse_mode_t@@YA_NAAU__acrt_stdio_stream_mode@@@Z 004abd96 f i libucrt:openfile.obj
 0001:000aadb6       ?__acrt_stdio_parse_mode_x@@YA_NAAU__acrt_stdio_stream_mode@@@Z 004abdb6 f i libucrt:openfile.obj
 0001:000aadd6       __openfile                 004abdd6 f   libucrt:openfile.obj
 0001:000ab55c       __write                    004ac55c f   libucrt:write.obj
 0001:000ab64e       __write_nolock             004ac64e f   libucrt:write.obj
 0001:000aba69       ___acrt_stdio_flush_and_write_narrow_nolock 004aca69 f   libucrt:_flsbuf.obj
 0001:000aba74       ___acrt_initialize_locks   004aca74 f   libucrt:locks.obj
 0001:000abab5       ___acrt_lock               004acab5 f   libucrt:locks.obj
 0001:000abacc       ___acrt_uninitialize_locks 004acacc f   libucrt:locks.obj
 0001:000abafd       ___acrt_unlock             004acafd f   libucrt:locks.obj
 0001:000abb14       __isleadbyte_l             004acb14 f i libucrt:_wctype.obj
 0001:000abd38       ___acrt_LCMapStringA       004acd38 f   libucrt:lcmapstringa.obj
 0001:000abdf9       __d_int                    004acdf9 f   libucrt:_test.obj
 0001:000abeff       __dtest                    004aceff f   libucrt:_test.obj
 0001:000abf63       __fperrraise               004acf63 f   libucrt:_test.obj
 0001:000abf86       __dscale                   004acf86 f   libucrt:_scale.obj
 0001:000ac375       __lseeki64                 004ad375 f   libucrt:lseek.obj
 0001:000ac390       __lseeki64_nolock          004ad390 f   libucrt:lseek.obj
 0001:000ac880       __read                     004ad880 f   libucrt:read.obj
 0001:000ac994       __read_nolock              004ad994 f   libucrt:read.obj
 0001:000acece       ___acrt_stdio_refill_and_read_narrow_nolock 004adece f   libucrt:_filbuf.obj
 0001:000acf7b       __commit                   004adf7b f   libucrt:commit.obj
 0001:000ad0c6       ___acrt_get_sigabrt_handler 004ae0c6 f   libucrt:signal.obj
 0001:000ad0ed       ___acrt_initialize_signal_handlers 004ae0ed f   libucrt:signal.obj
 0001:000ad10b       _raise                     004ae10b f   libucrt:signal.obj
 0001:000ad300       ___ascii_strnicmp          004ae300 f   libucrt:_strnicm.obj
 0001:000ad50b       ?__crt_time_is_day_valid@@YA_NHHH@Z 004ae50b f i libucrt:asctime.obj
 0001:000ad54e       _asctime                   004ae54e f   libucrt:asctime.obj
 0001:000adb82       ?allocate@?$__crt_win32_buffer@DU__crt_win32_buffer_internal_dynamic_resizing@@@@QAEHI@Z 004aeb82 f i libucrt:argv_wildcards.obj
 0001:000adc45       ___acrt_expand_narrow_argv_wildcards 004aec45 f   libucrt:argv_wildcards.obj
 0001:000adc50       ___acrt_GetModuleFileNameA 004aec50 f   libucrt:getmodulefilenamea.obj
 0001:000ae209       ___acrt_initialize_multibyte 004af209 f   libucrt:mbctype.obj
 0001:000ae251       ___acrt_update_thread_multibyte_data 004af251 f   libucrt:mbctype.obj
 0001:000ae264       __setmbcp_nolock           004af264 f   libucrt:mbctype.obj
 0001:000ae4ae       __ismbblead                004af4ae f   libucrt:ismbbyte.obj
 0001:000ae4c6       ___acrt_initialize_command_line 004af4c6 f   libucrt:argv_data.obj
 0001:000ae4df       _wcscpy_s                  004af4df f   libucrt:wcscpy_s.obj
 0001:000ae57a       ___dcrt_get_narrow_environment_from_os 004af57a f   libucrt:get_environment_from_os.obj
 0001:000ae5fe       ___dcrt_get_wide_environment_from_os 004af5fe f   libucrt:get_environment_from_os.obj
 0001:000ae9d1       ___dcrt_set_variable_in_wide_environment_nolock 004af9d1 f   libucrt:setenv.obj
 0001:000ae9dc       __recalloc_base            004af9dc f   libucrt:recalloc.obj
 0001:000aea49       ___acrt_initialize_heap    004afa49 f   libucrt:heap_handle.obj
 0001:000aea5a       ___acrt_uninitialize_heap  004afa5a f   libucrt:heap_handle.obj
 0001:000aea64       ___acrt_execute_initializers 004afa64 f   libucrt:shared_initialization.obj
 0001:000aeacc       ___acrt_execute_uninitializers 004afacc f   libucrt:shared_initialization.obj
 0001:000aeafd       ___acrt_initialize_new_handler 004afafd f   libucrt:new_handler.obj
 0001:000aeb0c       __callnewh                 004afb0c f   libucrt:new_handler.obj
 0001:000aeb39       __query_new_handler        004afb39 f   libucrt:new_handler.obj
 0001:000aec60       _wcsncpy_s                 004afc60 f   libucrt:wcsncpy_s.obj
 0001:000aec6b       ___acrt_lowio_create_handle_array 004afc6b f   libucrt:osfinfo.obj
 0001:000aece6       ___acrt_lowio_destroy_handle_array 004afce6 f   libucrt:osfinfo.obj
 0001:000aed1b       ___acrt_lowio_ensure_fh_exists 004afd1b f   libucrt:osfinfo.obj
 0001:000aedb9       ___acrt_lowio_lock_fh      004afdb9 f   libucrt:osfinfo.obj
 0001:000aeddc       ___acrt_lowio_set_os_handle 004afddc f   libucrt:osfinfo.obj
 0001:000aee6e       ___acrt_lowio_unlock_fh    004afe6e f   libucrt:osfinfo.obj
 0001:000aee91       __alloc_osfhnd             004afe91 f   libucrt:osfinfo.obj
 0001:000aefa4       __free_osfhnd              004affa4 f   libucrt:osfinfo.obj
 0001:000af035       __get_osfhandle            004b0035 f   libucrt:osfinfo.obj
 0001:000af09f       ___acrt_initialize_fmode   004b009f f   libucrt:txtmode.obj
 0001:000af0b5       ____lc_codepage_func       004b00b5 f   libucrt:initctype.obj
 0001:000af0da       ___acrt_locale_free_monetary 004b00da f   libucrt:initmon.obj
 0001:000af1d8       ___acrt_locale_free_numeric 004b01d8 f   libucrt:initnum.obj
 0001:000af279       ___acrt_locale_free_time   004b0279 f   libucrt:inittime.obj
 0001:000af35d       ___acrt_GetStringTypeA     004b035d f   libucrt:getstringtypea.obj
 0001:000af460       ___acrt_add_locale_ref     004b0460 f   libucrt:locale_refcounting.obj
 0001:000af4dd       ___acrt_free_locale        004b04dd f   libucrt:locale_refcounting.obj
 0001:000af625       ___acrt_locale_add_lc_time_reference 004b0625 f   libucrt:locale_refcounting.obj
 0001:000af64e       ___acrt_locale_free_lc_time_if_unreferenced 004b064e f   libucrt:locale_refcounting.obj
 0001:000af67f       ___acrt_locale_release_lc_time_reference 004b067f f   libucrt:locale_refcounting.obj
 0001:000af6a8       ___acrt_release_locale_ref 004b06a8 f   libucrt:locale_refcounting.obj
 0001:000af729       ___acrt_update_thread_locale_data 004b0729 f   libucrt:locale_refcounting.obj
 0001:000af7aa       __updatetlocinfoEx_nolock  004b07aa f   libucrt:locale_refcounting.obj
 0001:000af8a1       __clearfp                  004b08a1 f   libucrt:ieee87.obj
 0001:000af97f       __control87                004b097f f   libucrt:ieee87.obj
 0001:000afd4a       ?__mbrtowc_utf8@__crt_mbstring@@YAIPA_WPBDIPAU_Mbstatet@@@Z 004b0d4a f   libucrt:mbrtowc.obj
 0001:000afd8a       ?__mbsrtowcs_utf8@__crt_mbstring@@YAIPA_WPAPBDIPAU_Mbstatet@@@Z 004b0d8a f   libucrt:mbrtowc.obj
 0001:000afe85       ?__c32rtomb_utf8@__crt_mbstring@@YAIPAD_UPAU_Mbstatet@@@Z 004b0e85 f   libucrt:c32rtomb.obj
 0001:000aff30       ?return_illegal_sequence@__crt_mbstring@@YAIPAU_Mbstatet@@@Z 004b0f30 f i libucrt:c32rtomb.obj
 0001:000affc9       ___acrt_fp_strflt_to_string 004b0fc9 f   libucrt:_fptostr.obj
 0001:000b00a5       ___acrt_fltout             004b10a5 f   libucrt:cfout.obj
 0001:000b15ac       __isatty                   004b25ac f   libucrt:isatty.obj
 0001:000b1652       ___acrt_DownlevelLocaleNameToLCID 004b2652 f   libucrt:lcidtoname_downlevel.obj
 0001:000b167e       ___ascii_wcsicmp           004b267e f   libucrt:wcsicmp.obj
 0001:000b16bb       __towlower_internal        004b26bb f i libucrt:wcsicmp.obj
 0001:000b16fa       __wcsicmp                  004b26fa f   libucrt:wcsicmp.obj
 0001:000b1743       __wcsicmp_l                004b2743 f   libucrt:wcsicmp.obj
 0001:000b1995       __wgetenv_s                004b2995 f   libucrt:getenv.obj
 0001:000b19a0       ___acrt_GetStringTypeW     004b29a0 f   libucrt:getstringtypew.obj
 0001:000b1cd6       ___acrt_fenv_get_common_round_control 004b2cd6 f   libucrt:_fenvutils.obj
 0001:000b1cf8       ___acrt_fenv_get_control   004b2cf8 f   libucrt:_fenvutils.obj
 0001:000b1d78       ___acrt_fenv_get_fp_status_word_from_exception_mask 004b2d78 f   libucrt:_fenvutils.obj
 0001:000b1d92       ___acrt_fenv_get_status    004b2d92 f   libucrt:_fenvutils.obj
 0001:000b1e4a       ___acrt_fenv_set_control   004b2e4a f   libucrt:_fenvutils.obj
 0001:000b1eb2       ___acrt_fenv_set_status    004b2eb2 f   libucrt:_fenvutils.obj
 0001:000b1fa9       ___ascii_wcsnicmp          004b2fa9 f   libucrt:wcsnicmp.obj
 0001:000b25c5       __sopen_nolock             004b35c5 f   libucrt:open.obj
 0001:000b2633       __sopen_s                  004b3633 f   libucrt:open.obj
 0001:000b2653       __wsopen_nolock            004b3653 f   libucrt:open.obj
 0001:000b297d       __putwch_nolock            004b397d f   libucrt:putwch.obj
 0001:000b29af       ___acrt_stdio_allocate_buffer_nolock 004b39af f   libucrt:_getbuf.obj
 0001:000b2a0b       ___strncnt                 004b3a0b f   libucrt:strncnt.obj
 0001:000b2a27       _fegetexceptflag           004b3a27 f   libucrt:fegetexceptflag.obj
 0001:000b2a58       _fesetexceptflag           004b3a58 f   libucrt:fesetexceptflag.obj
 0001:000b2ab1       __dnorm                    004b3ab1 f   libucrt:_norm.obj
 0001:000b2c50       _qsort                     004b3c50 f   libucrt:qsort.obj
 0001:000b31f1       _strncpy_s                 004b41f1 f   libucrt:strncpy_s.obj
 0001:000b31fc       __mbsdec                   004b41fc f   libucrt:mbsdec.obj
 0001:000b3213       __mbsdec_l                 004b4213 f   libucrt:mbsdec.obj
 0001:000b32af       __wcsnicoll                004b42af f   libucrt:wcsnicol.obj
 0001:000b331c       __wcsnicoll_l              004b431c f   libucrt:wcsnicol.obj
 0001:000b33dc       __msize_base               004b43dc f   libucrt:msize.obj
 0001:000b340f       __realloc_base             004b440f f   libucrt:realloc_base.obj
 0001:000b3478       ___set_fpsr_sse2           004b4478 f   libucrt:fpctrl.obj
 0001:000b34f8       __clrfp                    004b44f8 f   libucrt:fpctrl.obj
 0001:000b3509       __ctrlfp                   004b4509 f   libucrt:fpctrl.obj
 0001:000b3533       __set_statfp               004b4533 f   libucrt:fpctrl.obj
 0001:000b358c       __statfp                   004b458c f   libucrt:fpctrl.obj
 0001:000b359c       ?__mbrtoc32_utf8@__crt_mbstring@@YAIPA_UPBDIPAU_Mbstatet@@@Z 004b459c f   libucrt:mbrtoc32.obj
 0001:000b3743       _fegetenv                  004b4743 f   libucrt:fegetenv.obj
 0001:000b3760       _fesetenv                  004b4760 f   libucrt:fesetenv.obj
 0001:000b37ab       _feholdexcept              004b47ab f   libucrt:feholdexcept.obj
 0001:000b3800       __CIlog10                  004b4800 f   libucrt:log10_impl.obj
 0001:000b383b       __CIlog10_default          004b483b f   libucrt:log10_impl.obj
 0001:000b384f       __log10_default            004b484f     libucrt:log10_impl.obj
 0001:000b3910       _ceil                      004b4910 f   libucrt:ceil_pentium4.obj
 0001:000b3950       __ceil_pentium4            004b4950 f   libucrt:ceil_pentium4.obj
 0001:000b3a2d       __towlower_l               004b4a2d f   libucrt:towlower.obj
 0001:000b3acf       ??0__crt_seek_guard@@QAE@H_J@Z 004b4acf f i libucrt:chsize.obj
 0001:000b3b1c       __chsize_nolock            004b4b1c f   libucrt:chsize.obj
 0001:000b3cab       ___dcrt_lowio_ensure_console_output_initialized 004b4cab f   libucrt:initcon.obj
 0001:000b3cca       ___dcrt_terminate_console_output 004b4cca f   libucrt:initcon.obj
 0001:000b3ce1       ___dcrt_write_console      004b4ce1 f   libucrt:initcon.obj
 0001:000b3d36       _fetestexcept              004b4d36 f   libucrt:fetestexcept.obj
 0001:000b3d56       ___acrt_CompareStringW     004b4d56 f   libucrt:comparestringw.obj
 0001:000b3dbb       ___acrt_initialize_sse2    004b4dbb f   libucrt:mathfcns.obj
 0001:000b3dd0       __CIlog10_pentium4         004b4dd0 f   libucrt:log10_pentium4.obj
 0001:000b3de8       __log10_pentium4           004b4de8     libucrt:log10_pentium4.obj
 0001:000b4080       __fFEXP                    004b5080 f   libucrt:87tran.obj
 0001:000b40d7       __rtinfpopse               004b50d7     libucrt:87tran.obj
 0001:000b40d9       __rtinfnpopse              004b50d9     libucrt:87tran.obj
 0001:000b40e9       __fFLN                     004b50e9     libucrt:87tran.obj
 0001:000b419e       __rtinfpop                 004b519e     libucrt:87tran.obj
 0001:000b41a0       __rtinfnpop                004b51a0     libucrt:87tran.obj
 0001:000b41b0       __rtforexpinf              004b51b0 f   libucrt:87tran.obj
 0001:000b41bd       __ffexpm1                  004b51bd     libucrt:87tran.obj
 0001:000b4270       __trandisp1                004b5270 f   libucrt:87disp.obj
 0001:000b42e5       __trandisp2                004b52e5 f   libucrt:87disp.obj
 0001:000b437f       __rttospopde               004b537f     libucrt:87disp.obj
 0001:000b4384       __rttospop                 004b5384     libucrt:87disp.obj
 0001:000b4390       __rtnospop                 004b5390 f   libucrt:87disp.obj
 0001:000b43a0       __rttosnpop                004b53a0 f   libucrt:87disp.obj
 0001:000b43a1       __rtnospopde               004b53a1     libucrt:87disp.obj
 0001:000b43a8       __rtzeropop                004b53a8     libucrt:87disp.obj
 0001:000b43aa       __rtzeronpop               004b53aa     libucrt:87disp.obj
 0001:000b43b0       __rtzerospop               004b53b0 f   libucrt:87disp.obj
 0001:000b43bd       __rtonepop                 004b53bd     libucrt:87disp.obj
 0001:000b43c0       __rtonenpop                004b53c0 f   libucrt:87disp.obj
 0001:000b43d0       __tosnan1                  004b53d0 f   libucrt:87disp.obj
 0001:000b4400       __nosnan2                  004b5400 f   libucrt:87disp.obj
 0001:000b4410       __tosnan2                  004b5410 f   libucrt:87disp.obj
 0001:000b4440       __nan2                     004b5440 f   libucrt:87disp.obj
 0001:000b4480       __rtindfpop                004b5480 f   libucrt:87disp.obj
 0001:000b4482       __rtindfnpop               004b5482     libucrt:87disp.obj
 0001:000b4493       __rttosnpopde              004b5493     libucrt:87disp.obj
 0001:000b44a0       __rtatan2inf               004b54a0 f   libucrt:87disp.obj
 0001:000b44bd       __rtchsifneg               004b54bd     libucrt:87disp.obj
 0001:000b44d0       __twoToTOS                 004b54d0 f   libucrt:common.obj
 0001:000b44e5       __load_CW                  004b54e5 f   libucrt:common.obj
 0001:000b44fc       __convertTOStoQNaN         004b54fc f   libucrt:common.obj
 0001:000b4515       __fload_withFB             004b5515 f   libucrt:common.obj
 0001:000b4558       __checkTOS_withFB          004b5558 f   libucrt:common.obj
 0001:000b456e       __fast_exit                004b556e f   libucrt:common.obj
 0001:000b457b       __math_exit                004b557b f   libucrt:common.obj
 0001:000b45a5       __check_overflow_exit      004b55a5 f   libucrt:common.obj
 0001:000b45b9       __check_range_exit         004b55b9 f   libucrt:common.obj
 0001:000b4660       __startTwoArgErrorHandling 004b5660 f   libucrt:genexcep.obj
 0001:000b4677       __startOneArgErrorHandling 004b5677 f   libucrt:genexcep.obj
 0001:000b46b3       ___libm_error_support      004b56b3 f   libucrt:libm_error.obj
 0001:000b48a7       __ceil_default             004b58a7 f   libucrt:ceil.obj
 0001:000b495c       ___acrt_LCMapStringW       004b595c f   libucrt:lcmapstringw.obj
 0001:000b499a       __d_inttype                004b599a f   libucrt:powhlp.obj
 0001:000b4a02       __powhlp                   004b5a02 f   libucrt:powhlp.obj
 0001:000b4b2d       __87except                 004b5b2d f   libucrt:87except.obj
 0001:000b4c37       __frnd                     004b5c37 f   libucrt:frnd.obj
 0001:000b4c4b       __errcode                  004b5c4b f   libucrt:fpexcept.obj
 0001:000b4c7f       __except1                  004b5c7f f   libucrt:fpexcept.obj
 0001:000b4d4d       __handle_exc               004b5d4d f   libucrt:fpexcept.obj
 0001:000b4f38       __raise_exc                004b5f38 f   libucrt:fpexcept.obj
 0001:000b4f5b       __raise_exc_ex             004b5f5b f   libucrt:fpexcept.obj
 0001:000b5251       __set_errno_from_matherr   004b6251 f   libucrt:fpexcept.obj
 0001:000b5280       __umatherr                 004b6280 f   libucrt:fpexcept.obj
 0001:000b5320       __decomp                   004b6320 f   libucrt:util.obj
 0001:000b53f2       __set_exp                  004b63f2 f   libucrt:util.obj
 0001:000b541f       __sptype                   004b641f f   libucrt:util.obj
 0001:000b547d       __fpclass                  004b647d f   libucrt:ieeemisc.obj
 0001:000b5530       __FindPESection            004b6530 f   LIBCMT:pesect.obj
 0001:000b5580       __IsNonwritableInCurrentImage 004b6580 f   LIBCMT:pesect.obj
 0001:000b5640       __ValidateImageBase        004b6640 f   LIBCMT:pesect.obj
 0001:000b5673       __EH_prolog3_catch         004b6673 f   LIBCMT:ehprolg3.obj
 0001:000b56b0       __aulldvrm                 004b66b0 f   LIBCMT:ulldvrm.obj
 0001:000b5750       __alldiv                   004b6750 f   LIBCMT:lldiv.obj
 0001:000b5800       __alldvrm                  004b6800 f   LIBCMT:lldvrm.obj
 0001:000b58e0       __allrem                   004b68e0 f   LIBCMT:llrem.obj
 0001:000b59a0       __allmul                   004b69a0 f   LIBCMT:llmul.obj
 0001:000b59e0       __allshl                   004b69e0 f   LIBCMT:llshl.obj
 0001:000b5a00       __aullshr                  004b6a00 f   LIBCMT:ullshr.obj
 0001:000b5a20       __ftol2_sse                004b6a20 f   LIBCMT:ftol2.obj
 0001:000b5a30       __ftoi2                    004b6a30 f   LIBCMT:ftol2.obj
 0001:000b5ab0       __chkstk                   004b6ab0 f   LIBCMT:chkstk.obj
 0001:000b5ab0       __alloca_probe             004b6ab0 f   LIBCMT:chkstk.obj
 0001:000b5ae0       __alloca_probe_16          004b6ae0 f   LIBCMT:alloca16.obj
 0001:000b5af6       __alloca_probe_8           004b6af6     LIBCMT:alloca16.obj
 0001:000b5b0c       _wcschr                    004b6b0c f   libvcruntime:wcschr.obj
 0001:000b5bd3       __filter_x86_sse2_floating_point_exception_default 004b6bd3 f   LIBCMT:x86_exception_filter.obj
 0001:000b5bd3       __filter_x86_sse2_floating_point_exception 004b6bd3 f   LIBCMT:x86_exception_filter.obj
 0001:000b5ce0       ?shouldsaveblendmap@@YAEXZ 004b6ce0 f   blend.obj
 0001:000b5cf0       ?saveblendmap@@YAXPAUstream@@@Z 004b6cf0 f   blend.obj
 0001:000b5d10       ?saveblendmap@@YAXPAUstream@@EAAUBlendMapNode@@@Z 004b6d10 f   blend.obj
 0001:000b5d80       ?loadblendmap@@YA_NPAUstream@@H@Z 004b6d80 f   blend.obj
 0001:000b5dd0       ?loadblendmap@@YA_NPAUstream@@AAEAAUBlendMapNode@@@Z 004b6dd0 f   blend.obj
 0001:000b5ee0       ?renderblendbrush@@YAXXZ   004b6ee0 f   blend.obj
 0001:000b6090       ?run@?$_icmd_moveblendmap@$0EDD@@@SAXPAH0@Z 004b7090 f   blend.obj
 0001:000b61c0       ?run@?$_icmd_clearblendmap@$0ECE@@@SAXXZ 004b71c0 f   blend.obj
 0001:000b6240       ?showblendmap@@YAXXZ       004b7240 f   blend.obj
 0001:000b62d0       ?run@?$_icmd_invertblendmap@$0EBG@@@SAXXZ 004b72d0 f   blend.obj
 0001:000b6430       ?invertblendmapsel@@YAXXZ  004b7430 f   blend.obj
 0001:000b65e0       ?clearblendmapsel@@YAXXZ   004b75e0 f   blend.obj
 0001:000b6790       ?run@?$_icmd_paintblendmap@$0DPD@@@SAXPAH@Z 004b7790 f   blend.obj
 0001:000b67d0       ?trypaintblendmap@@YAXXZ   004b77d0 f   blend.obj
 0001:000b6830       ?stoppaintblendmap@@YAXXZ  004b7830 f   blend.obj
 0001:000b6850       ?paintblendmap@@YAX_N@Z    004b7850 f   blend.obj
 0001:000b69f0       ?run@?$_icmd_rotateblendbrush@$0DMG@@@SAXPAH@Z 004b79f0 f   blend.obj
 0001:000b6bd0       ?canpaintblendmap@@YA_N_N00@Z 004b7bd0 f   blend.obj
 0001:000b6c60       ?run@?$_icmd_curblendbrush@$0DKL@@@SAXXZ 004b7c60 f   blend.obj
 0001:000b6c80       ?run@?$_icmd_getblendbrushname@$0DKJ@@@SAXPAH@Z 004b7c80 f   blend.obj
 0001:000b6cf0       ?run@?$_icmd_setblendbrush@$0DKE@@@SAXPAD@Z 004b7cf0 f   blend.obj
 0001:000b6d60       ?run@?$_icmd_nextblendbrush@$0DJP@@@SAXPAH@Z 004b7d60 f   blend.obj
 0001:000b6db0       ?addblendbrush@@YAXPBD0@Z  004b7db0 f   blend.obj
 0001:000b7060       ?delblendbrush@@YAXPBD@Z   004b8060 f   blend.obj
 0001:000b7160       ?run@?$_icmd_clearblendbrushes@$0DGO@@@SAXXZ 004b8160 f   blend.obj
 0001:000b71e0       ?cleanupblendmap@@YAXXZ    004b81e0 f   blend.obj
 0001:000b7290       ?clearblendtextures@@YAXXZ 004b8290 f   blend.obj
 0001:000b7310       ?updateblendtextures@@YAXHHHH@Z 004b8310 f   blend.obj
 0001:000b7a50       ?bindblendtexture@@YAXABUivec@@@Z 004b8a50 f   blend.obj
 0001:000b7fb0       ?dumpblendtexs@@YAXXZ      004b8fb0 f   blend.obj
 0001:000b8120       ?var_blendtexsize@@YAXPAUident@@@Z 004b9120 f   blend.obj
 0001:000b8160       ?moveblendmap@@YAXHH@Z     004b9160 f   blend.obj
 0001:000b81c0       ?moveblendmap@@YAXEAAUBlendMapNode@@HHHHH@Z 004b91c0 f   blend.obj
 0001:000b82b0       ?calcblendlayer@@YAHHHHH@Z 004b92b0 f   blend.obj
 0001:000b8570       ?shrinkblendmap@@YAXH@Z    004b9570 f   blend.obj
 0001:000b85d0       ?enlargeblendmap@@YAXXZ    004b95d0 f   blend.obj
 0001:000b8630       ?resetblendmap@@YAXXZ      004b9630 f   blend.obj
 0001:000b8660       ?blitblendmap@@YAXPAEHHHHH@Z 004b9660 f   blend.obj
 0001:000b8db0       ?var_blendpaintmode@@YAXPAUident@@@Z 004b9db0 f   blend.obj
 0001:000b8dd0       ?run@?$_icmd_optimizeblendmap@$0BGF@@@SAXXZ 004b9dd0 f   blend.obj
 0001:000b8de0       ?optimizeblendmap@@YAXXZ   004b9de0 f   blend.obj
 0001:000b8f10       ?invertblendmap@@YAXHHHH@Z 004b9f10 f   blend.obj
 0001:000b91d0       ?fillblendmap@@YAXHHHHE@Z  004ba1d0 f   blend.obj
 0001:000b9520       ?shrink@BlendMapBranch@@QAEEAAUBlendMapNode@@H@Z 004ba520 f   blend.obj
 0001:000b9550       ?splitsolid@BlendMapNode@@QAEXAAEE@Z 004ba550 f   blend.obj
 0001:000b95c0       ?cleanup@BlendMapNode@@QAEXH@Z 004ba5c0 f   blend.obj
 0001:000b96d0       ?initlights@@YAXXZ         004ba6d0 f   light.obj
 0001:000b9720       ?clearlights@@YAXXZ        004ba720 f   light.obj
 0001:000b97a0       ?run@?$_icmd_calclight@$0CBN@@@SAXXZ 004ba7a0 f   light.obj
 0001:000b97c0       ?mpcalclight@@YAX_N@Z      004ba7c0 f   light.obj
 0001:000b97f0       ?calclight@@YAXXZ          004ba7f0 f   light.obj
 0001:000bad70       ?show_calclight_progress@@YAXXZ 004bbd70 f   light.obj
 0001:000bade0       ?check_calclight_canceled@@YAXXZ 004bbde0 f   light.obj
 0001:000baea0       ?reserve@PackNode@@QAEXGGGG@Z 004bbea0 f   light.obj
 0001:000bb320       ?insert@PackNode@@QAE_NAAG0GG@Z 004bc320 f   light.obj
 0001:000bb590       ?setsurface@@YAXAAUcube@@HABUsurfaceinfo@@PBUvertinfo@@H@Z 004bc590 f   light.obj
 0001:000bb810       ?setsurfaces@@YAXAAUcube@@PBUsurfaceinfo@@PBUvertinfo@@H@Z 004bc810 f   light.obj
 0001:000bb870       ?brightencube@@YAXAAUcube@@@Z 004bc870 f   light.obj
 0001:000bb8a0       ?setupsunlight@@YAXXZ      004bc8a0 f   light.obj
 0001:000bb8e0       ?setsunlightdir@@YAXXZ     004bc8e0 f   light.obj
 0001:000bba20       ?var_sunlightpitch@@YAXPAUident@@@Z 004bca20 f   light.obj
 0001:000bba30       ?var_sunlightyaw@@YAXPAUident@@@Z 004bca30 f   light.obj
 0001:000bba40       ?var_sunlightscale@@YAXPAUident@@@Z 004bca40 f   light.obj
 0001:000bba80       ?var_sunlight@@YAXPAUident@@@Z 004bca80 f   light.obj
 0001:000bbb30       ?var_skylight@@YAXPAUident@@@Z 004bcb30 f   light.obj
 0001:000bbb70       ?var_ambient@@YAXPAUident@@@Z 004bcb70 f   light.obj
 0001:000bbbb0       ?previewblends@@YAXABUivec@@0@Z 004bcbb0 f   light.obj
 0001:000bbd00       ?run@?$_icmd_smoothangle@$0BBI@@@SAXPAH0@Z 004bcd00 f   normal.obj
 0001:000bbd30       ?smoothangle@@YAHHH@Z      004bcd30 f   normal.obj
 0001:000bbdb0       ?addnormals@@YAXAAUcube@@ABUivec@@H@Z 004bcdb0 f   normal.obj
 0001:000bccc0       ?show_addnormals_progress@@YAXXZ 004bdcc0 f   normal.obj
 0001:000bd550       ?findnormal@@YAXABUvec@@H0AAU1@@Z 004be550 f   normal.obj
 0001:000bd610       ?calcnormals@@YAX_N@Z      004be610 f   normal.obj
 0001:000bd690       ?clearnormals@@YAXXZ       004be690 f   normal.obj
 0001:000bd6f0       ?resetsmoothgroups@@YAXXZ  004be6f0 f   normal.obj
 0001:000bd920       ?calcmerges@@YAXXZ         004be920 f   octa.obj
 0001:000bd9f0       ?genmerges@@YAXPAUcube@@ABUivec@@H@Z 004be9f0 f   octa.obj
 0001:000bdf00       ?mergepolys@@YAXHABUivec@@0HAAU?$vector@Upoly@@@@@Z 004bef00 f   octa.obj
 0001:000be380       ?addmerges@@YAXHABUivec@@0HAAU?$vector@Upoly@@@@@Z 004bf380 f   octa.obj
 0001:000be440       ?addmerge@@YAXAAUcube@@HABUivec@@1HAAUpoly@@@Z 004bf440 f   octa.obj
 0001:000be6e0       ?mergepolys@@YA_NHAAU?$hashset@Uplink@@@@AAU?$vector@PAUplink@@@@HAAUpoly@@2ABUpedge@@@Z 004bf6e0 f   octa.obj
 0001:000beae0       ?genpoly@@YA_NAAUcube@@HABUivec@@HHAAU2@AAHAAUpoly@@@Z 004bfae0 f   octa.obj
 0001:000bf3e0       ?clippoly@@YA_NAAUpoly@@ABUfacebounds@@@Z 004c03e0 f   octa.obj
 0001:000bf8c0       ?mincubeface@@YA_NABUcube@@HABUivec@@HAAUfacebounds@@@Z 004c08c0 f   octa.obj
 0001:000bf9a0       ?mincubeface@@YAXABUcube@@HABUivec@@HABUfacebounds@@AAU3@GG@Z 004c09a0 f   octa.obj
 0001:000bfe70       ?genclipplanes@@YAXABUcube@@ABUivec@@HAAUclipplanes@@_N3@Z 004c0e70 f   octa.obj
 0001:000c0290       ?genclipbounds@@YAXABUcube@@ABUivec@@HAAUclipplanes@@@Z 004c1290 f   octa.obj
 0001:000c04c0       ?calcvert@@YAXABUcube@@ABUivec@@HAAUvec@@H_N@Z 004c14c0 f   octa.obj
 0001:000c0540       ?classifyface@@YAHABUcube@@HABUivec@@H@Z 004c1540 f   octa.obj
 0001:000c09a0       ?visibleface@@YA_NABUcube@@HABUivec@@HGGG@Z 004c19a0 f   octa.obj
 0001:000c0f50       ?collapsedface@@YA_NABUcube@@H@Z 004c1f50 f   octa.obj
 0001:000c2410       ?faceedges@@YAIABUcube@@H@Z 004c3410 f   octa.obj
 0001:000c24b0       ?faceconvexity@@YAHABUcube@@H@Z 004c34b0 f   octa.obj
 0001:000c2500       ?faceconvexity@@YAHQBUivec@@AAH@Z 004c3500 f   octa.obj
 0001:000c2660       ?notouchingface@@YA_NABUcube@@H@Z 004c3660 f   octa.obj
 0001:000c2690       ?touchingface@@YA_NABUcube@@H@Z 004c3690 f   octa.obj
 0001:000c26c0       ?collideface@@YA_NABUcube@@H@Z 004c36c0 f   octa.obj
 0001:000c2770       ?run@?$_icmd_remip@$0CEL@@@SAXXZ 004c3770 f   octa.obj
 0001:000c27a0       ?mpremip@@YAX_N@Z          004c37a0 f   octa.obj
 0001:000c27d0       ?remip@@YA_NAAUcube@@ABUivec@@H@Z 004c37d0 f   octa.obj
 0001:000c2e30       ?visibleorient@@YAHABUcube@@H@Z 004c3e30 f   octa.obj
 0001:000c2ee0       ?crushededge@@YA_NEH@Z     004c3ee0 f   octa.obj
 0001:000c2f00       ?subdividecube@@YA_NAAUcube@@_N1@Z 004c3f00 f   octa.obj
 0001:000c3730       ?forcemip@@YAXAAUcube@@_N@Z 004c4730 f   octa.obj
 0001:000c38e0       ?getmippedtexture@@YAHABUcube@@H@Z 004c48e0 f   octa.obj
 0001:000c3a00       ?neighbourcube@@YAABUcube@@ABU1@HABUivec@@HAAU2@AAH@Z 004c4a00 f   octa.obj
 0001:000c3b50       ?lookupmaterial@@YAHABUvec@@@Z 004c4b50 f   octa.obj
 0001:000c3bf0       ?lookupcube@@YAAAUcube@@ABUivec@@HAAU2@AAH@Z 004c4bf0 f   octa.obj
 0001:000c3d50       ?validatec@@YAXPAUcube@@H@Z 004c4d50 f   octa.obj
 0001:000c3e30       ?isvalidcube@@YA_NABUcube@@@Z 004c4e30 f   octa.obj
 0001:000c3f30       ?printcube@@YAXXZ          004c4f30 f   octa.obj
 0001:000c3fa0       ?optiface@@YAXPAEAAUcube@@@Z 004c4fa0 f   octa.obj
 0001:000c40d0       ?setcubevector@@YAXAAUcube@@HHHHABUivec@@@Z 004c50d0 f   octa.obj
 0001:000c41c0       ?getcubevector@@YAXAAUcube@@HHHHAAUivec@@@Z 004c51c0 f   octa.obj
 0001:000c4260       ?discardchildren@@YAXAAUcube@@_NH@Z 004c5260 f   octa.obj
 0001:000c4360       ?freecubeext@@YAXAAUcube@@@Z 004c5360 f   octa.obj
 0001:000c4380       ?freeocta@@YAXPAUcube@@@Z  004c5380 f   octa.obj
 0001:000c43c0       ?familysize@@YAHABUcube@@@Z 004c53c0 f   octa.obj
 0001:000c43f0       ?newcubes@@YAPAUcube@@IH@Z 004c53f0 f   octa.obj
 0001:000c4470       ?newcubeext@@YAPAUcubeext@@AAUcube@@H_N@Z 004c5470 f   octa.obj
 0001:000c4540       ?growcubeext@@YAPAUcubeext@@PAU1@H@Z 004c5540 f   octa.obj
 0001:000c4590       ?setcubeext@@YAXAAUcube@@PAUcubeext@@@Z 004c5590 f   octa.obj
 0001:000c45b0       ?calcmergedsize@@YAHHABUivec@@HPBUvertinfo@@H@Z 004c55b0 f   octa.obj
 0001:000c4780       ?flataxisface@@YA_NABUcube@@H@Z 004c5780 f   octa.obj
 0001:000c47b0       ?faceconvexity@@YAHPBUvertinfo@@HH@Z 004c57b0 f   octa.obj
 0001:000c48d0       ?genfaceverts@@YAXABUcube@@HQAUivec@@@Z 004c58d0 f   octa.obj
 0001:000c4d30       ?faceconvexity@@YAHQBUivec@@@Z 004c5d30 f   octa.obj
 0001:000c4e00       ?visibletris@@YAHABUcube@@HABUivec@@HGGG@Z 004c5e00 f   octa.obj
 0001:000c53e0       ?invalidatemerges@@YAXAAUcube@@ABUivec@@H_N@Z 004c63e0 f   octa.obj
 0001:000c5420       ?remip@@YAXXZ              004c6420 f   octa.obj
 0001:000c62d0       ?run@?$_icmd_editstatpvs@$0LHP@@@SAXXZ 004c72d0 f   octaedit.obj
 0001:000c6330       ?run@?$_icmd_editstatoq@$0LHO@@@SAXXZ 004c7330 f   octaedit.obj
 0001:000c63a0       ?run@?$_icmd_editstatgeombatch@$0LHN@@@SAXXZ 004c73a0 f   octaedit.obj
 0001:000c6400       ?run@?$_icmd_editstatglde@$0LHM@@@SAXXZ 004c7400 f   octaedit.obj
 0001:000c6460       ?run@?$_icmd_editstatva@$0LHL@@@SAXXZ 004c7460 f   octaedit.obj
 0001:000c64c0       ?run@?$_icmd_editstatocta@$0LHK@@@SAXXZ 004c74c0 f   octaedit.obj
 0001:000c6530       ?run@?$_icmd_editstateva@$0LHJ@@@SAXXZ 004c7530 f   octaedit.obj
 0001:000c65a0       ?run@?$_icmd_editstatevt@$0LHI@@@SAXXZ 004c75a0 f   octaedit.obj
 0001:000c6610       ?run@?$_icmd_editstatvvt@$0LHH@@@SAXXZ 004c7610 f   octaedit.obj
 0001:000c6680       ?run@?$_icmd_editstatwvt@$0LHG@@@SAXXZ 004c7680 f   octaedit.obj
 0001:000c66f0       ?run@?$_icmd_editstatvtr@$0LHF@@@SAXXZ 004c76f0 f   octaedit.obj
 0001:000c6760       ?run@?$_icmd_editstatwtr@$0LHE@@@SAXXZ 004c7760 f   octaedit.obj
 0001:000c67d0       ?rendertexturepanel@@YAXHH@Z 004c77d0 f   octaedit.obj
 0001:000c7840       ?editmat@@YAXPAD0@Z        004c8840 f   octaedit.obj
 0001:000c79f0       ?mpeditmat@@YAXHHAAUselinfo@@_N@Z 004c89f0 f   octaedit.obj
 0001:000c7c40       ?setmat@@YAXAAUcube@@GGGGH@Z 004c8c40 f   octaedit.obj
 0001:000c7d20       ?rotate@@YAXPAH@Z          004c8d20 f   octaedit.obj
 0001:000c7e20       ?mprotate@@YAXHAAUselinfo@@_N@Z 004c8e20 f   octaedit.obj
 0001:000c8270       ?flip@@YAXXZ               004c9270 f   octaedit.obj
 0001:000c8360       ?mpflip@@YAXAAUselinfo@@_N@Z 004c9360 f   octaedit.obj
 0001:000c85e0       ?rotatecube@@YAXAAUcube@@H@Z 004c95e0 f   octaedit.obj
 0001:000c8870       ?flipcube@@YAXAAUcube@@H@Z 004c9870 f   octaedit.obj
 0001:000c8bd0       ?run@?$_icmd_replacesel@$0KDL@@@SAXXZ 004c9bd0 f   octaedit.obj
 0001:000c8be0       ?run@?$_icmd_replace@$0KDK@@@SAXXZ 004c9be0 f   octaedit.obj
 0001:000c8bf0       ?replace@@YAX_N@Z          004c9bf0 f   octaedit.obj
 0001:000c8d10       ?mpreplacetex@@YA_NHH_NAAUselinfo@@AAU?$databuf@E@@@Z 004c9d10 f   octaedit.obj
 0001:000c8dd0       ?mpreplacetex@@YAXHH_NAAUselinfo@@0@Z 004c9dd0 f   octaedit.obj
 0001:000c9000       ?replacetexcube@@YAXAAUcube@@HH@Z 004ca000 f   octaedit.obj
 0001:000c9050       ?run@?$_icmd_texloaded@$0KBE@@@SAXPAH@Z 004ca050 f   octaedit.obj
 0001:000c90a0       ?run@?$_icmd_numslots@$0KBC@@@SAXXZ 004ca0a0 f   octaedit.obj
 0001:000c90c0       ?run@?$_icmd_numvslots@$0KBB@@@SAXXZ 004ca0c0 f   octaedit.obj
 0001:000c90e0       ?run@?$_icmd_looptexmru@$0KBA@@@SAXPAUident@@PAI@Z 004ca0e0 f   octaedit.obj
 0001:000c9160       ?run@?$_icmd_texmru@$0KAJ@@@SAXPAH@Z 004ca160 f   octaedit.obj
 0001:000c91a0       ?run@?$_icmd_getreptex@$0KAH@@@SAXXZ 004ca1a0 f   octaedit.obj
 0001:000c92c0       ?run@?$_icmd_settex@$0KAD@@@SAXPAH@Z 004ca2c0 f   octaedit.obj
 0001:000c93d0       ?getslottex@@YAXPAH@Z      004ca3d0 f   octaedit.obj
 0001:000c9420       ?gettexname@@YAXPAH0@Z     004ca420 f   octaedit.obj
 0001:000c9490       ?getseltex@@YAXXZ          004ca490 f   octaedit.obj
 0001:000c94f0       ?getcurtex@@YAXXZ          004ca4f0 f   octaedit.obj
 0001:000c9540       ?gettex@@YAXXZ             004ca540 f   octaedit.obj
 0001:000c96c0       ?edittex_@@YAXPAH@Z        004ca6c0 f   octaedit.obj
 0001:000c9820       ?edittex@@YAXH_N@Z         004ca820 f   octaedit.obj
 0001:000c9b60       ?compactmruvslots@@YAXXZ   004cab60 f   octaedit.obj
 0001:000c9df0       ?mpedittex@@YA_NHHAAUselinfo@@AAU?$databuf@E@@@Z 004cadf0 f   octaedit.obj
 0001:000c9e40       ?shouldpacktex@@YAHH@Z     004cae40 f   octaedit.obj
 0001:000c9fb0       ?mpedittex@@YAXHHAAUselinfo@@_N@Z 004cafb0 f   octaedit.obj
 0001:000ca1b0       ?run@?$_icmd_getvshaderparamnames@$0JGI@@@SAXPAH@Z 004cb1b0 f   octaedit.obj
 0001:000ca4c0       ?run@?$_icmd_getvshaderparam@$0JFL@@@SAXPAHPBD@Z 004cb4c0 f   octaedit.obj
 0001:000ca6b0       ?vshaderparam@@YAXPBDPAM111@Z 004cb6b0 f   octaedit.obj
 0001:000ca9c0       ?vreset@@YAXXZ             004cb9c0 f   octaedit.obj
 0001:000cab60       ?run@?$_icmd_getvrefract@$0JDH@@@SAXPAH@Z 004cbb60 f   octaedit.obj
 0001:000cad00       ?vrefract@@YAXPAM000@Z     004cbd00 f   octaedit.obj
 0001:000caf30       ?run@?$_icmd_getvcolor@$0JCC@@@SAXPAH@Z 004cbf30 f   octaedit.obj
 0001:000cb090       ?vcolor@@YAXPAM00@Z        004cc090 f   octaedit.obj
 0001:000cb280       ?run@?$_icmd_getvalpha@$0JBC@@@SAXPAH@Z 004cc280 f   octaedit.obj
 0001:000cb3a0       ?valpha@@YAXPAM0@Z         004cc3a0 f   octaedit.obj
 0001:000cb580       ?run@?$_icmd_getvdetail@$0JAB@@@SAXPAH@Z 004cc580 f   octaedit.obj
 0001:000cb5d0       ?vdetail@@YAXPAH@Z         004cc5d0 f   octaedit.obj
 0001:000cb7f0       ?run@?$_icmd_getvlayer@$0IPB@@@SAXPAH@Z 004cc7f0 f   octaedit.obj
 0001:000cb840       ?vlayer@@YAXPAH@Z          004cc840 f   octaedit.obj
 0001:000cba60       ?run@?$_icmd_getvscale@$0IOB@@@SAXPAH@Z 004cca60 f   octaedit.obj
 0001:000cbac0       ?vscale@@YAXPAM@Z          004ccac0 f   octaedit.obj
 0001:000cbca0       ?run@?$_icmd_getvscroll@$0ING@@@SAXPAH@Z 004ccca0 f   octaedit.obj
 0001:000cbdc0       ?vscroll@@YAXPAM0@Z        004ccdc0 f   octaedit.obj
 0001:000cbf90       ?run@?$_icmd_getvoffset@$0IMG@@@SAXPAH@Z 004ccf90 f   octaedit.obj
 0001:000cc040       ?voffset@@YAXPAH0@Z        004cd040 f   octaedit.obj
 0001:000cc210       ?run@?$_icmd_getvrotate@$0ILG@@@SAXPAH@Z 004cd210 f   octaedit.obj
 0001:000cc260       ?vrotate@@YAXPAH@Z         004cd260 f   octaedit.obj
 0001:000cc430       ?vdelta@@YAXPAI@Z          004cd430 f   octaedit.obj
 0001:000cc530       ?mpeditvslot@@YA_NHHAAUselinfo@@AAU?$databuf@E@@@Z 004cd530 f   octaedit.obj
 0001:000cc630       ?mpeditvslot@@YAXHAAUVSlot@@HAAUselinfo@@_N@Z 004cd630 f   octaedit.obj
 0001:000cc980       ?edittexcube@@YAXAAUcube@@HHAA_N@Z 004cd980 f   octaedit.obj
 0001:000ccf70       ?tofronttex@@YAXXZ         004cdf70 f   octaedit.obj
 0001:000ccfe0       ?delcube@@YAXXZ            004cdfe0 f   octaedit.obj
 0001:000cd010       ?mpdelcube@@YAXAAUselinfo@@_N@Z 004ce010 f   octaedit.obj
 0001:000cd1b0       ?pushsel@@YAXPAH@Z         004ce1b0 f   octaedit.obj
 0001:000cd250       ?editface@@YAXPAH0@Z       004ce250 f   octaedit.obj
 0001:000cd2d0       ?mpeditface@@YAXHHAAUselinfo@@_N@Z 004ce2d0 f   octaedit.obj
 0001:000cd890       ?linkedpush@@YAXAAUcube@@HHHHH@Z 004ce890 f   octaedit.obj
 0001:000cd9d0       ?pushedge@@YAXAAEHH@Z      004ce9d0 f   octaedit.obj
 0001:000cda70       ?bounded@@YAHH@Z           004cea70 f   octaedit.obj
 0001:000cda90       ?edithmap@@YAXHH@Z         004cea90 f   octaedit.obj
 0001:000cdad0       ?run@hmap@@YAXHH@Z         004cead0 f   octaedit.obj
 0001:000ce200       ?rippleandset@hmap@@YAXXZ  004cf200 f   octaedit.obj
 0001:000ce260       ?smooth@hmap@@YAXXZ        004cf260 f   octaedit.obj
 0001:000ce350       ?paint@hmap@@YAXXZ         004cf350 f   octaedit.obj
 0001:000ce4a0       ?ripple@hmap@@YAXHHH_N@Z   004cf4a0 f   octaedit.obj
 0001:000ceb30       ?select@hmap@@YAXHHH@Z     004cfb30 f   octaedit.obj
 0001:000ceff0       ?addpoint@hmap@@YAXHHHH@Z  004cfff0 f   octaedit.obj
 0001:000cf020       ?pushside@hmap@@YAXAAUcube@@HHHH@Z 004d0020 f   octaedit.obj
 0001:000cf140       ?getface@hmap@@YAIPAUcube@@H@Z 004d0140 f   octaedit.obj
 0001:000cf170       ?getcube@hmap@@YAPAUcube@@Uivec@@H@Z 004d0170 f   octaedit.obj
 0001:000cf2a0       ?hbrushvert@hmap@@YAXPAH00@Z 004d02a0 f   octaedit.obj
 0001:000cf3b0       ?clearhbrush@hmap@@YAXXZ   004d03b0 f   octaedit.obj
 0001:000cf400       ?run@?$_icmd_hmapselect@$0GDD@@hmap@@SAXXZ 004d0400 f   octaedit.obj
 0001:000cf4b0       ?run@?$_icmd_hmapcancel@$0GCL@@hmap@@SAXXZ 004d04b0 f   octaedit.obj
 0001:000cf4c0       ?cancel@hmap@@YAXXZ        004d04c0 f   octaedit.obj
 0001:000cf4d0       ?compacteditvslots@@YAXXZ  004d04d0 f   octaedit.obj
 0001:000cf610       ?paste@@YAXXZ              004d0610 f   octaedit.obj
 0001:000cf670       ?pastehilite@@YAXXZ        004d0670 f   octaedit.obj
 0001:000cf6a0       ?copy@@YAXXZ               004d06a0 f   octaedit.obj
 0001:000cf6d0       ?mppaste@@YAXAAPAUeditinfo@@AAUselinfo@@_N@Z 004d06d0 f   octaedit.obj
 0001:000cf720       ?mpcopy@@YAXAAPAUeditinfo@@AAUselinfo@@_N@Z 004d0720 f   octaedit.obj
 0001:000cf8f0       ?previewprefab@@YAXPBDABUvec@@@Z 004d08f0 f   octaedit.obj
 0001:000d00b0       ?genprefabmesh@@YAXAAUprefab@@@Z 004d10b0 f   octaedit.obj
 0001:000d0c40       ?pasteprefab@@YAXPAD@Z     004d1c40 f   octaedit.obj
 0001:000d0d90       ?loadprefab@@YAPAUprefab@@PBD_N@Z 004d1d90 f   octaedit.obj
 0001:000d1070       ?pasteblock@@YAXAAUblock3@@AAUselinfo@@_N@Z 004d2070 f   octaedit.obj
 0001:000d1230       ?saveprefab@@YAXPAD@Z      004d2230 f   octaedit.obj
 0001:000d1540       ?delprefab@@YAXPAD@Z       004d2540 f   octaedit.obj
 0001:000d1680       ?cleanupprefabs@@YAXXZ     004d2680 f   octaedit.obj
 0001:000d1700       ?packundo@@YA_NHAAHAAPAE0@Z 004d2700 f   octaedit.obj
 0001:000d1750       ?unpackundo@@YA_NPBEHH@Z   004d2750 f   octaedit.obj
 0001:000d18f0       ?packundo@@YA_NPAUundoblock@@AAHAAPAE1@Z 004d28f0 f   octaedit.obj
 0001:000d1d20       ?freeeditinfo@@YAXAAPAUeditinfo@@@Z 004d2d20 f   octaedit.obj
 0001:000d1da0       ?unpackeditinfo@@YA_NAAPAUeditinfo@@PBEHH@Z 004d2da0 f   octaedit.obj
 0001:000d1ec0       ?packeditinfo@@YA_NPAUeditinfo@@AAHAAPAE1@Z 004d2ec0 f   octaedit.obj
 0001:000d25a0       ?editredo@@YAXXZ           004d35a0 f   octaedit.obj
 0001:000d25c0       ?editundo@@YAXXZ           004d35c0 f   octaedit.obj
 0001:000d25e0       ?swapundo@@YAXAAUundolist@@0H@Z 004d35e0 f   octaedit.obj
 0001:000d2c50       ?makeundo@@YAXXZ           004d3c50 f   octaedit.obj
 0001:000d2d20       ?makeundo@@YAXAAUselinfo@@@Z 004d3d20 f   octaedit.obj
 0001:000d2d40       ?addundo@@YAXPAUundoblock@@@Z 004d3d40 f   octaedit.obj
 0001:000d2e20       ?newundocube@@YAPAUundoblock@@ABUselinfo@@@Z 004d3e20 f   octaedit.obj
 0001:000d2ff0       ?clearundos@@YAXXZ         004d3ff0 f   octaedit.obj
 0001:000d3000       ?pruneundos@@YAXH@Z        004d4000 f   octaedit.obj
 0001:000d31a0       ?pasteundo@@YAXPAUundoblock@@@Z 004d41a0 f   octaedit.obj
 0001:000d31d0       ?pasteundoblock@@YAXPAUblock3@@PAE@Z 004d41d0 f   octaedit.obj
 0001:000d32f0       ?freeundo@@YAXPAUundoblock@@@Z 004d42f0 f   octaedit.obj
 0001:000d3340       ?selgridmap@@YAXABUselinfo@@PAE@Z 004d4340 f   octaedit.obj
 0001:000d3460       ?freeblock@@YAXPAUblock3@@_N@Z 004d4460 f   octaedit.obj
 0001:000d34c0       ?blockcopy@@YAPAUblock3@@ABU1@H@Z 004d44c0 f   octaedit.obj
 0001:000d3510       ?blockcopy@@YAXABUblock3@@HPAU1@@Z 004d4510 f   octaedit.obj
 0001:000d36d0       ?changed@@YAXABUblock3@@_N@Z 004d46d0 f   octaedit.obj
 0001:000d37b0       ?changed@@YAXABUivec@@0_N@Z 004d47b0 f   octaedit.obj
 0001:000d3800       ?readychanges@@YAXABUivec@@0PAUcube@@0H@Z 004d4800 f   octaedit.obj
 0001:000d3980       ?tryedit@@YAXXZ            004d4980 f   octaedit.obj
 0001:000d3a00       ?rendereditcursor@@YAXXZ   004d4a00 f   octaedit.obj
 0001:000d4d60       ?var_passthrough@@YAXPAUident@@@Z 004d5d60 f   octaedit.obj
 0001:000d4d80       ?editmoveplane@@YA_NABUvec@@0HMAAU1@1_N@Z 004d5d80 f   octaedit.obj
 0001:000d4ee0       ?updateselection@@YAXXZ    004d5ee0 f   octaedit.obj
 0001:000d4f70       ?normalizelookupcube@@YAXABUivec@@@Z 004d5f70 f   octaedit.obj
 0001:000d5000       ?countselchild@@YAXPAUcube@@ABUivec@@H@Z 004d6000 f   octaedit.obj
 0001:000d5130       ?run@?$_icmd_selchildmat@$0BBN@@@SAXPAD@Z 004d6130 f   octaedit.obj
 0001:000d52a0       ?run@?$_icmd_selchildcount@$0BBM@@@SAXXZ 004d62a0 f   octaedit.obj
 0001:000d52d0       ?run@?$_icmd_havesel@$0BBL@@@SAXXZ 004d62d0 f   octaedit.obj
 0001:000d52f0       ?blockcube@@YAAAUcube@@HHHABUblock3@@H@Z 004d62f0 f   octaedit.obj
 0001:000d5390       ?movesel@@YAXPAH0@Z        004d6390 f   octaedit.obj
 0001:000d53d0       ?setselpos@@YAXPAH00@Z     004d63d0 f   octaedit.obj
 0001:000d5430       ?run@?$_icmd_getselpos@$0PF@@@SAXXZ 004d6430 f   octaedit.obj
 0001:000d5580       ?run@?$_icmd_selswap@$0OO@@@SAXXZ 004d6580 f   octaedit.obj
 0001:000d5610       ?run@?$_icmd_selrestore@$0ON@@@SAXXZ 004d6610 f   octaedit.obj
 0001:000d5660       ?run@?$_icmd_selsave@$0OM@@@SAXXZ 004d6660 f   octaedit.obj
 0001:000d56b0       ?run@?$_icmd_selmoved@$0OL@@@SAXXZ 004d66b0 f   octaedit.obj
 0001:000d5720       ?run@?$_icmd_edittoggle@$0OE@@@SAXXZ 004d6720 f   octaedit.obj
 0001:000d5730       ?selextend@@YAXXZ          004d6730 f   octaedit.obj
 0001:000d5810       ?reorient@@YAXXZ           004d6810 f   octaedit.obj
 0001:000d5860       ?toggleedit@@YAX_N@Z       004d6860 f   octaedit.obj
 0001:000d5a60       ?cancelsel@@YAXXZ          004d6a60 f   octaedit.obj
 0001:000d5ab0       ?cubecancel@@YAXXZ         004d6ab0 f   octaedit.obj
 0001:000d5b00       ?forcenextundo@@YAXXZ      004d6b00 f   octaedit.obj
 0001:000d5b10       ?var_hmapedit@@YAXPAUident@@@Z 004d6b10 f   octaedit.obj
 0001:000d5b20       ?var_gridpower@@YAXPAUident@@@Z 004d6b20 f   octaedit.obj
 0001:000d5b60       ?run@?$_icmd_moving@$0HN@@@SAXPAH@Z 004d6b60 f   octaedit.obj
 0001:000d5c30       ?var_dragging@@YAXPAUident@@@Z 004d6c30 f   octaedit.obj
 0001:000d5c90       ?boxsgrid@@YAXHUvec@@0H@Z  004d6c90 f   octaedit.obj
 0001:000d5f20       ?boxs3D@@YAXABUvec@@U1@H@Z 004d6f20 f   octaedit.obj
 0001:000d5f90       ?boxs@@YAXHUvec@@ABU1@@Z   004d6f90 f   octaedit.obj
 0001:000d6190       ?boxs@@YAXHUvec@@ABU1@M@Z  004d7190 f   octaedit.obj
 0001:000d67e0       ?commitchanges@@YAX_N@Z    004d77e0 f   octaedit.obj
 0001:000d68c0       ?noedit@@YA_N_N0@Z         004d78c0 f   octaedit.obj
 0001:000d7440       ?recalc@@YAXXZ             004d8440 f   octarender.obj
 0001:000d7450       ?precachetextures@@YAXXZ   004d8450 f   octarender.obj
 0001:000d7870       ?findtjoints@@YAXHABUedgegroup@@@Z 004d8870 f   octarender.obj
 0001:000d79f0       ?addtjoint@@YAXABUedgegroup@@ABUcubeedge@@H@Z 004d89f0 f   octarender.obj
 0001:000d7b90       ?updateva@@YAHPAUcube@@ABUivec@@HH@Z 004d8b90 f   octarender.obj
 0001:000d81d0       ?var_vacubesize@@YAXPAUident@@@Z 004d91d0 f   octarender.obj
 0001:000d81e0       ?var_vafacemin@@YAXPAUident@@@Z 004d91e0 f   octarender.obj
 0001:000d81f0       ?var_vafacemax@@YAXPAUident@@@Z 004d91f0 f   octarender.obj
 0001:000d8320       ?setva@@YAXAAUcube@@ABUivec@@HH@Z 004d9320 f   octarender.obj
 0001:000d86a0       ?calcgeombb@@YAXABUivec@@HAAU1@1@Z 004d96a0 f   octarender.obj
 0001:000d8870       ?rendercube@@YAXAAUcube@@ABUivec@@HHAAH@Z 004d9870 f   octarender.obj
 0001:000d8cf0       ?addmergedverts@@YAXHABUivec@@@Z 004d9cf0 f   octarender.obj
 0001:000d8f10       ?findmergedfaces@@YAHAAUcube@@ABUivec@@HHH@Z 004d9f10 f   octarender.obj
 0001:000d9020       ?genmergedfaces@@YAHAAUcube@@ABUivec@@HH@Z 004da020 f   octarender.obj
 0001:000d94b0       ?updatevabb@@YAXPAUvtxarray@@_N@Z 004da4b0 f   octarender.obj
 0001:000d9a50       ?clearvas@@YAXPAUcube@@@Z  004daa50 f   octarender.obj
 0001:000d9c10       ?newva@@YAPAUvtxarray@@ABUivec@@H@Z 004dac10 f   octarender.obj
 0001:000da0c0       ?gencubeverts@@YAXAAUcube@@ABUivec@@HH@Z 004db0c0 f   octarender.obj
 0001:000da8b0       ?gencubeedges@@YAXPAUcube@@ABUivec@@H@Z 004db8b0 f   octarender.obj
 0001:000da9a0       ?gencubeedges@@YAXAAUcube@@ABUivec@@H@Z 004db9a0 f   octarender.obj
 0001:000db220       ?addcubeverts@@YAXAAUVSlot@@HHPAUvec@@HGPAUvertinfo@@HHGH_NH@Z 004dc220 f   octarender.obj
 0001:000dbc20       ?decodenormal@@YA?AUvec@@G@Z 004dcc20 f   octarender.obj
 0001:000dbec0       ?addgrasstri@@YAXHPAUvertex@@HGH@Z 004dcec0 f   octarender.obj
 0001:000dc150       ?addtris@@YAXAAUVSlot@@HABUsortkey@@PAUvertex@@PAHHHH@Z 004dd150 f   octarender.obj
 0001:000dcdf0       ?var_filltjoints@@YAXPAUident@@@Z 004dddf0 f   octarender.obj
 0001:000dce80       ?addvbo@@YAPAEPAUvtxarray@@HHH@Z 004dde80 f   octarender.obj
 0001:000dcf30       ?flushvbo@@YAXH@Z          004ddf30 f   octarender.obj
 0001:000dd130       ?genvbo@@YAXHPAXHPAPAUvtxarray@@H@Z 004de130 f   octarender.obj
 0001:000dd2b0       ?destroyvbo@@YAXI@Z        004de2b0 f   octarender.obj
 0001:000dd360       ?var_vbosize@@YAXPAUident@@@Z 004de360 f   octarender.obj
 0001:000dd370       ?octarender@@YAXXZ         004de370 f   octarender.obj
 0001:000dd440       ?updatevabbs@@YAX_N@Z      004de440 f   octarender.obj
 0001:000dd540       ?guessnormals@@YAXPBUvec@@HPAU1@@Z 004de540 f   octarender.obj
 0001:000dd9b0       ?reduceslope@@YAXAAUivec@@@Z 004de9b0 f   octarender.obj
 0001:000ddaa0       ?findtjoints@@YAXXZ        004deaa0 f   octarender.obj
 0001:000ddba0       ?encodenormal@@YAGABUvec@@@Z 004deba0 f   octarender.obj
 0001:000ddc70       ?destroyva@@YAXPAUvtxarray@@_N@Z 004dec70 f   octarender.obj
 0001:000ddf00       ?allchanged@@YAX_N@Z       004def00 f   octarender.obj
 0001:000e22e0       ?run@?$_icmd_crouch@$0HKM@@@SAXPAH@Z 004e32e0 f   physics.obj
 0001:000e2330       ?run@?$_icmd_jump@$0HKL@@@SAXPAH@Z 004e3330 f   physics.obj
 0001:000e2380       ?run@?$_icmd_right@$0HKJ@@@SAXPAH@Z 004e3380 f   physics.obj
 0001:000e23b0       ?run@?$_icmd_left@$0HKI@@@SAXPAH@Z 004e33b0 f   physics.obj
 0001:000e23e0       ?run@?$_icmd_forward@$0HKH@@@SAXPAH@Z 004e33e0 f   physics.obj
 0001:000e2410       ?run@?$_icmd_backward@$0HKG@@@SAXPAH@Z 004e3410 f   physics.obj
 0001:000e2440       ?updatephysstate@@YAXPAUphysent@@@Z 004e3440 f   physics.obj
 0001:000e25d0       ?moveplayer@@YAXPAUphysent@@H_N@Z 004e35d0 f   physics.obj
 0001:000e26c0       ?interppos@@YAXPAUphysent@@@Z 004e36c0 f   physics.obj
 0001:000e2760       ?physicsframe@@YAXXZ       004e3760 f   physics.obj
 0001:000e27e0       ?moveplayer@@YA_NPAUphysent@@H_NH@Z 004e37e0 f   physics.obj
 0001:000e2c70       ?modifygravity@@YAXPAUphysent@@_NH@Z 004e3c70 f   physics.obj
 0001:000e2e40       ?modifyvelocity@@YAXPAUphysent@@_N11H@Z 004e3e40 f   physics.obj
 0001:000e3210       ?vectoyawpitch@@YAXABUvec@@AAM1@Z 004e4210 f   physics.obj
 0001:000e32d0       ?vecfromyawpitch@@YAXMMHHAAUvec@@@Z 004e42d0 f   physics.obj
 0001:000e3400       ?phystest@@YAXXZ           004e4400 f   physics.obj
 0001:000e3550       ?dropenttofloor@@YAXPAUentity@@@Z 004e4550 f   physics.obj
 0001:000e35a0       ?dropheight@@YAMAAUentity@@@Z 004e45a0 f   physics.obj
 0001:000e35d0       ?droptofloor@@YA_NAAUvec@@MM@Z 004e45d0 f   physics.obj
 0001:000e3810       ?movecamera@@YA_NPAUphysent@@ABUvec@@MM@Z 004e4810 f   physics.obj
 0001:000e3950       ?bounce@@YA_NPAUphysent@@MMMM@Z 004e4950 f   physics.obj
 0001:000e3de0       ?crouchplayer@@YAXPAUphysent@@H_N@Z 004e4de0 f   physics.obj
 0001:000e3f50       ?move@@YA_NPAUphysent@@AAUvec@@@Z 004e4f50 f   physics.obj
 0001:000e4500       ?findfloor@@YA_NPAUphysent@@ABUvec@@_N1AA_NAAU2@@Z 004e5500 f   physics.obj
 0001:000e49c0       ?landing@@YAXPAUphysent@@AAUvec@@ABU2@_N@Z 004e59c0 f   physics.obj
 0001:000e4a10       ?falling@@YAXPAUphysent@@AAUvec@@ABU2@@Z 004e5a10 f   physics.obj
 0001:000e4af0       ?trystepdown@@YA_NPAUphysent@@AAUvec@@_N@Z 004e5af0 f   physics.obj
 0001:000e4bf0       ?trystepdown@@YA_NPAUphysent@@AAUvec@@MMM_N@Z 004e5bf0 f   physics.obj
 0001:000e4fe0       ?trystepup@@YA_NPAUphysent@@AAUvec@@ABU2@M2@Z 004e5fe0 f   physics.obj
 0001:000e5670       ?switchfloor@@YAXPAUphysent@@AAUvec@@ABU2@@Z 004e6670 f   physics.obj
 0001:000e5a50       ?slideagainst@@YAXPAUphysent@@AAUvec@@ABU2@_N3@Z 004e6a50 f   physics.obj
 0001:000e5cd0       ?recalcdir@@YAXPAUphysent@@ABUvec@@AAU2@@Z 004e6cd0 f   physics.obj
 0001:000e5da0       ?collide@@YA_NPAUphysent@@ABUvec@@M_N2@Z 004e6da0 f   physics.obj
 0001:000e6380       ?mmcollide@@YA_NPAUphysent@@ABUvec@@MAAUoctaentities@@@Z 004e7380 f   physics.obj
 0001:000e6b10       ?rotatebb@@YAXAAUvec@@0HHH@Z 004e7b10 f   physics.obj
 0001:000e6ce0       ?plcollide@@YA_NPAUphysent@@ABUvec@@_N@Z 004e7ce0 f   physics.obj
 0001:000e6f60       ?updatedynentcache@@YAXPAUphysent@@@Z 004e7f60 f   physics.obj
 0001:000e7160       ?checkdynentcache@@YAABU?$vector@PAUphysent@@@@HH@Z 004e8160 f   physics.obj
 0001:000e72a0       ?var_dynentsize@@YAXPAUident@@@Z 004e82a0 f   physics.obj
 0001:000e72b0       ?cleardynentcache@@YAXXZ   004e82b0 f   physics.obj
 0001:000e7300       ?ellipsecollide@@YA_NPAUphysent@@ABUvec@@11MMMMM@Z 004e8300 f   physics.obj
 0001:000e7680       ?ellipseboxcollide@@YA_NPAUphysent@@ABUvec@@11MMMMM@Z 004e8680 f   physics.obj
 0001:000e7aa0       ?rayfloor@@YAMABUvec@@AAU1@HM@Z 004e8aa0 f   physics.obj
 0001:000e7b40       ?raycubelos@@YA_NABUvec@@0AAU1@@Z 004e8b40 f   physics.obj
 0001:000e7c80       ?raycubepos@@YAMABUvec@@0AAU1@MHH@Z 004e8c80 f   physics.obj
 0001:000e7d10       ?raycube@@YAMABUvec@@0MHHPAUextentity@@@Z 004e8d10 f   physics.obj
 0001:000e8f40       ?entinmap@@YA_NPAUdynent@@_N@Z 004e9f40 f   physics.obj
 0001:000e9190       ?rayent@@YAMABUvec@@0MHHAAH1@Z 004ea190 f   physics.obj
 0001:000e9320       ?resetclipplanes@@YAXXZ    004ea320 f   physics.obj
 0001:000e9450       ?loadpvs@@YAXPAUstream@@H@Z 004ea450 f   pvs.obj
 0001:000e9660       ?loadviewcells@@YAPAUviewcellnode@@PAUstream@@@Z 004ea660 f   pvs.obj
 0001:000e9750       ?savepvs@@YAXPAUstream@@@Z 004ea750 f   pvs.obj
 0001:000e9830       ?saveviewcells@@YAXPAUstream@@AAUviewcellnode@@@Z 004ea830 f   pvs.obj
 0001:000e9890       ?pvsoccludedsphere@@YA_NABUvec@@M@Z 004ea890 f   pvs.obj
 0001:000e9950       ?pvsoccluded@@YA_NABUivec@@0@Z 004ea950 f   pvs.obj
 0001:000e9bf0       ?pvsstats@@YAXXZ           004eabf0 f   pvs.obj
 0001:000e9c40       ?genpvs@@YAXPAH@Z          004eac40 f   pvs.obj
 0001:000ea460       ?testpvs@@YAXPAH@Z         004eb460 f   pvs.obj
 0001:000eaa30       ?clearpvs@@YAXXZ           004eba30 f   pvs.obj
 0001:000eaa90       ?setviewcell@@YAXABUvec@@@Z 004eba90 f   pvs.obj
 0001:000eab40       ?var_lockpvs@@YAXPAUident@@@Z 004ebb40 f   pvs.obj
 0001:000ebad0       ?getnumviewcells@@YAHXZ    004ecad0 f   pvs.obj
 0001:000ebec0       ?getworldsize@@YAHXZ       004ecec0 f   world.obj
 0001:000ebed0       ?mpeditent@@YAXHABUvec@@HHHHHH_N@Z 004eced0 f   world.obj
 0001:000ec010       ?mapname@@YAXXZ            004ed010 f   world.obj
 0001:000ec060       ?mapenlarge@@YAXXZ         004ed060 f   world.obj
 0001:000ec080       ?newmap@@YAXPAH@Z          004ed080 f   world.obj
 0001:000ec0e0       ?shrinkmap@@YAXXZ          004ed0e0 f   world.obj
 0001:000ec390       ?enlargemap@@YA_N_N@Z      004ed390 f   world.obj
 0001:000ec500       ?emptymap@@YA_NH_NPBD0@Z   004ed500 f   world.obj
 0001:000ec6b0       ?startmap@@YAXPBD@Z        004ed6b0 f   world.obj
 0001:000ec7c0       ?resetmap@@YAXXZ           004ed7c0 f   world.obj
 0001:000ecb70       ?splitocta@@YAXPAUcube@@H@Z 004edb70 f   world.obj
 0001:000ecc20       ?findplayerspawn@@YAXPAUdynent@@HH@Z 004edc20 f   world.obj
 0001:000ecdf0       ?findentity@@YAHHHHH@Z     004eddf0 f   world.obj
 0001:000ece70       ?entattr@@YAXPAH00@Z       004ede70 f   world.obj
 0001:000ed500       ?enttype@@YAXPADPAH@Z      004ee500 f   world.obj
 0001:000ed9d0       ?run@?$_icmd_entindex@$0EOB@@@SAXXZ 004ee9d0 f   world.obj
 0001:000ed9f0       ?run@?$_icmd_entget@$0EOA@@@SAXXZ 004ee9f0 f   world.obj
 0001:000edb60       ?run@?$_icmd_insel@$0ENP@@@SAXXZ 004eeb60 f   world.obj
 0001:000edc30       ?run@?$_icmd_entloop@$0ENO@@@SAXPAI@Z 004eec30 f   world.obj
 0001:000edfd0       ?run@?$_icmd_entselect@$0ENN@@@SAXPAI@Z 004eefd0 f   world.obj
 0001:000ee0c0       ?run@?$_icmd_enthavesel@$0ENM@@@SAXXZ 004ef0c0 f   world.obj
 0001:000ee120       ?nearestent@@YAXXZ         004ef120 f   world.obj
 0001:000ee240       ?printent@@YAXAAUextentity@@PADH@Z 004ef240 f   world.obj
 0001:000ee370       ?entset@@YAXPADPAH1111@Z   004ef370 f   world.obj
 0001:000ee920       ?entreplace@@YAXXZ         004ef920 f   world.obj
 0001:000eee90       ?entpaste@@YAXXZ           004efe90 f   world.obj
 0001:000ef300       ?entcopy@@YAXXZ            004f0300 f   world.obj
 0001:000ef4e0       ?newent@@YAXPADPAH1111@Z   004f04e0 f   world.obj
 0001:000ef540       ?newentity@@YAXHHHHHH_N@Z  004f0540 f   world.obj
 0001:000ef6d0       ?newentity@@YAPAUextentity@@_NABUvec@@HHHHHHAAH0@Z 004f06d0 f   world.obj
 0001:000efaa0       ?attachent@@YAXXZ          004f0aa0 f   world.obj
 0001:000effa0       ?dropent@@YAXXZ            004f0fa0 f   world.obj
 0001:000f04c0       ?dropentity@@YA_NAAUentity@@H@Z 004f14c0 f   world.obj
 0001:000f0750       ?findtype@@YAHPAD@Z        004f1750 f   world.obj
 0001:000f07d0       ?delent@@YAXXZ             004f17d0 f   world.obj
 0001:000f1090       ?entautoview@@YAXPAH@Z     004f2090 f   world.obj
 0001:000f11d0       ?entpush@@YAXPAH@Z         004f21d0 f   world.obj
 0001:000f18f0       ?run@?$_icmd_entmoving@$0DKN@@@SAXPAH@Z 004f28f0 f   world.obj
 0001:000f19b0       ?run@?$_icmd_enttoggle@$0DJP@@@SAXXZ 004f29b0 f   world.obj
 0001:000f1a20       ?run@?$_icmd_entadd@$0DJJ@@@SAXXZ 004f2a20 f   world.obj
 0001:000f1a90       ?enttoggle@@YA_NH@Z        004f2a90 f   world.obj
 0001:000f21f0       ?renderentradius@@YAXAAUextentity@@_N@Z 004f31f0 f   world.obj
 0001:000f27a0       ?renderentbox@@YAXABUextentity@@ABUvec@@1HHH@Z 004f37a0 f   world.obj
 0001:000f3460       ?renderentcone@@YAXABUextentity@@ABUvec@@MM@Z 004f4460 f   world.obj
 0001:000f39a0       ?renderentarrow@@YAXABUextentity@@ABUvec@@M@Z 004f49a0 f   world.obj
 0001:000f3de0       ?renderentattachment@@YAXABUextentity@@@Z 004f4de0 f   world.obj
 0001:000f3eb0       ?renderentsphere@@YAXABUextentity@@M@Z 004f4eb0 f   world.obj
 0001:000f3fe0       ?renderentring@@YAXABUextentity@@MH@Z 004f4fe0 f   world.obj
 0001:000f4100       ?entrotate@@YAXPAH@Z       004f5100 f   world.obj
 0001:000f45b0       ?entflip@@YAXXZ            004f55b0 f   world.obj
 0001:000f4910       ?getselpos@@YA?AUvec@@XZ   004f5910 f   world.obj
 0001:000f4990       ?attachentities@@YAXXZ     004f5990 f   world.obj
 0001:000f4ac0       ?attachentity@@YAXAAUextentity@@@Z 004f5ac0 f   world.obj
 0001:000f4ba0       ?detachentity@@YAXAAUextentity@@@Z 004f5ba0 f   world.obj
 0001:000f4bc0       ?makeundoent@@YAXXZ        004f5bc0 f   world.obj
 0001:000f4bf0       ?newundoent@@YAPAUundoblock@@XZ 004f5bf0 f   world.obj
 0001:000f4c90       ?entadd@@YAXH@Z            004f5c90 f   world.obj
 0001:000f4ce0       ?noentedit@@YA_NXZ         004f5ce0 f   world.obj
 0001:000f4d10       ?var_entediting@@YAXPAUident@@@Z 004f5d10 f   world.obj
 0001:000f4d40       ?entname@@YAPADAAUentity@@@Z 004f5d40 f   world.obj
 0001:000f51c0       ?modifyoctaentity@@YAXHHAAUextentity@@PAUcube@@ABUivec@@H22HPAUvtxarray@@@Z 004f61c0 f   world.obj
 0001:000f59c0       ?getentboundingbox@@YA_NABUextentity@@AAUivec@@1@Z 004f69c0 f   world.obj
 0001:000f5f20       ?entselectionbox@@YAXABUentity@@AAUvec@@1@Z 004f6f20 f   world.obj
 0001:000f6230       ?pointinsel@@YA_NABUselinfo@@ABUvec@@@Z 004f7230 f   world.obj
 0001:000f62c0       ?entcancel@@YAXXZ          004f72c0 f   world.obj
 0001:000f62d0       ?haveselent@@YA_NXZ        004f72d0 f   world.obj
 0001:000f62e0       ?entdrag@@YAXABUvec@@@Z    004f72e0 f   world.obj
 0001:000f6720       ?hoveringonent@@YA_NHH@Z   004f7720 f   world.obj
 0001:000f67a0       ?renderentselection@@YAXABUvec@@0_N@Z 004f77a0 f   world.obj
 0001:000f6d40       ?entitiesinoctanodes@@YAXXZ 004f7d40 f   world.obj
 0001:000f7010       ?pasteundoents@@YAXPAUundoblock@@@Z 004f8010 f   world.obj
 0001:000f7300       ?copyundoents@@YAPAUundoblock@@PAU1@@Z 004f8300 f   world.obj
 0001:000f7400       ?pasteundoent@@YAXHABUentity@@@Z 004f8400 f   world.obj
 0001:000f7600       ?freeoctaentities@@YAXAAUcube@@@Z 004f8600 f   world.obj
 0001:000f7dc0       ?writecollideobj@@YAXPAD@Z 004f8dc0 f   worldio.obj
 0001:000f8b30       ?writeobj@@YAXPAD@Z        004f9b30 f   worldio.obj
 0001:000f99b0       ?savemap@@YAXPAD@Z         004fa9b0 f   worldio.obj
 0001:000f99c0       ?savecurrentmap@@YAXXZ     004fa9c0 f   worldio.obj
 0001:000f99d0       ?load_world@@YA_NPBD0@Z    004fa9d0 f   worldio.obj
 0001:000fa960       ?getmapcrc@@YAIXZ          004fb960 f   worldio.obj
 0001:000fa970       ?save_world@@YA_NPBD_N@Z   004fb970 f   worldio.obj
 0001:000fb150       ?loadvslots@@YAXPAUstream@@H@Z 004fc150 f   worldio.obj
 0001:000fb520       ?loadvslot@@YAXPAUstream@@AAUVSlot@@H@Z 004fc520 f   worldio.obj
 0001:000fb860       ?savevslots@@YAXPAUstream@@H@Z 004fc860 f   worldio.obj
 0001:000fb970       ?savevslot@@YAXPAUstream@@AAUVSlot@@H@Z 004fc970 f   worldio.obj
 0001:000fbc20       ?loadchildren@@YAPAUcube@@PAUstream@@ABUivec@@HAA_N@Z 004fcc20 f   worldio.obj
 0001:000fbcb0       ?loadc@@YAXPAUstream@@AAUcube@@ABUivec@@HAA_N@Z 004fccb0 f   worldio.obj
 0001:000fc7e0       ?savec@@YAXPAUcube@@ABUivec@@HPAUstream@@_N@Z 004fd7e0 f   worldio.obj
 0001:000fcfd0       ?backup@@YAXPBD0@Z         004fdfd0 f   worldio.obj
 0001:000fd050       ?mapcfgname@@YAXXZ         004fe050 f   worldio.obj
 0001:000fd0e0       ?setmapfilenames@@YAXPBD0@Z 004fe0e0 f   worldio.obj
 0001:000fd210       ?loadents@@YA_NPBDAAU?$vector@Uentity@@@@PAI@Z 004fe210 f   worldio.obj
 0001:000fd670       ?fixmapname@@YAXPAD@Z      004fe670 f   worldio.obj
 0001:000fd690       ?validmapname@@YAXPADPBD11I@Z 004fe690 f   worldio.obj
 0001:000fd710       ?clearmapcrc@@YAXXZ        004fe710 f   worldio.obj
 0001:000fd720       ?gets2c@@YAXXZ             004fe720 f   client.obj
 0001:000fd9c0       ?clientkeepalive@@YAXXZ    004fe9c0 f   client.obj
 0001:000fd9e0       ?localservertoclient@@YAXHPAU_ENetPacket@@@Z 004fe9e0 f   client.obj
 0001:000fdab0       ?neterr@@YAXPBD_N@Z        004feab0 f   client.obj
 0001:000fdae0       ?flushclient@@YAXXZ        004feae0 f   client.obj
 0001:000fdb00       ?sendclientpacket@@YAXPAU_ENetPacket@@H@Z 004feb00 f   client.obj
 0001:000fdb70       ?run@?$_icmd_localdisconnect@$0LM@@@SAXXZ 004feb70 f   client.obj
 0001:000fdb90       ?run@?$_icmd_localconnect@$0LL@@@SAXXZ 004feb90 f   client.obj
 0001:000fdbb0       ?run@?$_icmd_disconnect@$0LK@@@SAXPAH@Z 004febb0 f   client.obj
 0001:000fdc20       ?run@?$_icmd_lanconnect@$0LI@@@SAXPAHPAD@Z 004fec20 f   client.obj
 0001:000fdc40       ?run@?$_icmd_connect@$0LH@@@SAXPADPAH0@Z 004fec40 f   client.obj
 0001:000fdc60       ?trydisconnect@@YAX_N@Z    004fec60 f   client.obj
 0001:000fdcd0       ?disconnect@@YAX_N0@Z      004fecd0 f   client.obj
 0001:000fdd80       ?reconnect@@YAXPBD@Z       004fed80 f   client.obj
 0001:000fddb0       ?connectserv@@YAXPBDH0@Z   004fedb0 f   client.obj
 0001:000fdfa0       ?abortconnect@@YAXXZ       004fefa0 f   client.obj
 0001:000fe000       ?run@?$_icmd_connectedport@$0DM@@@SAXXZ 004ff000 f   client.obj
 0001:000fe040       ?run@?$_icmd_connectedip@$0DG@@@SAXXZ 004ff040 f   client.obj
 0001:000fe0d0       ?connectedpeer@@YAPBU_ENetAddress@@XZ 004ff0d0 f   client.obj
 0001:000fe0e0       ?run@?$_icmd_isconnected@$0CK@@@SAXPAH0@Z 004ff0e0 f   client.obj
 0001:000fe130       ?throttle@@YAXXZ           004ff130 f   client.obj
 0001:000fe160       ?var_throttle_decel@@YAXPAUident@@@Z 004ff160 f   client.obj
 0001:000fe190       ?var_throttle_accel@@YAXPAUident@@@Z 004ff190 f   client.obj
 0001:000fe1c0       ?var_throttle_interval@@YAXPAUident@@@Z 004ff1c0 f   client.obj
 0001:000fe1f0       ?var_rate@@YAXPAUident@@@Z 004ff1f0 f   client.obj
 0001:000fe220       ?setrate@@YAXH@Z           004ff220 f   client.obj
 0001:000fe250       ?isconnected@@YA_N_N0@Z    004ff250 f   client.obj
 0001:000fe280       ?multiplayer@@YA_N_N@Z     004ff280 f   client.obj
 0001:000fe340       ?serveroption@@YA_NPAD@Z   004ff340 f   server.obj
 0001:000fe350       ?stoplistenserver@@YAXXZ   004ff350 f   server.obj
 0001:000fe3d0       ?startlistenserver@@YAXPAH@Z 004ff3d0 f   server.obj
 0001:000fe440       ?initserver@@YAX_N0@Z      004ff440 f   server.obj
 0001:000fe4f0       ?setuplistenserver@@YA_N_N@Z 004ff4f0 f   server.obj
 0001:000fe6a0       ?servererror@@YA_N_NPBD@Z  004ff6a0 f   server.obj
 0001:000fe700       ?rundedicatedserver@@YAXXZ 004ff700 f   server.obj
 0001:000fe7a0       ?isdedicatedserver@@YA_NXZ 004ff7a0 f   server.obj
 0001:000fe7b0       ?logoutfv@@YAXPBDPAD@Z     004ff7b0 f   server.obj
 0001:000fe8c0       _WinMain@16                004ff8c0 f   server.obj
 0001:000ff330       ?flushserver@@YAX_N@Z      00500330 f   server.obj
 0001:000ff350       ?serverslice@@YAX_NI@Z     00500350 f   server.obj
 0001:000ff8c0       ?updatetime@@YAXXZ         005008c0 f   server.obj
 0001:000ff900       ?updatemasterserver@@YAXXZ 00500900 f   server.obj
 0001:000ff970       ?var_serverport@@YAXPAUident@@@Z 00500970 f   server.obj
 0001:000ffa40       ?checkserversockets@@YAXXZ 00500a40 f   server.obj
 0001:000ffc70       ?sendserverinforeply@@YAXAAU?$databuf@E@@@Z 00500c70 f   server.obj
 0001:000ffca0       ?flushmasterinput@@YAXXZ   00500ca0 f   server.obj
 0001:000ffe50       ?flushmasteroutput@@YAXXZ  00500e50 f   server.obj
 0001:000fff00       ?processmasterinput@@YAXXZ 00500f00 f   server.obj
 0001:00100030       ?requestmasterf@@YA_NPBDZZ 00501030 f   server.obj
 0001:00100120       ?requestmaster@@YA_NPBD@Z  00501120 f   server.obj
 0001:001001c0       ?connectmaster@@YAI_N@Z    005011c0 f   server.obj
 0001:001002c0       ?var_masterport@@YAXPAUident@@@Z 005012c0 f   server.obj
 0001:001002d0       ?var_mastername@@YAXPAUident@@@Z 005012d0 f   server.obj
 0001:001002e0       ?disconnectmaster@@YAXXZ   005012e0 f   server.obj
 0001:001003f0       ?process@@YAXPAU_ENetPacket@@HH@Z 005013f0 f   server.obj
 0001:001004b0       ?kicknonlocalclients@@YAXH@Z 005014b0 f   server.obj
 0001:001005f0       ?disconnect_client@@YAXHH@Z 005015f0 f   server.obj
 0001:00100720       ?sendfile@@YAPAU_ENetPacket@@HHPAUstream@@PBDZZ 00501720 f   server.obj
 0001:00100940       ?sendf@@YAPAU_ENetPacket@@HHPBDZZ 00501940 f   server.obj
 0001:00100ca0       ?sendpacket@@YAXHHPAU_ENetPacket@@H@Z 00501ca0 f   server.obj
 0001:00100d90       ?getclientip@@YAIH@Z       00501d90 f   server.obj
 0001:00100dc0       ?getclientpeer@@YAPAU_ENetPeer@@H@Z 00501dc0 f   server.obj
 0001:00100de0       ?getclientinfo@@YAPAXH@Z   00501de0 f   server.obj
 0001:00100e10       ?getservermtu@@YAHXZ       00501e10 f   server.obj
 0001:00100e30       ?var_maxdupclients@@YAXPAUident@@@Z 00501e30 f   server.obj
 0001:00100e50       ?var_maxclients@@YAXPAUident@@@Z 00501e50 f   server.obj
 0001:00100e70       ?cleanupserver@@YAXXZ      00501e70 f   server.obj
 0001:00100eb0       ?delclient@@YAXPAUclient@@@Z 00501eb0 f   server.obj
 0001:00100f10       ?addclient@@YAAAUclient@@H@Z 00501f10 f   server.obj
 0001:001012e0       ?logoutf@@YAXPBDZZ         005022e0 f   server.obj
 0001:00101400       ?setlogfile@@YAXPBD@Z      00502400 f   server.obj
 0001:00101470       ?getlogfile@@YAPAU_iobuf@@XZ 00502470 f   server.obj
 0001:00101480       ?closelogfile@@YAXXZ       00502480 f   server.obj
 0001:001014a0       ?hasnonlocalclients@@YA_NXZ 005024a0 f   server.obj
 0001:001014b0       ?haslocalclients@@YA_NXZ   005024b0 f   server.obj
 0001:001014c0       ?localdisconnect@@YAX_N@Z  005024c0 f   server.obj
 0001:001015b0       ?localconnect@@YAXXZ       005025b0 f   server.obj
 0001:001016d0       ?localclienttoserver@@YAXHPAU_ENetPacket@@@Z 005026d0 f   server.obj
 0001:001017d0       ?disconnectreason@@YAPBDH@Z 005027d0 f   server.obj
 0001:00101c50       ?writeservercfg@@YAXXZ     00502c50 f   serverbrowser.obj
 0001:00101e80       ?run@?$_icmd_clearservers@$0CMO@@@SAXPAH@Z 00502e80 f   serverbrowser.obj
 0001:00101e90       ?run@?$_icmd_keepserver@$0CMN@@@SAXPBDPAH0@Z 00502e90 f   serverbrowser.obj
 0001:00101ec0       ?run@?$_icmd_addserver@$0CMM@@@SAXPBDPAH0@Z 00502ec0 f   serverbrowser.obj
 0001:00101ef0       ?initservers@@YAXXZ        00502ef0 f   serverbrowser.obj
 0001:00101f10       ?updatefrommaster@@YAXXZ   00502f10 f   serverbrowser.obj
 0001:001020a0       ?retrieveservers@@YAXAAU?$vector@D@@@Z 005030a0 f   serverbrowser.obj
 0001:001022a0       ?clearservers@@YAX_N@Z     005032a0 f   serverbrowser.obj
 0001:001024b0       ?getservinfo@@YAPAUservinfo@@H@Z 005034b0 f   serverbrowser.obj
 0001:001024e0       ?run@?$_icmd_connectservinfo@$0CFO@@@SAXPAHPAD@Z 005034e0 f   serverbrowser.obj
 0001:00102520       ?run@?$_icmd_servinfoattr@$0CFM@@@SAXPAH0@Z 00503520 f   serverbrowser.obj
 0001:00102580       ?run@?$_icmd_servinfoplayers@$0CFL@@@SAXPAH@Z 00503580 f   serverbrowser.obj
 0001:001025f0       ?run@?$_icmd_servinfomaxplayers@$0CFF@@@SAXPAH@Z 005035f0 f   serverbrowser.obj
 0001:00102630       ?run@?$_icmd_servinfonumplayers@$0CFE@@@SAXPAH@Z 00503630 f   serverbrowser.obj
 0001:00102670       ?run@?$_icmd_servinfoping@$0CFD@@@SAXPAH@Z 00503670 f   serverbrowser.obj
 0001:001026b0       ?run@?$_icmd_servinfomap@$0CFC@@@SAXPAH@Z 005036b0 f   serverbrowser.obj
 0001:001026f0       ?run@?$_icmd_servinfokeep@$0CFB@@@SAXPAH@Z 005036f0 f   serverbrowser.obj
 0001:00102730       ?run@?$_icmd_servinfohaspassword@$0CFA@@@SAXPAH@Z 00503730 f   serverbrowser.obj
 0001:00102780       ?run@?$_icmd_servinfoport@$0CEP@@@SAXPAH@Z 00503780 f   serverbrowser.obj
 0001:001027b0       ?run@?$_icmd_servinfoname@$0CEO@@@SAXPAH@Z 005037b0 f   serverbrowser.obj
 0001:001027e0       ?run@?$_icmd_servinfodesc@$0CEN@@@SAXPAH@Z 005037e0 f   serverbrowser.obj
 0001:00102820       ?run@?$_icmd_servinfovalid@$0CEH@@@SAXPAH@Z 00503820 f   serverbrowser.obj
 0001:00102860       ?run@?$_icmd_numservers@$0CDN@@@SAXXZ 00503860 f   serverbrowser.obj
 0001:00102880       ?refreshservers@@YAXXZ     00503880 f   serverbrowser.obj
 0001:00102950       ?sortservers@@YAXXZ        00503950 f   serverbrowser.obj
 0001:00102970       ?checkpings@@YAXXZ         00503970 f   serverbrowser.obj
 0001:00102cf0       ?checkresolver@@YAXXZ      00503cf0 f   serverbrowser.obj
 0001:00102ef0       ?pingservers@@YAXXZ        00503ef0 f   serverbrowser.obj
 0001:001031c0       ?var_servpingdecay@@YAXPAUident@@@Z 005041c0 f   serverbrowser.obj
 0001:001031d0       ?var_servpingrate@@YAXPAUident@@@Z 005041d0 f   serverbrowser.obj
 0001:001034f0       ?resolvercheck@@YA_NPAPBDPAU_ENetAddress@@@Z 005044f0 f   serverbrowser.obj
 0001:001035a0       ?resolverquery@@YAXPBD@Z   005045a0 f   serverbrowser.obj
 0001:001035f0       ?resolverclear@@YAXXZ      005045f0 f   serverbrowser.obj
 0001:001036c0       ?resolverstop@@YAXAAUresolverthread@@@Z 005046c0 f   serverbrowser.obj
 0001:00103720       ?resolverinit@@YAXXZ       00504720 f   serverbrowser.obj
 0001:00103870       ?resolverloop@@YAHPAX@Z    00504870 f   serverbrowser.obj
 0001:00103aa0       ?connectwithtimeout@@YAHIPBDABU_ENetAddress@@@Z 00504aa0 f   serverbrowser.obj
 0001:00103be0       ?addserver@@YAXPBDH0_N@Z   00504be0 f   serverbrowser.obj
 0001:00103d70       ?resolverwait@@YA_NPBDPAU_ENetAddress@@@Z 00504d70 f   serverbrowser.obj
 0001:00104050       ?cleanupaa@@YAXXZ          00505050 f   aa.obj
 0001:001040c0       ?debugaa@@YA_NXZ           005050c0 f   aa.obj
 0001:00104250       ?doaa@@YAXIP6AXIH@Z@Z      00505250 f   aa.obj
 0001:00104520       ?multisampledaa@@YA_NXZ    00505520 f   aa.obj
 0001:00104560       ?disableaamask@@YAXXZ      00505560 f   aa.obj
 0001:001045b0       ?enableaamask@@YAXH@Z      005055b0 f   aa.obj
 0001:00104600       ?setaamask@@YAX_N@Z        00505600 f   aa.obj
 0001:00104760       ?jitteraa@@YAXXZ           00505760 f   aa.obj
 0001:00104940       ?setupaa@@YAXHH@Z          00505940 f   aa.obj
 0001:001049b0       ?dosmaa@@YAXI_N@Z          005059b0 f   aa.obj
 0001:00105280       ?viewsmaa@@YAXXZ           00506280 f   aa.obj
 0001:00105450       ?var_smaastencil@@YAXPAUident@@@Z 00506450 f   aa.obj
 0001:00105460       ?var_smaadepthmask@@YAXPAUident@@@Z 00506460 f   aa.obj
 0001:00105470       ?var_smaagreenluma@@YAXPAUident@@@Z 00506470 f   aa.obj
 0001:00105480       ?var_smaacoloredge@@YAXPAUident@@@Z 00506480 f   aa.obj
 0001:00105490       ?var_smaaquality@@YAXPAUident@@@Z 00506490 f   aa.obj
 0001:001054a0       ?var_smaaspatial@@YAXPAUident@@@Z 005064a0 f   aa.obj
 0001:001054b0       ?var_smaa@@YAXPAUident@@@Z 005064b0 f   aa.obj
 0001:001054c0       ?cleanupsmaa@@YAXXZ        005064c0 f   aa.obj
 0001:001055b0       ?setupsmaa@@YAXHH@Z        005065b0 f   aa.obj
 0001:00105d10       ?gensmaaareadata@@YAXXZ    00506d10 f   aa.obj
 0001:00105f40       ?areadiag@@YA?AUvec2@@HMMABU1@@Z 00506f40 f   aa.obj
 0001:00106620       ?areaunderdiag@@YAMABUvec2@@00@Z 00507620 f   aa.obj
 0001:00106920       ?areaortho@@YA?AUvec2@@HMMM@Z 00507920 f   aa.obj
 0001:001070f0       ?areaunderortho@@YA?AUvec2@@ABU1@0M@Z 005080f0 f   aa.obj
 0001:00107360       ?gensmaasearchdata@@YAXXZ  00508360 f   aa.obj
 0001:00107480       ?clearsmaashaders@@YAXXZ   00508480 f   aa.obj
 0001:001074c0       ?loadsmaashaders@@YAX_N@Z  005084c0 f   aa.obj
 0001:001077b0       ?dofxaa@@YAXI@Z            005087b0 f   aa.obj
 0001:00107910       ?var_fxaagreenluma@@YAXPAUident@@@Z 00508910 f   aa.obj
 0001:00107920       ?var_fxaaquality@@YAXPAUident@@@Z 00508920 f   aa.obj
 0001:00107930       ?var_fxaa@@YAXPAUident@@@Z 00508930 f   aa.obj
 0001:00107940       ?cleanupfxaa@@YAXXZ        00508940 f   aa.obj
 0001:001079a0       ?setupfxaa@@YAXHH@Z        005089a0 f   aa.obj
 0001:00107bd0       ?clearfxaashaders@@YAXXZ   00508bd0 f   aa.obj
 0001:00107bf0       ?loadfxaashaders@@YAXXZ    00508bf0 f   aa.obj
 0001:00107ca0       ?dotqaa@@YAXI@Z            00508ca0 f   aa.obj
 0001:00107d80       ?resolvetqaa@@YAXI@Z       00508d80 f   aa.obj
 0001:00108140       ?viewtqaa@@YAXXZ           00509140 f   aa.obj
 0001:001082b0       ?setaavelocityparams@@YAXI@Z 005092b0 f   aa.obj
 0001:00108600       ?cleanuptqaa@@YAXXZ        00509600 f   aa.obj
 0001:00108670       ?setuptqaa@@YAXHH@Z        00509670 f   aa.obj
 0001:00108820       ?loadtqaashaders@@YAXXZ    00509820 f   aa.obj
 0001:00108870       ?var_tqaamovemask@@YAXPAUident@@@Z 00509870 f   aa.obj
 0001:00108880       ?var_tqaa@@YAXPAUident@@@Z 00509880 f   aa.obj
 0001:00108a20       ?genstaintris@BIH@@QAEXPAUstainrenderer@@ABUvec@@M1HHHM@Z 00509a20 f   bih.obj
 0001:00108e80       ?genstaintris@BIH@@QAEXPAUstainrenderer@@ABUmesh@1@ABUvec@@MABUmatrix4x3@@PAUnode@1@ABUivec@@5@Z 00509e80 f   bih.obj
 0001:0010ac60       ??1BIH@@QAE@XZ             0050bc60 f   bih.obj
 0001:0010acc0       ??0BIH@@QAE@AAU?$vector@Umesh@BIH@@@@@Z 0050bcc0 f   bih.obj
 0001:0010bda0       ?build@BIH@@QAEXAAUmesh@1@PAGHABUivec@@2@Z 0050cda0 f   bih.obj
 0001:0010c480       ?triintersect@BIH@@QAE_NABUmesh@1@HABUvec@@1MAAMH@Z 0050d480 f   bih.obj
 0001:0010cac0       ?mmintersect@@YA_NABUextentity@@ABUvec@@1MHAAM@Z 0050dac0 f   bih.obj
 0001:0010cfa0       ?ellipsecollide@BIH@@QAE_NPAUphysent@@ABUvec@@M1HHHM@Z 0050dfa0 f   bih.obj
 0001:0010d4c0       ?boxcollide@BIH@@QAE_NPAUphysent@@ABUvec@@M1HHHM@Z 0050e4c0 f   bih.obj
 0001:0010db80       ?getdynlight@@YA_NHAAUvec@@AAM00AAH2@Z 0050eb80 f   dynlight.obj
 0001:0010dbf0       ?finddynlights@@YAHXZ      0050ebf0 f   dynlight.obj
 0001:0010df60       ?updatedynlights@@YAXXZ    0050ef60 f   dynlight.obj
 0001:0010e3e0       ?removetrackeddynlights@@YAXPAUphysent@@@Z 0050f3e0 f   dynlight.obj
 0001:0010e480       ?cleardynlights@@YAXXZ     0050f480 f   dynlight.obj
 0001:0010e510       ?adddynlight@@YAXABUvec@@M0HHHM0PAUphysent@@0H@Z 0050f510 f   dynlight.obj
 0001:0010e960       ?cleanupgrass@@YAXXZ       0050f960 f   grass.obj
 0001:0010e9a0       ?rendergrass@@YAXXZ        0050f9a0 f   grass.obj
 0001:0010ed90       ?cleargrassshaders@@YAXXZ  0050fd90 f   grass.obj
 0001:0010eda0       ?loadgrassshader@@YAPAUShader@@XZ 0050fda0 f   grass.obj
 0001:0010edf0       ?generategrass@@YAXXZ      0050fdf0 f   grass.obj
 0001:00110630       ?var_grasscolour@@YAXPAUident@@@Z 00511630 f   grass.obj
 0001:001106f0       ?loadgrassshaders@@YAXXZ   005116f0 f   grass.obj
 0001:00111310       ?renderminimapmaterials@@YAXXZ 00512310 f   material.obj
 0001:00111340       ?rendereditmaterials@@YAXXZ 00512340 f   material.obj
 0001:00111650       ?rendersolidmaterials@@YAXXZ 00512650 f   material.obj
 0001:00111670       ?renderliquidmaterials@@YAXXZ 00512670 f   material.obj
 0001:001116a0       ?renderglass@@YAXXZ        005126a0 f   material.obj
 0001:00111d80       ?var_glassenv@@YAXPAUident@@@Z 00512d80 f   material.obj
 0001:00111d90       ?getglassspec@@YAHH@Z      00512d90 f   material.obj
 0001:00111dd0       ?getglassrefract@@YAMH@Z   00512dd0 f   material.obj
 0001:00111e10       ?getglasscolour@@YAABUbvec@@H@Z 00512e10 f   material.obj
 0001:00111e50       ?var_glass4colour@@YAXPAUident@@@Z 00512e50 f   material.obj
 0001:00111e90       ?var_glass3colour@@YAXPAUident@@@Z 00512e90 f   material.obj
 0001:00111ed0       ?var_glass2colour@@YAXPAUident@@@Z 00512ed0 f   material.obj
 0001:00111f10       ?var_glasscolour@@YAXPAUident@@@Z 00512f10 f   material.obj
 0001:00111f50       ?rendermaterialmask@@YAXXZ 00512f50 f   material.obj
 0001:00112040       ?findmaterials@@YAHXZ      00513040 f   material.obj
 0001:00112ec0       ?rendermatgrid@@YAXXZ      00513ec0 f   material.obj
 0001:00113170       ?sorteditmaterials@@YAXXZ  00514170 f   material.obj
 0001:001133d0       ?preloadglassshaders@@YAX_N@Z 005143d0 f   material.obj
 0001:00113460       ?var_optmats@@YAXPAUident@@@Z 00514460 f   material.obj
 0001:00113930       ?visiblematerial@@YAHABUcube@@HABUivec@@HG@Z 00514930 f   material.obj
 0001:00113a00       ?findmaterialname@@YAPBDH@Z 00514a00 f   material.obj
 0001:00113ca0       ?optimizematsurfs@@YAHPAUmaterialsurface@@H@Z 00514ca0 f   material.obj
 0001:001141d0       ?genmatsurfs@@YAXABUcube@@ABUivec@@HAAU?$vector@Umaterialsurface@@@@@Z 005151d0 f   material.obj
 0001:001142c0       ?calcmatbb@@YAXPAUvtxarray@@ABUivec@@HAAU?$vector@Umaterialsurface@@@@@Z 005152c0 f   material.obj
 0001:001144f0       ?getmaterialdesc@@YAPBDHPBD@Z 005154f0 f   material.obj
 0001:00114620       ?setupmaterials@@YAXHH@Z   00515620 f   material.obj
 0001:00114b40       ?findmaterial@@YAHPBD@Z    00515b40 f   material.obj
 0001:00114f70       ?cleanupgl@@YAXXZ          00515f70 f   rendergl.obj
 0001:00115030       ?gl_drawframe@@YAXXZ       00516030 f   rendergl.obj
 0001:00115290       ?gl_setupframe@@YAX_N@Z    00516290 f   rendergl.obj
 0001:001152f0       ?gl_drawhud@@YAXXZ         005162f0 f   rendergl.obj
 0001:00115f30       ?drawcrosshair@@YAXHH@Z    00516f30 f   rendergl.obj
 0001:00116290       ?writecrosshairs@@YAXPAUstream@@@Z 00517290 f   rendergl.obj
 0001:001162f0       ?run@?$_icmd_getcrosshair@$0KFC@@@SAXPAH@Z 005172f0 f   rendergl.obj
 0001:00116380       ?loadcrosshair_@@YAXPBDPAH@Z 00517380 f   rendergl.obj
 0001:00116400       ?loadcrosshair@@YAXPBDH@Z  00517400 f   rendergl.obj
 0001:00116480       ?drawdamagescreen@@YAXHH@Z 00517480 f   rendergl.obj
 0001:001165a0       ?damageblend@@YAXH@Z       005175a0 f   rendergl.obj
 0001:00116600       ?var_damagescreen@@YAXPAUident@@@Z 00517600 f   rendergl.obj
 0001:00116620       ?drawdamagecompass@@YAXHH@Z 00517620 f   rendergl.obj
 0001:00116a30       ?damagecompass@@YAXHABUvec@@@Z 00517a30 f   rendergl.obj
 0001:00116be0       ?gl_drawmainmenu@@YAXXZ    00517be0 f   rendergl.obj
 0001:00116c00       ?gl_drawview@@YAXXZ        00517c00 f   rendergl.obj
 0001:00117700       ?end@modelpreview@@YAXXZ   00518700 f   rendergl.obj
 0001:001177f0       ?start@modelpreview@@YAXHHHH_N0@Z 005187f0 f   rendergl.obj
 0001:00117af0       ?drawcubemap@@YAXHABUvec@@MMABUcubemapside@@_N@Z 00518af0 f   rendergl.obj
 0001:00118090       ?clipminimap@@YAXAAUivec@@0PAUcube@@ABU1@H@Z 00519090 f   rendergl.obj
 0001:001181b0       ?bindminimap@@YAXXZ        005191b0 f   rendergl.obj
 0001:001181d0       ?var_nominimapcolour@@YAXPAUident@@@Z 005191d0 f   rendergl.obj
 0001:00118210       ?var_showminimap@@YAXPAUident@@@Z 00519210 f   rendergl.obj
 0001:00118220       ?var_minimapsize@@YAXPAUident@@@Z 00519220 f   rendergl.obj
 0001:00118230       ?var_minimapcolour@@YAXPAUident@@@Z 00519230 f   rendergl.obj
 0001:00118260       ?clearminimap@@YAXXZ       00519260 f   rendergl.obj
 0001:00118290       ?drawfogoverlay@@YAXHMMH@Z 00519290 f   rendergl.obj
 0001:001189c0       ?calcfogcull@@YAMXZ        005199c0 f   rendergl.obj
 0001:00118a40       ?calcfogdensity@@YAMM@Z    00519a40 f   rendergl.obj
 0001:00118a80       ?setfogcolor@@YAXABUvec@@@Z 00519a80 f   rendergl.obj
 0001:00118fd0       ?var_fogcolour@@YAXPAUident@@@Z 00519fd0 f   rendergl.obj
 0001:00119000       ?hudquad@@YAXMMMMMMMM@Z    0051a000 f   rendergl.obj
 0001:00119210       ?screenquadoffset@@YAXMMMM@Z 0051a210 f   rendergl.obj
 0001:00119240       ?screenquad@@YAXMMMM@Z     0051a240 f   rendergl.obj
 0001:001192d0       ?screenquadflipped@@YAXMM@Z 0051a2d0 f   rendergl.obj
 0001:00119350       ?screenquad@@YAXXZ         0051a350 f   rendergl.obj
 0001:00119500       ?calcspotscissor@@YA_NABUvec@@M0H00AAM11111@Z 0051a500 f   rendergl.obj
 0001:0011a140       ?calcspherescissor@@YA_NABUvec@@MAAM11111@Z 0051b140 f   rendergl.obj
 0001:0011a6e0       ?renderavatar@@YAXXZ       0051b6e0 f   rendergl.obj
 0001:0011a940       ?calcavatarpos@@YA?AUvec@@ABU1@M@Z 0051b940 f   rendergl.obj
 0001:0011ac30       ?calcfrustumboundsphere@@YAMMMABUvec@@0AAU1@@Z 0051bc30 f   rendergl.obj
 0001:0011ad90       ?recomputecamera@@YAXXZ    0051bd90 f   rendergl.obj
 0001:0011b6a0       ?mousemove@@YAXHH@Z        0051c6a0 f   rendergl.obj
 0001:0011b860       ?modifyorient@@YAXMM@Z     0051c860 f   rendergl.obj
 0001:0011b900       ?fixcamerarange@@YAXXZ     0051c900 f   rendergl.obj
 0001:0011b980       ?isthirdperson@@YA_NXZ     0051c980 f   rendergl.obj
 0001:0011b9a0       ?computezoom@@YAXXZ        0051c9a0 f   rendergl.obj
 0001:0011baf0       ?disablezoom@@YAXXZ        0051caf0 f   rendergl.obj
 0001:0011bb10       ?pushhudtranslate@@YAXMMMM@Z 0051cb10 f   rendergl.obj
 0001:0011bbe0       ?pushhudscale@@YAXMM@Z     0051cbe0 f   rendergl.obj
 0001:0011bc50       ?resethudmatrix@@YAXXZ     0051cc50 f   rendergl.obj
 0001:0011bd20       ?setcamprojmatrix@@YAX_N0@Z 0051cd20 f   rendergl.obj
 0001:0011c120       ?setcammatrix@@YAXXZ       0051d120 f   rendergl.obj
 0001:0011c540       ?run@?$_icmd_getcampos@$0ENM@@@SAXXZ 0051d540 f   rendergl.obj
 0001:0011c670       ?run@?$_icmd_getcamroll@$0ENH@@@SAXXZ 0051d670 f   rendergl.obj
 0001:0011c690       ?run@?$_icmd_getcampitch@$0ENG@@@SAXXZ 0051d690 f   rendergl.obj
 0001:0011c6b0       ?run@?$_icmd_getcamyaw@$0ENF@@@SAXXZ 0051d6b0 f   rendergl.obj
 0001:0011c6d0       ?gl_init@@YAXXZ            0051d6d0 f   rendergl.obj
 0001:0011c8e0       ?gl_resize@@YAXXZ          0051d8e0 f   rendergl.obj
 0001:0011c940       ?printtimers@@YAXHH@Z      0051d940 f   rendergl.obj
 0001:0011cb60       ?var_timer@@YAXPAUident@@@Z 0051db60 f   rendergl.obj
 0001:0011cb70       ?cleanuptimers@@YAXXZ      0051db70 f   rendergl.obj
 0001:0011cbd0       ?synctimers@@YAXXZ         0051dbd0 f   rendergl.obj
 0001:0011ccd0       ?findtimer@@YAPAUtimer@@PBD_N@Z 0051dcd0 f   rendergl.obj
 0001:0011cee0       ?run@?$_icmd_glext@$0EDD@@@SAXPAD@Z 0051dee0 f   rendergl.obj
 0001:0011cf00       ?gl_checkextensions@@YAXXZ 0051df00 f   rendergl.obj
 0001:0011ea90       ?checkdepthtexstencilrb@@YA_NXZ 0051fa90 f   rendergl.obj
 0001:0011ec40       ?hasext@@YA_NPBD@Z         0051fc40 f   rendergl.obj
 0001:0011ecc0       ?parseglexts@@YAXXZ        0051fcc0 f   rendergl.obj
 0001:0011efe0       ?glerror@@YAXPBDHI@Z       0051ffe0 f   rendergl.obj
 0001:0011f0e0       ?getprocaddress@@YAPAXPBD@Z 005200e0 f   rendergl.obj
 0001:0011f0f0       ?calcbbscissor@@YA_NABUivec@@0AAM111@Z 005200f0 f   rendergl.obj
 0001:0011f860       ?zerofogcolor@@YAXXZ       00520860 f   rendergl.obj
 0001:0011f890       ?resetfogcolor@@YAXXZ      00520890 f   rendergl.obj
 0001:0011f8a0       ?debugquad@@YAXMMMMMMMM@Z  005208a0 f   rendergl.obj
 0001:0011faa0       ?screenquad@@YAXMM@Z       00520aa0 f   rendergl.obj
 0001:0011fad0       ?begintimer@@YAPAUtimer@@PBD_N@Z 00520ad0 f   rendergl.obj
 0001:0011fb50       ?endtimer@@YAXPAUtimer@@@Z 00520b50 f   rendergl.obj
 0001:0011fba0       ?cleardamagescreen@@YAXXZ  00520ba0 f   rendergl.obj
 0001:0011fbc0       ?drawminimap@@YAXXZ        00520bc0 f   rendergl.obj
 0001:00120710       ?enablepolygonoffset@@YAXI@Z 00521710 f   rendergl.obj
 0001:001207d0       ?disablepolygonoffset@@YAXI@Z 005217d0 f   rendergl.obj
 0001:00120840       ?calcmodelpreviewpos@@YA?AUvec@@ABU1@AAM@Z 00521840 f   rendergl.obj
 0001:00120950       ?pushhudmatrix@@YAXXZ      00521950 f   rendergl.obj
 0001:001209a0       ?flushhudmatrix@@YAX_N@Z   005219a0 f   rendergl.obj
 0001:00120a80       ?pophudmatrix@@YAX_N0@Z    00521a80 f   rendergl.obj
 0001:00120ad0       ?resethudshader@@YAXXZ     00521ad0 f   rendergl.obj
 0001:00121a70       ?cleanuplights@@YAXXZ      00522a70 f   renderlights.obj
 0001:00121ae0       ?workinoq@@YAXXZ           00522ae0 f   renderlights.obj
 0001:00121b70       ?filtershadowcolors@@YAXXZ 00522b70 f   renderlights.obj
 0001:00122480       ?rendershadowmaps@@YAXH@Z  00523480 f   renderlights.obj
 0001:00123640       ?calcshadowinfo@@YAHABUextentity@@AAUvec@@AAM1AAH2@Z 00524640 f   renderlights.obj
 0001:001237b0       ?rendercsmshadowmaps@@YAXXZ 005247b0 f   renderlights.obj
 0001:00123f20       ?rendershadowtransparent@@YAXHH_N@Z 00524f20 f   renderlights.obj
 0001:001241c0       ?cleanupshadowtransparent@@YAXXZ 005251c0 f   renderlights.obj
 0001:001241f0       ?setupshadowtransparent@@YAXXZ 005251f0 f   renderlights.obj
 0001:00124250       ?renderslices@radiancehints@@QAEXXZ 00525250 f   renderlights.obj
 0001:00128930       ?packlights@@YAXXZ         00529930 f   renderlights.obj
 0001:00129860       ?collectlights@@YAXXZ      0052a860 f   renderlights.obj
 0001:0012a2d0       ?viewlightscissor@@YAXXZ   0052b2d0 f   renderlights.obj
 0001:0012a590       ?renderlights@@YAXMMMMPBIHH_N@Z 0052b590 f   renderlights.obj
 0001:0012f4c0       ?disable@lightsphere@@YAXXZ 005304c0 f   renderlights.obj
 0001:0012f4f0       ?draw@lightsphere@@YAXXZ   005304f0 f   renderlights.obj
 0001:0012f530       ?enable@lightsphere@@YAXXZ 00530530 f   renderlights.obj
 0001:0012f5c0       ?cleanup@lightsphere@@YAXXZ 005305c0 f   renderlights.obj
 0001:0012f610       ?init@lightsphere@@YAXHH@Z 00530610 f   renderlights.obj
 0001:0012f9d0       ?resetlights@@YAXXZ        005309d0 f   renderlights.obj
 0001:0012fdf0       ?calctilesize@@YAXXZ       00530df0 f   renderlights.obj
 0001:0012ff10       ?loaddeferredlightshader@@YAPAUShader@@PBD@Z 00530f10 f   renderlights.obj
 0001:001302b0       ?var_volcolour@@YAXPAUident@@@Z 005312b0 f   renderlights.obj
 0001:001302f0       ?var_volsteps@@YAXPAUident@@@Z 005312f0 f   renderlights.obj
 0001:00130300       ?var_volblur@@YAXPAUident@@@Z 00531300 f   renderlights.obj
 0001:00130310       ?var_volbilateral@@YAXPAUident@@@Z 00531310 f   renderlights.obj
 0001:00130320       ?var_volreduce@@YAXPAUident@@@Z 00531320 f   renderlights.obj
 0001:00130330       ?var_volumetric@@YAXPAUident@@@Z 00531330 f   renderlights.obj
 0001:00130340       ?setupvolumetric@@YAXHH@Z  00531340 f   renderlights.obj
 0001:00130690       ?loadvolumetricshaders@@YAXXZ 00531690 f   renderlights.obj
 0001:00130820       ?loadvolumetricshader@@YAPAUShader@@XZ 00531820 f   renderlights.obj
 0001:00130950       ?clearvolumetricshaders@@YAXXZ 00531950 f   renderlights.obj
 0001:00130970       ?useavatarmask@@YA_NXZ     00531970 f   renderlights.obj
 0001:001309a0       ?var_avatarshadowstencil@@YAXPAUident@@@Z 005319a0 f   renderlights.obj
 0001:001309c0       ?useradiancehints@@YA_NXZ  005319c0 f   renderlights.obj
 0001:00130a20       ?bindparams@radiancehints@@QAEXXZ 00531a20 f   renderlights.obj
 0001:00130cd0       ?setup@radiancehints@@QAEXXZ 00531cd0 f   renderlights.obj
 0001:001310e0       ?updatesplitdist@radiancehints@@QAEXXZ 005320e0 f   renderlights.obj
 0001:00131210       ?calcspherersmsplits@@YAHABUvec@@M@Z 00532210 f   renderlights.obj
 0001:001312e0       ?calcbbrsmsplits@@YAHABUivec@@0@Z 005322e0 f   renderlights.obj
 0001:00131480       ?gencullplanes@reflectiveshadowmap@@QAEXXZ 00532480 f   renderlights.obj
 0001:00131710       ?getprojmatrix@reflectiveshadowmap@@QAEXXZ 00532710 f   renderlights.obj
 0001:00131ba0       ?getmodelmatrix@reflectiveshadowmap@@QAEXXZ 00532ba0 f   renderlights.obj
 0001:00131c30       ?setup@reflectiveshadowmap@@QAEXXZ 00532c30 f   renderlights.obj
 0001:00131f50       ?calcspherecsmsplits@@YAHABUvec@@M@Z 00532f50 f   renderlights.obj
 0001:00132070       ?calcbbcsmsplits@@YAHABUivec@@0@Z 00533070 f   renderlights.obj
 0001:00132270       ?bindparams@cascadedshadowmap@@QAEXXZ 00533270 f   renderlights.obj
 0001:001326a0       ?gencullplanes@cascadedshadowmap@@QAEXXZ 005336a0 f   renderlights.obj
 0001:00132960       ?getprojmatrix@cascadedshadowmap@@QAEXXZ 00533960 f   renderlights.obj
 0001:00132f80       ?getmodelmatrix@cascadedshadowmap@@QAEXXZ 00533f80 f   renderlights.obj
 0001:00133010       ?updatesplitdist@cascadedshadowmap@@QAEXXZ 00534010 f   renderlights.obj
 0001:00133140       ?setup@cascadedshadowmap@@QAEXXZ 00534140 f   renderlights.obj
 0001:00133280       ?var_csmshadowmap@@YAXPAUident@@@Z 00534280 f   renderlights.obj
 0001:001332f0       ?var_csmsplits@@YAXPAUident@@@Z 005342f0 f   renderlights.obj
 0001:00133360       ?var_csmmaxsize@@YAXPAUident@@@Z 00534360 f   renderlights.obj
 0001:00133570       ?var_batchsunlight@@YAXPAUident@@@Z 00534570 f   renderlights.obj
 0001:001335a0       ?var_lighttilebatch@@YAXPAUident@@@Z 005345a0 f   renderlights.obj
 0001:001335d0       ?var_alphashadowscale@@YAXPAUident@@@Z 005345d0 f   renderlights.obj
 0001:00133620       ?var_alphashadow@@YAXPAUident@@@Z 00534620 f   renderlights.obj
 0001:00133650       ?var_smalphaprec@@YAXPAUident@@@Z 00534650 f   renderlights.obj
 0001:00133660       ?var_smalpha@@YAXPAUident@@@Z 00534660 f   renderlights.obj
 0001:00133690       ?var_smgather@@YAXPAUident@@@Z 00534690 f   renderlights.obj
 0001:001336d0       ?var_smfilter@@YAXPAUident@@@Z 005346d0 f   renderlights.obj
 0001:00133710       ?var_smcache@@YAXPAUident@@@Z 00534710 f   renderlights.obj
 0001:00133720       ?var_smcullside@@YAXPAUident@@@Z 00534720 f   renderlights.obj
 0001:00133730       ?var_smdepthprec@@YAXPAUident@@@Z 00534730 f   renderlights.obj
 0001:00133740       ?var_smsize@@YAXPAUident@@@Z 00534740 f   renderlights.obj
 0001:00133750       ?cleanupshadowatlas@@YAXXZ 00534750 f   renderlights.obj
 0001:00133860       ?setupshadowatlas@@YAXXZ   00534860 f   renderlights.obj
 0001:00133fb0       ?viewshadowatlas@@YAXXZ    00534fb0 f   renderlights.obj
 0001:00134350       ?clearsmshaders@@YAXXZ     00535350 f   renderlights.obj
 0001:00134360       ?loadsmshaders@@YAXXZ      00535360 f   renderlights.obj
 0001:00134560       ?viewrh@@YAXXZ             00535560 f   renderlights.obj
 0001:00134c10       ?viewrsm@@YAXXZ            00535c10 f   renderlights.obj
 0001:00134d70       ?var_gi@@YAXPAUident@@@Z   00535d70 f   renderlights.obj
 0001:00134da0       ?var_giscale@@YAXPAUident@@@Z 00535da0 f   renderlights.obj
 0001:00134df0       ?var_gidist@@YAXPAUident@@@Z 00535df0 f   renderlights.obj
 0001:00134e60       ?var_rhtaps@@YAXPAUident@@@Z 00535e60 f   renderlights.obj
 0001:00134e70       ?var_rhforce@@YAXPAUident@@@Z 00535e70 f   renderlights.obj
 0001:00134e80       ?var_rhcache@@YAXPAUident@@@Z 00535e80 f   renderlights.obj
 0001:00134e90       ?var_rsmspread@@YAXPAUident@@@Z 00535e90 f   renderlights.obj
 0001:00134ed0       ?var_rhgrid@@YAXPAUident@@@Z 00535ed0 f   renderlights.obj
 0001:00134ee0       ?var_rhsplitweight@@YAXPAUident@@@Z 00535ee0 f   renderlights.obj
 0001:00134f20       ?var_rhworldbias@@YAXPAUident@@@Z 00535f20 f   renderlights.obj
 0001:00134f60       ?var_rsmdepthprec@@YAXPAUident@@@Z 00535f60 f   renderlights.obj
 0001:00134f70       ?var_rsmprec@@YAXPAUident@@@Z 00535f70 f   renderlights.obj
 0001:00134f80       ?var_rhprec@@YAXPAUident@@@Z 00535f80 f   renderlights.obj
 0001:00134f90       ?var_rsmdepthmargin@@YAXPAUident@@@Z 00535f90 f   renderlights.obj
 0001:00134fd0       ?var_rsmdepthrange@@YAXPAUident@@@Z 00535fd0 f   renderlights.obj
 0001:00135010       ?var_rhpradiustweak@@YAXPAUident@@@Z 00536010 f   renderlights.obj
 0001:00135050       ?var_rsmpradiustweak@@YAXPAUident@@@Z 00536050 f   renderlights.obj
 0001:00135090       ?var_rhfarplane@@YAXPAUident@@@Z 00536090 f   renderlights.obj
 0001:001350d0       ?var_rhnearplane@@YAXPAUident@@@Z 005360d0 f   renderlights.obj
 0001:00135110       ?var_rsmsize@@YAXPAUident@@@Z 00536110 f   renderlights.obj
 0001:00135120       ?var_rhborder@@YAXPAUident@@@Z 00536120 f   renderlights.obj
 0001:00135130       ?var_rhsplits@@YAXPAUident@@@Z 00536130 f   renderlights.obj
 0001:00135160       ?var_rhrect@@YAXPAUident@@@Z 00536160 f   renderlights.obj
 0001:00135170       ?cleanupradiancehints@@YAXXZ 00536170 f   renderlights.obj
 0001:001352a0       ?setupradiancehints@@YAXXZ 005362a0 f   renderlights.obj
 0001:00135a30       ?clearrhshaders@@YAXXZ     00536a30 f   renderlights.obj
 0001:00135a50       ?loadrhshaders@@YAXXZ      00536a50 f   renderlights.obj
 0001:00135ba0       ?loadradiancehintsshader@@YAPAUShader@@XZ 00536ba0 f   renderlights.obj
 0001:00135be0       ?viewrefract@@YAXXZ        00536be0 f   renderlights.obj
 0001:00135d20       ?viewstencil@@YAXXZ        00536d20 f   renderlights.obj
 0001:00136020       ?viewdepth@@YAXXZ          00537020 f   renderlights.obj
 0001:00136160       ?viewbloom@@YAXXZ          00537160 f   renderlights.obj
 0001:001362a0       ?getavglum@@YAXPAHPAUident@@@Z 005372a0 f   renderlights.obj
 0001:00136340       ?var_gscalecubicsoft@@YAXPAUident@@@Z 00537340 f   renderlights.obj
 0001:00136360       ?var_gscalenearest@@YAXPAUident@@@Z 00537360 f   renderlights.obj
 0001:00136370       ?var_gscalecubic@@YAXPAUident@@@Z 00537370 f   renderlights.obj
 0001:00136380       ?var_gscale@@YAXPAUident@@@Z 00537380 f   renderlights.obj
 0001:00136390       ?var_hdrgamma@@YAXPAUident@@@Z 00537390 f   renderlights.obj
 0001:001363b0       ?var_hdrprec@@YAXPAUident@@@Z 005373b0 f   renderlights.obj
 0001:001363c0       ?var_bloomprec@@YAXPAUident@@@Z 005373c0 f   renderlights.obj
 0001:001363d0       ?var_bloomsize@@YAXPAUident@@@Z 005373d0 f   renderlights.obj
 0001:001363e0       ?resolvemsaacolor@@YAXHH@Z 005373e0 f   renderlights.obj
 0001:001364b0       ?resolvemsaadepth@@YAXHH@Z 005374b0 f   renderlights.obj
 0001:00136730       ?setupmsbuffer@@YAXHH@Z    00537730 f   renderlights.obj
 0001:00136fb0       ?bindmsdepth@@YAXXZ        00537fb0 f   renderlights.obj
 0001:00137060       ?cleanupmsbuffer@@YAXXZ    00538060 f   renderlights.obj
 0001:001371c0       ?maskgbuffer@@YAXPBD@Z     005381c0 f   renderlights.obj
 0001:00137250       ?run@?$_icmd_usepacknorm@$0CBL@@@SAXXZ 00538250 f   renderlights.obj
 0001:001372a0       ?usepacknorm@@YA_NXZ       005382a0 f   renderlights.obj
 0001:001372d0       ?var_forcepacknorm@@YAXPAUident@@@Z 005382d0 f   renderlights.obj
 0001:001372f0       ?initgbuffer@@YAXXZ        005382f0 f   renderlights.obj
 0001:00137560       ?checkmsaasamples@@YAXXZ   00538560 f   renderlights.obj
 0001:001375d0       ?var_msaapreserve@@YAXPAUident@@@Z 005385d0 f   renderlights.obj
 0001:001375f0       ?var_msaatonemapblit@@YAXPAUident@@@Z 005385f0 f   renderlights.obj
 0001:00137600       ?var_msaatonemap@@YAXPAUident@@@Z 00538600 f   renderlights.obj
 0001:00137610       ?var_msaalineardepth@@YAXPAUident@@@Z 00538610 f   renderlights.obj
 0001:00137630       ?var_msaaedgedetect@@YAXPAUident@@@Z 00538630 f   renderlights.obj
 0001:00137640       ?var_msaastencil@@YAXPAUident@@@Z 00538640 f   renderlights.obj
 0001:00137660       ?var_msaadepthstencil@@YAXPAUident@@@Z 00538660 f   renderlights.obj
 0001:00137680       ?var_msaa@@YAXPAUident@@@Z 00538680 f   renderlights.obj
 0001:001376a0       ?var_gdepthstencil@@YAXPAUident@@@Z 005386a0 f   renderlights.obj
 0001:001376c0       ?var_gstencil@@YAXPAUident@@@Z 005386c0 f   renderlights.obj
 0001:001376e0       ?var_glineardepth@@YAXPAUident@@@Z 005386e0 f   renderlights.obj
 0001:00137700       ?setupscale@@YAXHHHH@Z     00538700 f   renderlights.obj
 0001:001378d0       ?cleanupscale@@YAXXZ       005388d0 f   renderlights.obj
 0001:00137940       ?viewao@@YAXXZ             00538940 f   renderlights.obj
 0001:00137ab0       ?initao@@YAXXZ             00538ab0 f   renderlights.obj
 0001:00137ae0       ?var_aoderivnormal@@YAXPAUident@@@Z 00538ae0 f   renderlights.obj
 0001:00137af0       ?var_aotaps@@YAXPAUident@@@Z 00538af0 f   renderlights.obj
 0001:00137b00       ?var_aopackdepth@@YAXPAUident@@@Z 00538b00 f   renderlights.obj
 0001:00137b10       ?var_aobilateralupscale@@YAXPAUident@@@Z 00538b10 f   renderlights.obj
 0001:00137b20       ?var_aobilateral@@YAXPAUident@@@Z 00538b20 f   renderlights.obj
 0001:00137b30       ?var_aonoise@@YAXPAUident@@@Z 00538b30 f   renderlights.obj
 0001:00137b40       ?var_aoprec@@YAXPAUident@@@Z 00538b40 f   renderlights.obj
 0001:00137b50       ?var_aofloatdepth@@YAXPAUident@@@Z 00538b50 f   renderlights.obj
 0001:00137b70       ?var_aoreducedepth@@YAXPAUident@@@Z 00538b70 f   renderlights.obj
 0001:00137b80       ?var_aoreduce@@YAXPAUident@@@Z 00538b80 f   renderlights.obj
 0001:00137b90       ?var_aosun@@YAXPAUident@@@Z 00538b90 f   renderlights.obj
 0001:00137bc0       ?var_ao@@YAXPAUident@@@Z   00538bc0 f   renderlights.obj
 0001:00137bf0       ?cleanupao@@YAXXZ          00538bf0 f   renderlights.obj
 0001:00137c90       ?setupao@@YAXHH@Z          00538c90 f   renderlights.obj
 0001:00138490       ?clearaoshaders@@YAXXZ     00539490 f   renderlights.obj
 0001:001384a0       ?loadaoshaders@@YAXXZ      005394a0 f   renderlights.obj
 0001:00138540       ?loadambientobscuranceshader@@YAPAUShader@@XZ 00539540 f   renderlights.obj
 0001:001385e0       ?setbilateralshader@@YAXHHM@Z 005395e0 f   renderlights.obj
 0001:00138650       ?setbilateralparams@@YAXHM@Z 00539650 f   renderlights.obj
 0001:00138a10       ?clearbilateralshaders@@YAXXZ 00539a10 f   renderlights.obj
 0001:00138a30       ?loadbilateralshaders@@YAXXZ 00539a30 f   renderlights.obj
 0001:00138b50       ?loadbilateralshader@@YAPAUShader@@H@Z 00539b50 f   renderlights.obj
 0001:00138c60       ?cleanupbloom@@YAXXZ       00539c60 f   renderlights.obj
 0001:00138cf0       ?setupbloom@@YAXHH@Z       00539cf0 f   renderlights.obj
 0001:00139480       ?gethdrformat@@YAHHH@Z     0053a480 f   renderlights.obj
 0001:001394c0       ?enableavatarmask@@YAXXZ   0053a4c0 f   renderlights.obj
 0001:00139530       ?disableavatarmask@@YAXXZ  0053a530 f   renderlights.obj
 0001:00139550       ?rendergbuffer@@YAX_N@Z    0053a550 f   renderlights.obj
 0001:00139840       ?rendershadowatlas@@YAXXZ  0053a840 f   renderlights.obj
 0001:00139bb0       ?shademinimap@@YAXABUvec@@@Z 0053abb0 f   renderlights.obj
 0001:00139cb0       ?copyhdr@@YAXHHIHH_N00@Z   0053acb0 f   renderlights.obj
 0001:0013a0a0       ?preparegbuffer@@YAX_N@Z   0053b0a0 f   renderlights.obj
 0001:0013ade0       ?shadesky@@YAXXZ           0053bde0 f   renderlights.obj
 0001:0013ae50       ?renderradiancehints@@YAXXZ 0053be50 f   renderlights.obj
 0001:0013b640       ?shadegbuffer@@YAXXZ       0053c640 f   renderlights.obj
 0001:0013b9a0       ?rendertransparent@@YAXXZ  0053c9a0 f   renderlights.obj
 0001:0013ce50       ?setupgbuffer@@YAXXZ       0053de50 f   renderlights.obj
 0001:0013d860       ?shademodelpreview@@YAXHHHH_N0@Z 0053e860 f   renderlights.obj
 0001:0013ddf0       ?shouldscale@@YAIXZ        0053edf0 f   renderlights.obj
 0001:0013de00       ?renderao@@YAXXZ           0053ee00 f   renderlights.obj
 0001:0013e9f0       ?rendervolumetric@@YAXXZ   0053f9f0 f   renderlights.obj
 0001:00140170       ?processhdr@@YAXIH@Z       00541170 f   renderlights.obj
 0001:00141de0       ?doscale@@YAXI@Z           00542de0 f   renderlights.obj
 0001:00142180       ?debuglights@@YA_NXZ       00543180 f   renderlights.obj
 0001:00142930       ?setuplights@@YAXXZ        00543930 f   renderlights.obj
 0001:00142af0       ?loadhdrshaders@@YAXH@Z    00543af0 f   renderlights.obj
 0001:00142bc0       ?bindgdepth@@YAXXZ         00543bc0 f   renderlights.obj
 0001:00142c70       ?cleanupgbuffer@@YAXXZ     00543c70 f   renderlights.obj
 0001:00142f50       ?cleanupvolumetric@@YAXXZ  00543f50 f   renderlights.obj
 0001:00142fe0       ?cleardeferredlightshaders@@YAXXZ 00543fe0 f   renderlights.obj
 0001:00143010       ?clearshadowcache@@YAXXZ   00544010 f   renderlights.obj
 0001:00143060       ?clearradiancehintscache@@YAXXZ 00544060 f   renderlights.obj
 0001:001430a0       ?loaddeferredlightshaders@@YAXXZ 005440a0 f   renderlights.obj
 0001:001441b0       ?loadskin@@YAXPBD0AAPAUTexture@@1@Z 005451b0 f   rendermodel.obj
 0001:001445f0       ?run@?$_icmd_findanims@$0EEK@@@SAXPAD@Z 005455f0 f   rendermodel.obj
 0001:001448f0       ?matchanim@@YA_NPBD0@Z     005458f0 f   rendermodel.obj
 0001:00144970       ?rendermodel@@YAXPBDHABUvec@@MMMHPAUdynent@@PAUmodelattach@@HHMABUvec4@@@Z 00545970 f   rendermodel.obj
 0001:00144f50       ?rendermapmodel@@YAXHHABUvec@@MMMHHM@Z 00545f50 f   rendermodel.obj
 0001:001452e0       ?endmodelquery@@YAXXZ      005462e0 f   rendermodel.obj
 0001:001454e0       ?startmodelquery@@YAXPAUoccludequery@@@Z 005464e0 f   rendermodel.obj
 0001:00145510       ?rendermapmodelbatches@@YAXXZ 00546510 f   rendermodel.obj
 0001:00145f30       ?addbatchedmodel@@YAXPAUmodel@@AAUbatchedmodel@@H@Z 00546f30 f   rendermodel.obj
 0001:00146080       ?modeloccluded@@YA_NABUvec@@M@Z 00547080 f   rendermodel.obj
 0001:00146150       ?clearmodel@@YAXPAD@Z      00547150 f   rendermodel.obj
 0001:00146300       ?cleanupmodels@@YAXXZ      00547300 f   rendermodel.obj
 0001:00146340       ?clear_models@@YAXXZ       00547340 f   rendermodel.obj
 0001:00146380       ?preloadmodel@@YAXPBD@Z    00547380 f   rendermodel.obj
 0001:00146420       ?run@?$_icmd_mapmodelfind@$0BFG@@@SAXPAD@Z 00547420 f   rendermodel.obj
 0001:00146490       ?run@?$_icmd_nummapmodels@$0BFF@@@SAXXZ 00547490 f   rendermodel.obj
 0001:001464b0       ?run@?$_icmd_mapmodelloaded@$0BFE@@@SAXPAH@Z 005474b0 f   rendermodel.obj
 0001:00146500       ?run@?$_icmd_mapmodelname@$0BFD@@@SAXPAH0@Z 00547500 f   rendermodel.obj
 0001:00146550       ?run@?$_icmd_mmodel@$0BFA@@@SAXPAD@Z 00547550 f   rendermodel.obj
 0001:00146560       ?mapmodelname@@YAPBDH@Z    00547560 f   rendermodel.obj
 0001:00146580       ?mapmodelreset@@YAXPAH@Z   00547580 f   rendermodel.obj
 0001:001465c0       ?mapmodel@@YAXPAD@Z        005475c0 f   rendermodel.obj
 0001:001466d0       ?rdanimjoints@@YAXPAH@Z    005476d0 f   rendermodel.obj
 0001:001467c0       ?rdlimitrot@@YAXPAH0PAM1111@Z 005477c0 f   rendermodel.obj
 0001:001469e0       ?rdlimitdist@@YAXPAH0PAM1@Z 005479e0 f   rendermodel.obj
 0001:00146b90       ?rdjoint@@YAXPAH0000@Z     00547b90 f   rendermodel.obj
 0001:00146d60       ?rdtri@@YAXPAH00@Z         00547d60 f   rendermodel.obj
 0001:00146f10       ?rdeye@@YAXPAH@Z           00547f10 f   rendermodel.obj
 0001:00147000       ?rdvert@@YAXPAM000@Z       00548000 f   rendermodel.obj
 0001:001471d0       ?mdlname@@YAXXZ            005481d0 f   rendermodel.obj
 0001:00147200       ?mdlextendbb@@YAXPAM00@Z   00548200 f   rendermodel.obj
 0001:00147260       ?mdlbb@@YAXPAM00@Z         00548260 f   rendermodel.obj
 0001:001472a0       ?mdlalphashadow@@YAXPAH@Z  005482a0 f   rendermodel.obj
 0001:001472d0       ?mdlshadow@@YAXPAH@Z       005482d0 f   rendermodel.obj
 0001:00147300       ?mdlroll@@YAXPAM@Z         00548300 f   rendermodel.obj
 0001:00147330       ?mdlpitch@@YAXPAM@Z        00548330 f   rendermodel.obj
 0001:00147360       ?mdlyaw@@YAXPAM@Z          00548360 f   rendermodel.obj
 0001:00147390       ?mdltrans@@YAXPAM00@Z      00548390 f   rendermodel.obj
 0001:001473f0       ?mdlscale@@YAXPAM@Z        005483f0 f   rendermodel.obj
 0001:00147440       ?mdlspin@@YAXPAM00@Z       00548440 f   rendermodel.obj
 0001:00147480       ?mdlshader@@YAXPAD@Z       00548480 f   rendermodel.obj
 0001:001474d0       ?mdlfullbright@@YAXPAM@Z   005484d0 f   rendermodel.obj
 0001:00147500       ?mdlenvmap@@YAXPAM0PAD@Z   00548500 f   rendermodel.obj
 0001:00147560       ?mdlglow@@YAXPAM00@Z       00548560 f   rendermodel.obj
 0001:001475e0       ?mdldepthoffset@@YAXPAH@Z  005485e0 f   rendermodel.obj
 0001:00147610       ?mdldither@@YAXPAH@Z       00548610 f   rendermodel.obj
 0001:00147640       ?mdlalphatest@@YAXPAM@Z    00548640 f   rendermodel.obj
 0001:00147680       ?mdlgloss@@YAXPAH@Z        00548680 f   rendermodel.obj
 0001:001476c0       ?mdlspec@@YAXPAM@Z         005486c0 f   rendermodel.obj
 0001:00147710       ?mdltricollide@@YAXPAD@Z   00548710 f   rendermodel.obj
 0001:001477c0       ?mdlellipsecollide@@YAXPAH@Z 005487c0 f   rendermodel.obj
 0001:001477f0       ?mdlcollide@@YAXPAH@Z      005487f0 f   rendermodel.obj
 0001:00147840       ?mdlcolor@@YAXPAM00@Z      00548840 f   rendermodel.obj
 0001:001478a0       ?mdlcullface@@YAXPAH@Z     005488a0 f   rendermodel.obj
 0001:00147c80       ?buildhitdata@skelmeshgroup@skelmodel@@QAEXPBE@Z 00548c80 f   rendermodel.obj
 0001:00147d80       ?build@skelhitdata@@QAEXPAUskelmeshgroup@skelmodel@@PBE@Z 00548d80 f   rendermodel.obj
 0001:00149530       ?chooseid@skelhitdata@@QAEEPAUskelmeshgroup@skelmodel@@PAUskelmesh@3@ABUtri@3@PBE@Z 0054a530 f   rendermodel.obj
 0001:00149620       ?intersect@skelmeshgroup@skelmodel@@QAEXPAUskelhitdata@@PAUpart@animmodel@@ABUskelcacheentry@2@ABUvec@@3@Z 0054a620 f   rendermodel.obj
 0001:00149810       ?deletehitdata@skelmeshgroup@skelmodel@@QAEXXZ 0054a810 f   rendermodel.obj
 0001:001498d0       ?cleanuphitdata@skelmeshgroup@skelmodel@@QAEXXZ 0054a8d0 f   rendermodel.obj
 0001:00149940       ?triintersect@skelhitzone@@SA_NPAUskelmeshgroup@skelmodel@@PAUskin@animmodel@@PBUdualquat@@2HABUtri@skelbih@@ABUvec@@4@Z 0054a940 f   rendermodel.obj
 0001:0014a310       ??0skelbih@@QAE@PAUskelmeshgroup@skelmodel@@HPAUtri@0@@Z 0054b310 f   rendermodel.obj
 0001:0014a540       ?build@skelbih@@QAEXPAUskelmeshgroup@skelmodel@@PAGHABUvec@@2@Z 0054b540 f   rendermodel.obj
 0001:0014aea0       ?intersect@skelbih@@QAEXPAUskelmeshgroup@skelmodel@@PAUskin@animmodel@@ABUvec@@2@Z 0054bea0 f   rendermodel.obj
 0001:0014b030       ?triintersect@skelbih@@QAE_NPAUskelmeshgroup@skelmodel@@PAUskin@animmodel@@HABUvec@@2@Z 0054c030 f   rendermodel.obj
 0001:0014b530       ?var_dbgcolmesh@@YAXPAUident@@@Z 0054c530 f   rendermodel.obj
 0001:0014b540       ?cleanragdoll@@YAXPAUdynent@@@Z 0054c540 f   rendermodel.obj
 0001:0014b560       ?moveragdoll@@YAXPAUdynent@@@Z 0054c560 f   rendermodel.obj
 0001:0014b6e0       ?move@ragdolldata@@QAEXPAUdynent@@M@Z 0054c6e0 f   rendermodel.obj
 0001:0014be90       ?constrain@ragdolldata@@QAEXXZ 0054ce90 f   rendermodel.obj
 0001:0014c3d0       ?tryunstick@ragdolldata@@QAEXM@Z 0054d3d0 f   rendermodel.obj
 0001:0014c6d0       ?applyrotfriction@ragdolldata@@QAEXM@Z 0054d6d0 f   rendermodel.obj
 0001:0014cd40       ?calcrotfriction@ragdolldata@@QAEXXZ 0054dd40 f   rendermodel.obj
 0001:0014cf20       ?constrainrot@ragdolldata@@QAEXXZ 0054df20 f   rendermodel.obj
 0001:0014d680       ?constraindist@ragdolldata@@QAEXXZ 0054e680 f   rendermodel.obj
 0001:0014d8a0       ?shadowmaskbatchedmodels@@YAX_N@Z 0054e8a0 f   rendermodel.obj
 0001:0014d920       ?batcheddynamicmodelbounds@@YAHHAAUvec@@0@Z 0054e920 f   rendermodel.obj
 0001:0014db90       ?rendershadowmodelbatches@@YAX_N@Z 0054eb90 f   rendermodel.obj
 0001:0014dd00       ?clearbatchedmapmodels@@YAXXZ 0054ed00 f   rendermodel.obj
 0001:0014dd30       ?batcheddynamicmodels@@YAHXZ 0054ed30 f   rendermodel.obj
 0001:0014ddd0       ?rendertransparentmodelbatches@@YAXH@Z 0054edd0 f   rendermodel.obj
 0001:0014e260       ?resetmodelbatches@@YAXXZ  0054f260 f   rendermodel.obj
 0001:0014e280       ?rendermodelbatches@@YAXXZ 0054f280 f   rendermodel.obj
 0001:0014eda0       ?preloadusedmapmodels@@YAX_N0@Z 0054fda0 f   rendermodel.obj
 0001:0014f140       ?flushpreloadedmodels@@YAX_N@Z 00550140 f   rendermodel.obj
 0001:0014f210       ?loadmodel@@YAPAUmodel@@PBDH_N@Z 00550210 f   rendermodel.obj
 0001:0014fda0       ?updateparticles@@YAXXZ    00550da0 f   renderparticles.obj
 0001:00151700       ?particle_fireball@@YAXABUvec@@MHHHM@Z 00552700 f   renderparticles.obj
 0001:00151780       ?particle_flare@@YAXABUvec@@0HHHMPAUphysent@@@Z 00552780 f   renderparticles.obj
 0001:001517c0       ?particle_icon@@YAXABUvec@@HHHHHMH@Z 005527c0 f   renderparticles.obj
 0001:00151820       ?particle_textcopy@@YAXABUvec@@PBDHHHMH@Z 00552820 f   renderparticles.obj
 0001:00151900       ?particle_text@@YAXABUvec@@PBDHHHMH@Z 00552900 f   renderparticles.obj
 0001:001519c0       ?particle_splash@@YAXHHHABUvec@@HMHH@Z 005529c0 f   renderparticles.obj
 0001:00151a00       ?regular_particle_splash@@YAXHHHABUvec@@HMHHH@Z 00552a00 f   renderparticles.obj
 0001:00151a50       ?canaddparticles@@YA_NXZ   00552a50 f   renderparticles.obj
 0001:00151da0       ?removetrackedparticles@@YAXPAUphysent@@@Z 00552da0 f   renderparticles.obj
 0001:00151dd0       ?cleanupparticles@@YAXXZ   00552dd0 f   renderparticles.obj
 0001:00151df0       ?initparticles@@YAXXZ      00552df0 f   renderparticles.obj
 0001:00151f60       ?var_fewparticles@@YAXPAUident@@@Z 00552f60 f   renderparticles.obj
 0001:00151f70       ?var_maxparticles@@YAXPAUident@@@Z 00552f70 f   renderparticles.obj
 0001:001529e0       ?disable@sphere@@YAXXZ     005539e0 f   renderparticles.obj
 0001:00152a10       ?draw@sphere@@YAXXZ        00553a10 f   renderparticles.obj
 0001:00152a50       ?enable@sphere@@YAXXZ      00553a50 f   renderparticles.obj
 0001:00152b10       ?cleanup@sphere@@YAXXZ     00553b10 f   renderparticles.obj
 0001:00152b60       ?init@sphere@@YAXHH@Z      00553b60 f   renderparticles.obj
 0001:00153700       ?addparticleemitters@@YAXXZ 00554700 f   renderparticles.obj
 0001:001538d0       ?renderparticles@@YAXH@Z   005548d0 f   renderparticles.obj
 0001:00153ec0       ?debugparticles@@YAXXZ     00554ec0 f   renderparticles.obj
 0001:00153fe0       ?clearparticleemitters@@YAXXZ 00554fe0 f   renderparticles.obj
 0001:00154000       ?printparticles@@YA_NAAUextentity@@PADH@Z 00555000 f   renderparticles.obj
 0001:00154110       ?clearparticles@@YAXXZ     00555110 f   renderparticles.obj
 0001:00154140       ?seedparticles@@YAXXZ      00555140 f   renderparticles.obj
 0001:00154cc0       ?hasskybox@@YA_NXZ         00555cc0 f   rendersky.obj
 0001:00154d10       ?var_skyshadow@@YAXPAUident@@@Z 00555d10 f   rendersky.obj
 0001:00155e60       ?var_atmosundisk@@YAXPAUident@@@Z 00556e60 f   rendersky.obj
 0001:00155ea0       ?var_atmosunlight@@YAXPAUident@@@Z 00556ea0 f   rendersky.obj
 0001:00155ee0       ?cleanupsky@@YAXXZ         00556ee0 f   rendersky.obj
 0001:001561e0       ?draw@fogdome@@YAXXZ       005571e0 f   rendersky.obj
 0001:00156460       ?cleanup@fogdome@@YAXXZ    00557460 f   rendersky.obj
 0001:00156ba0       ?subdivide@fogdome@@YAXHH@Z 00557ba0 f   rendersky.obj
 0001:00156d90       ?genface@fogdome@@YAXHHHH@Z 00557d90 f   rendersky.obj
 0001:00156dd0       ?var_fogdomecolour@@YAXPAUident@@@Z 00557dd0 f   rendersky.obj
 0001:00156e00       ?drawenvoverlay@@YAXPAUTexture@@MM@Z 00557e00 f   rendersky.obj
 0001:00157320       ?drawenvbox@@YAXPAPAUTexture@@MMH@Z 00558320 f   rendersky.obj
 0001:00157640       ?drawenvboxface@@YAXMMHHHMMHHHMMHHHMMHHHPAUTexture@@@Z 00558640 f   rendersky.obj
 0001:001578f0       ?var_cloudcolour@@YAXPAUident@@@Z 005588f0 f   rendersky.obj
 0001:00157920       ?var_cloudlayer@@YAXPAUident@@@Z 00558920 f   rendersky.obj
 0001:00157a40       ?var_cloudboxcolour@@YAXPAUident@@@Z 00558a40 f   rendersky.obj
 0001:00157a70       ?var_cloudbox@@YAXPAUident@@@Z 00558a70 f   rendersky.obj
 0001:00157a90       ?var_skyboxcolour@@YAXPAUident@@@Z 00558a90 f   rendersky.obj
 0001:00157ac0       ?var_skybox@@YAXPAUident@@@Z 00558ac0 f   rendersky.obj
 0001:00157ae0       ?loadskyoverlay@@YAPAUTexture@@PBD@Z 00558ae0 f   rendersky.obj
 0001:00157bf0       ?loadsky@@YAXPBDQAPAUTexture@@@Z 00558bf0 f   rendersky.obj
 0001:00157e30       ?drawskybox@@YAX_N@Z       00558e30 f   rendersky.obj
 0001:00158a90       ?limitsky@@YA_NXZ          00559a90 f   rendersky.obj
 0001:00158d10       ?reloadfonts@@YAXXZ        00559d10 f   rendertext.obj
 0001:00158d80       ?text_boundsf@@YAXPBDAAM1H@Z 00559d80 f   rendertext.obj
 0001:00158f60       ?text_posf@@YAXPBDHAAM1H@Z 00559f60 f   rendertext.obj
 0001:001591d0       ?text_visible@@YAHPBDMMH@Z 0055a1d0 f   rendertext.obj
 0001:00159e40       ?tabify@@YAXPBDPAH@Z       0055ae40 f   rendertext.obj
 0001:00159f30       ?findfont@@YAPAUfont@@PBD@Z 0055af30 f   rendertext.obj
 0001:00159f40       ?fontalias@@YAXPBD0@Z      0055af40 f   rendertext.obj
 0001:0015a1b0       ?fontskip@@YAXPAH@Z        0055b1b0 f   rendertext.obj
 0001:0015a250       ?fontchar@@YAXPAM000000@Z  0055b250 f   rendertext.obj
 0001:0015a320       ?fonttex@@YAXPAD@Z         0055b320 f   rendertext.obj
 0001:0015a390       ?fontscale@@YAXPAH@Z       0055b390 f   rendertext.obj
 0001:0015a3b0       ?fontoffset@@YAXPAD@Z      0055b3b0 f   rendertext.obj
 0001:0015a3d0       ?fontoutline@@YAXPAM0@Z    0055b3d0 f   rendertext.obj
 0001:0015a400       ?fontborder@@YAXPAM0@Z     0055b400 f   rendertext.obj
 0001:0015a430       ?newfont@@YAXPAD0PAH11@Z   0055b430 f   rendertext.obj
 0001:0015a5a0       ?text_widthf@@YAMPBD@Z     0055b5a0 f   rendertext.obj
 0001:0015a5c0       ?draw_textf@@YAXPBDMMZZ    0055b5c0 f   rendertext.obj
 0001:0015a640       ?gettextres@@YAXAAH0@Z     0055b640 f   rendertext.obj
 0001:0015a690       ?pushfont@@YAXXZ           0055b690 f   rendertext.obj
 0001:0015a780       ?setfont@@YA_NPBD@Z        0055b780 f   rendertext.obj
 0001:0015a7a0       ?draw_text@@YAXPBDMMHHHHHH@Z 0055b7a0 f   rendertext.obj
 0001:0015ae00       ?popfont@@YA_NXZ           0055be00 f   rendertext.obj
 0001:0015c230       ?var_smmesh@@YAXPAUident@@@Z 0055d230 f   renderva.obj
 0001:0015e1c0       ?cleanupdecals@@YAXAAUdecalrenderer@@@Z 0055f1c0 f   renderva.obj
 0001:0015e250       ?setupdecals@@YAXAAUdecalrenderer@@@Z 0055f250 f   renderva.obj
 0001:0015f310       ?var_explicitskycolour@@YAXPAUident@@@Z 00560310 f   renderva.obj
 0001:0015f340       ?cleanupgeom@@YAXAAUrenderstate@@@Z 00560340 f   renderva.obj
 0001:0015f3a0       ?setupgeom@@YAXAAUrenderstate@@@Z 005603a0 f   renderva.obj
 0001:0015f4e0       ?cleanupva@@YAXXZ          005604e0 f   renderva.obj
 0001:0015f570       ?renderva@@YAXAAUrenderstate@@PAUvtxarray@@H_N@Z 00560570 f   renderva.obj
 0001:0015f860       ?renderzpass@@YAXAAUrenderstate@@PAUvtxarray@@@Z 00560860 f   renderva.obj
 0001:00161680       ?findspotshadowvas@@YAXAAU?$vector@PAUvtxarray@@@@_N@Z 00562680 f   renderva.obj
 0001:00161a80       ?findrsmshadowvas@@YAXAAU?$vector@PAUvtxarray@@@@@Z 00562a80 f   renderva.obj
 0001:00161c10       ?findcsmshadowvas@@YAXAAU?$vector@PAUvtxarray@@@@_N@Z 00562c10 f   renderva.obj
 0001:00161ea0       ?findshadowvas@@YAXAAU?$vector@PAUvtxarray@@@@_N@Z 00562ea0 f   renderva.obj
 0001:00162260       ?sortshadowvas@@YAXXZ      00563260 f   renderva.obj
 0001:00162300       ?calctrisidemask@@YAHABUvec@@00M@Z 00563300 f   renderva.obj
 0001:00162780       ?calcbbsidemask@@YAHABUivec@@0ABUvec@@MM@Z 00563780 f   renderva.obj
 0001:00162b10       ?var_blendbrushcolour@@YAXPAUident@@@Z 00563b10 f   renderva.obj
 0001:00162b40       ?var_outlinecolour@@YAXPAUident@@@Z 00563b40 f   renderva.obj
 0001:00162da0       ?findvisiblemms@@YAXABU?$vector@PAUextentity@@@@_N@Z 00563da0 f   renderva.obj
 0001:00163370       ?var_oqany@@YAXPAUident@@@Z 00564370 f   renderva.obj
 0001:00163380       ?clearqueries@@YAXXZ       00564380 f   renderva.obj
 0001:001633e0       ?setvfcP@@YAXABUvec@@0@Z   005643e0 f   renderva.obj
 0001:00163830       ?calcvfcD@@YAXXZ           00564830 f   renderva.obj
 0001:001638e0       ?findvisiblevas@@YAXXZ     005648e0 f   renderva.obj
 0001:00163940       ?sortvisiblevas@@YAXXZ     00564940 f   renderva.obj
 0001:00163b80       ?isvisiblecube@@YAHABUivec@@H@Z 00564b80 f   renderva.obj
 0001:00163db0       ?isvisiblebb@@YAHABUivec@@0@Z 00564db0 f   renderva.obj
 0001:00163f00       ?bboccluded@@YA_NABUivec@@0@Z 00564f00 f   renderva.obj
 0001:00164120       ?calcspheresidemask@@YAHABUvec@@MM@Z 00565120 f   renderva.obj
 0001:001642b0       ?checkquery@@YA_NPAUoccludequery@@_N@Z 005652b0 f   renderva.obj
 0001:00164330       ?clearshadowmeshes@@YAXXZ  00565330 f   renderva.obj
 0001:00164410       ?newquery@@YAPAUoccludequery@@PAX@Z 00565410 f   renderva.obj
 0001:00164490       ?startbb@@YAX_N@Z          00565490 f   renderva.obj
 0001:001645d0       ?startquery@@YAXPAUoccludequery@@@Z 005655d0 f   renderva.obj
 0001:00164620       ?drawbb@@YAXABUivec@@0@Z   00565620 f   renderva.obj
 0001:001649d0       ?endquery@@YAXPAUoccludequery@@@Z 005659d0 f   renderva.obj
 0001:00164a20       ?endbb@@YAX_N@Z            00565a20 f   renderva.obj
 0001:00164a70       ?findshadowvas@@YAX_N@Z    00565a70 f   renderva.obj
 0001:00164b30       ?findshadowmms@@YAXXZ      00565b30 f   renderva.obj
 0001:00164ed0       ?batchshadowmapmodels@@YAX_N@Z 00565ed0 f   renderva.obj
 0001:00164fe0       ?dynamicshadowvabounds@@YAHHAAUvec@@0@Z 00565fe0 f   renderva.obj
 0001:001650b0       ?renderrsmgeom@@YAX_N@Z    005660b0 f   renderva.obj
 0001:001654a0       ?renderalphashadow@@YAX_N@Z 005664a0 f   renderva.obj
 0001:00165630       ?rendershadowmapworld@@YAXXZ 00566630 f   renderva.obj
 0001:00165910       ?cullfrustumsides@@YAHABUvec@@MMM@Z 00566910 f   renderva.obj
 0001:00165ff0       ?findshadowmesh@@YAPAUshadowmesh@@HAAUextentity@@@Z 00566ff0 f   renderva.obj
 0001:001660c0       ?dynamicshadowvas@@YAHXZ   005670c0 f   renderva.obj
 0001:001660f0       ?rendershadowmesh@@YAXPAUshadowmesh@@@Z 005670f0 f   renderva.obj
 0001:001662b0       ?findalphavas@@YAHXZ       005672b0 f   renderva.obj
 0001:00166800       ?renderrefractmask@@YAXXZ  00567800 f   renderva.obj
 0001:00166930       ?renderalphageom@@YAXH@Z   00567930 f   renderva.obj
 0001:00166a70       ?rendergeom@@YAXXZ         00567a70 f   renderva.obj
 0001:00167320       ?renderdecals@@YAXXZ       00568320 f   renderva.obj
 0001:00167820       ?rendermapmodels@@YAXXZ    00568820 f   renderva.obj
 0001:00167d20       ?flipqueries@@YAXXZ        00568d20 f   renderva.obj
 0001:00167dc0       ?visiblecubes@@YAX_N@Z     00568dc0 f   renderva.obj
 0001:00167f10       ?renderexplicitsky@@YA_N_N@Z 00568f10 f   renderva.obj
 0001:00168310       ?renderoutline@@YAXXZ      00569310 f   renderva.obj
 0001:00168670       ?isfoggedsphere@@YA_NMABUvec@@@Z 00569670 f   renderva.obj
 0001:00168710       ?resetqueries@@YAXXZ       00569710 f   renderva.obj
 0001:00168740       ?genshadowmeshes@@YAXXZ    00569740 f   renderva.obj
 0001:001687a0       ?isvisiblesphere@@YAHMABUvec@@@Z 005697a0 f   renderva.obj
 0001:00168820       ?getnumqueries@@YAHXZ      00569820 f   renderva.obj
 0001:00168840       ?renderblendbrush@@YAXIMMMM@Z 00569840 f   renderva.obj
 0001:00168d50       ?resetshaders@@YAXXZ       00569d50 f   shader.obj
 0001:00168db0       ?reloadshaders@@YAXXZ      00569db0 f   shader.obj
 0001:00168ef0       ?cleanupshaders@@YAXXZ     00569ef0 f   shader.obj
 0001:00168f80       ?run@?$_icmd_setpostfx@$0FOO@@@SAXPADPAM111@Z 00569f80 f   shader.obj
 0001:00169000       ?run@?$_icmd_addpostfx@$0FOI@@@SAXPADPAH10PAM222@Z 0056a000 f   shader.obj
 0001:001690f0       ?clearpostfx@@YAXXZ        0056a0f0 f   shader.obj
 0001:00169490       ?run@?$_icmd_reuseuniformparam@$0FDD@@@SAXPADPAM111@Z 0056a490 f   shader.obj
 0001:001694d0       ?run@?$_icmd_defuniformparam@$0FDC@@@SAXPADPAM111@Z 0056a4d0 f   shader.obj
 0001:00169510       ?run@?$_icmd_setshaderparam@$0FDB@@@SAXPADPAM111@Z 0056a510 f   shader.obj
 0001:00169550       ?run@?$_icmd_setuniformparam@$0FDA@@@SAXPADPAM111@Z 0056a550 f   shader.obj
 0001:00169590       ?addslotparam@@YAXPBDMMMMH@Z 0056a590 f   shader.obj
 0001:00169690       ?run@?$_icmd_isshaderdefined@$0FBB@@@SAXPAD@Z 0056a690 f   shader.obj
 0001:001696d0       ?run@?$_icmd_dumpshader@$0FAP@@@SAXPBDPAH1@Z 0056a6d0 f   shader.obj
 0001:00169760       ?linkvslotshader@@YAXAAUVSlot@@_N@Z 0056a760 f   shader.obj
 0001:00169880       ?linkslotshader@@YAXAAUSlot@@_N@Z 0056a880 f   shader.obj
 0001:001699a0       ?setslotshader@@YAXAAUSlot@@@Z 0056a9a0 f   shader.obj
 0001:00169a30       ?resetslotshader@@YAXXZ    0056aa30 f   shader.obj
 0001:00169a50       ?setshader@@YAXPAD@Z       0056aa50 f   shader.obj
 0001:00169b00       ?variantshader@@YAXPAHPAD0110@Z 0056ab00 f   shader.obj
 0001:00169e20       ?shader@@YAXPAHPAD11@Z     0056ae20 f   shader.obj
 0001:0016a120       ?run@?$_icmd_forceshader@$0EGJ@@@SAXPBD@Z 0056b120 f   shader.obj
 0001:0016a160       ?force@Shader@@QAEXXZ      0056b160 f   shader.obj
 0001:0016a230       ?defershader@@YAXPAHPBD1@Z 0056b230 f   shader.obj
 0001:0016ae10       ?newshader@@YAPAUShader@@HPBD00PAU1@H@Z 0056be10 f   shader.obj
 0001:0016bde0       ?cleanup@Shader@@QAEX_N@Z  0056cde0 f   shader.obj
 0001:0016bf40       ?compile@Shader@@QAE_NXZ   0056cf40 f   shader.obj
 0001:0016ca00       ?findfragdatalocs@@YAXAAUShader@@PAD@Z 0056da00 f   shader.obj
 0001:0016dc00       ?loadshaders@@YAXXZ        0056ec00 f   shader.obj
 0001:0016dd80       ?setslotparams@Shader@@QAEXAAUSlot@@AAUVSlot@@@Z 0056ed80 f   shader.obj
 0001:0016e870       ?setslotparams@Shader@@QAEXAAUSlot@@@Z 0056f870 f   shader.obj
 0001:0016ecd0       ?uniformlocversion@Shader@@SAHXZ 0056fcd0 f   shader.obj
 0001:0016ed50       ?setupblurkernel@@YAXHPAM0@Z 0056fd50 f   shader.obj
 0001:0016f2a0       ?setblurshader@@YAXHHHPAM0I@Z 005702a0 f   shader.obj
 0001:0016f520       ?cleanuppostfx@@YAX_N@Z    00570520 f   shader.obj
 0001:0016f5b0       ?setupshaders@@YAXXZ       005705b0 f   shader.obj
 0001:0016f740       ?setuppostfx@@YAIHHI@Z     00570740 f   shader.obj
 0001:0016f850       ?renderpostfx@@YAXI@Z      00570850 f   shader.obj
 0001:0016fd10       ?getlocalparam@@YAHPBD@Z   00570d10 f   shader.obj
 0001:0016fdb0       ?generateshader@@YAPAUShader@@PBD0ZZ 00570db0 f   shader.obj
 0001:0016fe80       ?shouldreuseparams@@YA_NAAUSlot@@AAUVSlot@@@Z 00570e80 f   shader.obj
 0001:0016ff30       ?allocparams@Shader@@QAEXPAUSlot@@@Z 00570f30 f   shader.obj
 0001:0016ff40       ?bindprograms@Shader@@QAEXXZ 00570f40 f   shader.obj
 0001:0016ff70       ?isnull@Shader@@SA_NPBU1@@Z 00570f70 f   shader.obj
 0001:0016ff80       ?useshaderbyname@@YAPAUShader@@PBD@Z 00570f80 f   shader.obj
 0001:0016ffc0       ?lookupshaderbyname@@YAPAUShader@@PBD@Z 00570fc0 f   shader.obj
 0001:0016ffe0       ?getshaderparamname@@YAPBDPBD_N@Z 00570fe0 f   shader.obj
 0001:00170090       ?resetversions@GlobalShaderParamState@@QAEXXZ 00571090 f   shader.obj
 0001:001701b0       ?getglobalparam@@YAPAUGlobalShaderParamState@@PBD@Z 005711b0 f   shader.obj
 0001:00172e30       ?removealphachannel@@YAXPAD0@Z 00573e30 f   texture.obj
 0001:00172fe0       ?normalizenormalmap@@YAXPAD0@Z 00573fe0 f   texture.obj
 0001:00173230       ?mergenormalmaps@@YAXPAD0@Z 00574230 f   texture.obj
 0001:001735b0       ?flipnormalmapy@@YAXPAD0@Z 005745b0 f   texture.obj
 0001:00173770       ?screenshot@@YAXPAD@Z      00574770 f   texture.obj
 0001:00173c70       ?saveimage@@YAXPBDHAAUImageData@@_N@Z 00574c70 f   texture.obj
 0001:00173fe0       ?guessimageformat@@YAHPBDH@Z 00574fe0 f   texture.obj
 0001:00174050       ?savetga@@YAXPBDAAUImageData@@_N@Z 00575050 f   texture.obj
 0001:00174330       ?writepngchunk@@YAXPAUstream@@PBDPAEI@Z 00575330 f   texture.obj
 0001:001743b0       ?gendds@@YAXPAD0@Z         005753b0 f   texture.obj
 0001:00174990       ?loaddds@@YA_NPBDAAUImageData@@H@Z 00575990 f   texture.obj
 0001:00176340       ?reloadtextures@@YAXXZ     00577340 f   texture.obj
 0001:001763b0       ?reloadtex@@YAXPAD@Z       005773b0 f   texture.obj
 0001:001764e0       ?reloadtexture@@YA_NPBD@Z  005774e0 f   texture.obj
 0001:00176550       ?cleanuptextures@@YAXXZ    00577550 f   texture.obj
 0001:00176760       ?cleanuptexture@@YAXPAUTexture@@@Z 00577760 f   texture.obj
 0001:00176840       ?lookupenvmap@@YAIAAUSlot@@@Z 00577840 f   texture.obj
 0001:001768b0       ?genenvmap@@YAIABUvec@@HH_N@Z 005778b0 f   texture.obj
 0001:00176fd0       ?clearenvmaps@@YAXXZ       00577fd0 f   texture.obj
 0001:00177030       ?cubemaploadwildcard@@YAPAUTexture@@PAU1@PBD_N22@Z 00578030 f   texture.obj
 0001:00177980       ?var_envmapsize@@YAXPAUident@@@Z 00578980 f   texture.obj
 0001:00177990       ?loadthumbnail@Slot@@QAEPAUTexture@@XZ 00578990 f   texture.obj
 0001:001787c0       ?load@Slot@@QAEXXZ         005797c0 f   texture.obj
 0001:001788f0       ?load@Slot@@QAEXHAAUTex@1@@Z 005798f0 f   texture.obj
 0001:00179400       ?shouldpremul@DecalSlot@@UBE_NH@Z 0057a400 f   texture.obj
 0001:00179410       ?cancombine@DecalSlot@@UBEHH@Z 0057a410 f   texture.obj
 0001:00179450       ?cancombine@Slot@@UBEHH@Z  0057a450 f   texture.obj
 0001:00179490       ?findtextype@Slot@@QBEHHH@Z 0057a490 f   texture.obj
 0001:0017ab20       ?decaldepth@@YAXPAM0@Z     0057bb20 f   texture.obj
 0001:0017ab80       ?texsmooth@@YAXPAH0@Z      0057bb80 f   texture.obj
 0001:0017abb0       ?texrefract@@YAXPAM000@Z   0057bbb0 f   texture.obj
 0001:0017ac80       ?texcolor@@YAXPAM00@Z      0057bc80 f   texture.obj
 0001:0017ad00       ?texalpha@@YAXPAM0@Z       0057bd00 f   texture.obj
 0001:0017ad60       ?texdetail@@YAXPAH@Z       0057bd60 f   texture.obj
 0001:0017ada0       ?texlayer@@YAXPAH@Z        0057bda0 f   texture.obj
 0001:0017ade0       ?texscale@@YAXPAM@Z        0057bde0 f   texture.obj
 0001:0017ae20       ?texrotate_@@YAXPAH@Z      0057be20 f   texture.obj
 0001:0017ae60       ?texoffset_@@YAXPAH0@Z     0057be60 f   texture.obj
 0001:0017aeb0       ?texscroll@@YAXPAM0@Z      0057beb0 f   texture.obj
 0001:0017af20       ?texgrass@@YAXPAD@Z        0057bf20 f   texture.obj
 0001:0017af70       ?texture@@YAXPAD0PAH11PAM@Z 0057bf70 f   texture.obj
 0001:0017b540       ?findslottex@@YAHPBD@Z     0057c540 f   texture.obj
 0001:0017b5a0       ?run@?$_icmd_fixinsidefaces@$0JBH@@@SAXPAH@Z 0057c5a0 f   texture.obj
 0001:0017b7e0       ?packvslot@@YAXAAU?$vector@E@@PBUVSlot@@@Z 0057c7e0 f   texture.obj
 0001:0017b830       ?packvslot@@YAXAAU?$vector@E@@H@Z 0057c830 f   texture.obj
 0001:0017ba60       ?emptyvslot@Slot@@UAEAAUVSlot@@XZ 0057ca60 f   texture.obj
 0001:0017c290       ?run@?$_icmd_compactvslots@$0HKG@@@SAXPAH@Z 0057d290 f   texture.obj
 0001:0017c370       ?decalreset@@YAXPAH@Z      0057d370 f   texture.obj
 0001:0017c3c0       ?materialreset@@YAXXZ      0057d3c0 f   texture.obj
 0001:0017c480       ?texturereset@@YAXPAH@Z    0057d480 f   texture.obj
 0001:0017c5c0       ?name@DecalSlot@@UBEPBDXZ  0057d5c0 f   texture.obj
 0001:0017c5e0       ?name@MatSlot@@UBEPBDXZ    0057d5e0 f   texture.obj
 0001:0017c630       ??0MatSlot@@QAE@XZ         0057d630 f   texture.obj
 0001:0017c700       ?name@Slot@@UBEPBDXZ       0057d700 f   texture.obj
 0001:0017c720       ?settexture@@YA_NPBDH@Z    0057d720 f   texture.obj
 0001:0017dd10       ?loadsurface@@YAPAUSDL_Surface@@PBD@Z 0057ed10 f   texture.obj
 0001:0017dee0       ?canloadsurface@@YA_NPBD@Z 0057eee0 f   texture.obj
 0001:0017df20       ?texblur@@YAXAAUImageData@@HH@Z 0057ef20 f   texture.obj
 0001:0017e110       ?blurtexture@@YAXHHHHPAEPBEH@Z 0057f110 f   texture.obj
 0001:0017e1d0       ?texnormal@@YAXAAUImageData@@H@Z 0057f1d0 f   texture.obj
 0001:0017e450       ?texflip@@YAXAAUImageData@@@Z 0057f450 f   texture.obj
 0001:0017e570       ?fixsurfaceformat@@YAPAUSDL_Surface@@PAU1@@Z 0057f570 f   texture.obj
 0001:0017e690       ?checkgrayscale@@YA_NPAUSDL_Surface@@@Z 0057f690 f   texture.obj
 0001:0017e6f0       ?creatergbasurface@@YAPAUSDL_Surface@@PAU1@@Z 0057f6f0 f   texture.obj
 0001:0017e750       ?creatergbsurface@@YAPAUSDL_Surface@@PAU1@@Z 0057f750 f   texture.obj
 0001:0017e7a0       ?wrapsurface@@YAPAUSDL_Surface@@PAXHHH@Z 0057f7a0 f   texture.obj
 0001:0017edb0       ?texalign@@YAHPBXHH@Z      0057fdb0 f   texture.obj
 0001:0017eea0       ?createcompressedtexture@@YAXHHHPBEHHHHHII_N@Z 0057fea0 f   texture.obj
 0001:0017f430       ?setuptexparameters@@YAXHPBXHHII_N@Z 00580430 f   texture.obj
 0001:0017f5e0       ?swizzlemask@@YAPBHI@Z     005805e0 f   texture.obj
 0001:0017f600       ?textarget@@YAII@Z         00580600 f   texture.obj
 0001:0017f630       ?uploadcompressedtexture@@YAXIIIHHPBEHHH_N1@Z 00580630 f   texture.obj
 0001:0017f740       ?uploadtexture@@YAXHIIHHIIPBXHHH_N1@Z 00580740 f   texture.obj
 0001:0017fc60       ?var_gpumipmap@@YAXPAUident@@@Z 00580c60 f   texture.obj
 0001:0017fc90       ?cleanupmipmaps@@YAXXZ     00580c90 f   texture.obj
 0001:0017fcc0       ?resizetexture@@YAXHH_N0IHAAH1@Z 00580cc0 f   texture.obj
 0001:0017fe20       ?var_usenp2@@YAXPAUident@@@Z 00580e20 f   texture.obj
 0001:0017fe40       ?sizedformat@@YAII@Z       00580e40 f   texture.obj
 0001:0017fe80       ?formatsize@@YAHI@Z        00580e80 f   texture.obj
 0001:0017fee0       ?uncompressedformat@@YAII@Z 00580ee0 f   texture.obj
 0001:0017ff90       ?compressedformat@@YAIIHHH@Z 00580f90 f   texture.obj
 0001:00180100       ?var_aniso@@YAXPAUident@@@Z 00581100 f   texture.obj
 0001:00180120       ?var_bilinear@@YAXPAUident@@@Z 00581120 f   texture.obj
 0001:00180140       ?var_trilinear@@YAXPAUident@@@Z 00581140 f   texture.obj
 0001:00180160       ?var_texcompressquality@@YAXPAUident@@@Z 00581160 f   texture.obj
 0001:001801b0       ?var_texcompress@@YAXPAUident@@@Z 005811b0 f   texture.obj
 0001:001801d0       ?var_texreduce@@YAXPAUident@@@Z 005811d0 f   texture.obj
 0001:001801f0       ?var_reducefilter@@YAXPAUident@@@Z 005811f0 f   texture.obj
 0001:00180210       ?var_maxtexsize@@YAXPAUident@@@Z 00581210 f   texture.obj
 0001:00180230       ?texblend@@YAXAAUImageData@@00@Z 00581230 f   texture.obj
 0001:00180730       ?texagrad@@YAXAAUImageData@@MMMM@Z 00581730 f   texture.obj
 0001:001808d0       ?texpremul@@YAXAAUImageData@@@Z 005818d0 f   texture.obj
 0001:001809d0       ?texgrey@@YAXAAUImageData@@@Z 005819d0 f   texture.obj
 0001:00180b70       ?texmix@@YAXAAUImageData@@HHHH@Z 00581b70 f   texture.obj
 0001:00180d20       ?texdup@@YAXAAUImageData@@HH@Z 00581d20 f   texture.obj
 0001:00180d90       ?texcolormask@@YAXAAUImageData@@ABUvec@@1@Z 00581d90 f   texture.obj
 0001:00180fa0       ?texcolorify@@YAXAAUImageData@@ABUvec@@U2@@Z 00581fa0 f   texture.obj
 0001:001810c0       ?texmad@@YAXAAUImageData@@ABUvec@@1@Z 005820c0 f   texture.obj
 0001:001811e0       ?texcrop@@YAXAAUImageData@@HHHH@Z 005821e0 f   texture.obj
 0001:00181360       ?texoffset@@YAXAAUImageData@@HH@Z 00582360 f   texture.obj
 0001:001814d0       ?texrotate@@YAXAAUImageData@@HH@Z 005824d0 f   texture.obj
 0001:00181500       ?texreorient@@YAXAAUImageData@@_N11H@Z 00582500 f   texture.obj
 0001:001819a0       ?scaleimage@@YAXAAUImageData@@HH@Z 005829a0 f   texture.obj
 0001:00181aa0       ?swizzleimage@@YAXAAUImageData@@@Z 00582aa0 f   texture.obj
 0001:00181d10       ?forcergbimage@@YAXAAUImageData@@@Z 00582d10 f   texture.obj
 0001:00183530       ?linkslotshaders@@YAXXZ    00584530 f   texture.obj
 0001:00183670       ?reloadtexture@@YA_NAAUTexture@@@Z 00584670 f   texture.obj
 0001:00183ba0       ?cubemapload@@YAPAUTexture@@PBD_N11@Z 00584ba0 f   texture.obj
 0001:00183cb0       ?floatformat@@YA_NI@Z      00584cb0 f   texture.obj
 0001:00183d10       ?create3dtexture@@YAXHHHHPBXHHII_N@Z 00584d10 f   texture.obj
 0001:00183d70       ?setuptexcompress@@YAXXZ   00584d70 f   texture.obj
 0001:00183dc0       ?lookupmaterialslot@@YAAAUMatSlot@@H_N@Z 00584dc0 f   texture.obj
 0001:00183e10       ?lookupenvmap@@YAIG@Z      00584e10 f   texture.obj
 0001:00183e80       ?loadalphamask@@YAPAEPAUTexture@@@Z 00584e80 f   texture.obj
 0001:00184000       ?compactvslots@@YAH_N@Z    00585000 f   texture.obj
 0001:001845f0       ?textureload@@YAPAUTexture@@PBDH_N1@Z 005855f0 f   texture.obj
 0001:00184b00       ?clearslots@@YAXXZ         00585b00 f   texture.obj
 0001:00184c90       ?lookupdecalslot@@YAAAUDecalSlot@@H_N@Z 00585c90 f   texture.obj
 0001:00184ce0       ?closestenvmap@@YAGABUvec@@@Z 00585ce0 f   texture.obj
 0001:00184ea0       ?closestenvmap@@YAGHABUivec@@H@Z 00585ea0 f   texture.obj
 0001:00184f30       ?initenvmaps@@YAXXZ        00585f30 f   texture.obj
 0001:00185180       ?genenvmaps@@YAXXZ         00586180 f   texture.obj
 0001:00185300       ?packvslot@@YAXAAU?$vector@E@@ABUVSlot@@@Z 00586300 f   texture.obj
 0001:00185850       ?lookupslot@@YAAAUSlot@@H_N@Z 00586850 f   texture.obj
 0001:00185880       ?unpackvslot@@YA_NAAU?$databuf@E@@AAUVSlot@@_N@Z 00586880 f   texture.obj
 0001:00185e80       ?editvslot@@YAPAUVSlot@@ABU1@0@Z 00586e80 f   texture.obj
 0001:00185fa0       ?compactvslot@@YAXAAH@Z    00586fa0 f   texture.obj
 0001:00185ff0       ?compactvslot@@YAXAAUVSlot@@@Z 00586ff0 f   texture.obj
 0001:00186010       ?compactvslots@@YAXPAUcube@@H@Z 00587010 f   texture.obj
 0001:00186100       ?mergevslot@@YAXAAUVSlot@@ABU1@1@Z 00587100 f   texture.obj
 0001:00186210       ?findvslot@@YAPAUVSlot@@AAUSlot@@ABU1@1@Z 00587210 f   texture.obj
 0001:00186460       ?lookupvslot@@YAAAUVSlot@@H_N@Z 00587460 f   texture.obj
 0001:001864c0       ?createtexture@@YAXHHHPBXHHIIHHH_NI1@Z 005874c0 f   texture.obj
 0001:001866c0       ?savepng@@YAXPBDAAUImageData@@_N@Z 005876c0 f   texture.obj
 0001:00186ab0       ?loadimage@@YA_NPBDAAUImageData@@@Z 00587ab0 f   texture.obj
 0001:001871d0       ?update@UI@@YAXXZ          005881d0 f   ui.obj
 0001:00187550       ?calctextscale@UI@@YAXXZ   00588550 f   ui.obj
 0001:00187620       ?cleanup@UI@@YAXXZ         00588620 f   ui.obj
 0001:001876f0       ?setup@UI@@YAXXZ           005886f0 f   ui.obj
 0001:00187760       ?textinput@UI@@YA_NPBDH@Z  00588760 f   ui.obj
 0001:00187780       ?keypress@UI@@YA_NH_N@Z    00588780 f   ui.obj
 0001:00187880       ?movecursor@UI@@YA_NHH@Z   00588880 f   ui.obj
 0001:00187910       ?run@?$_icmd_uivslotview@$0NII@@UI@@SAXPAHPAM1PAI@Z 00588910 f   ui.obj
 0001:00187b10       ?run@?$_icmd_uislotview@$0NIF@@UI@@SAXPAHPAM1PAI@Z 00588b10 f   ui.obj
 0001:00187d20       ?run@?$_icmd_uiprefabpreview@$0NIC@@UI@@SAXPADPAHPAM2PAI@Z 00588d20 f   ui.obj
 0001:00188000       ?run@?$_icmd_uiplayerpreview@$0NHP@@UI@@SAXPAH000PAM1PAI@Z 00589000 f   ui.obj
 0001:00188210       ?run@?$_icmd_uimodelpreview@$0NHM@@UI@@SAXPAD0PAM1PAI@Z 00589210 f   ui.obj
 0001:00188540       ?run@?$_icmd_uitiledimage@$0NHJ@@UI@@SAXPADPAM111PAI@Z 00589540 f   ui.obj
 0001:00188790       ?run@?$_icmd_uiborderedimage@$0NHD@@UI@@SAXPADPAUtagval@@PAMPAI@Z 00589790 f   ui.obj
 0001:00188a50       ?run@?$_icmd_uicroppedimage@$0NGL@@UI@@SAXPADPAM1PAUtagval@@222PAI@Z 00589a50 f   ui.obj
 0001:00188fb0       ?run@?$_icmd_uistretchedimage@$0NFC@@UI@@SAXPADPAM1PAI@Z 00589fb0 f   ui.obj
 0001:001891c0       ?run@?$_icmd_uiimage@$0NEP@@UI@@SAXPADPAM1PAI@Z 0058a1c0 f   ui.obj
 0001:001893d0       ?run@?$_icmd_uikeyfield@$0NEM@@UI@@SAXPAUident@@PAHPAIPAM2@Z 0058a3d0 f   ui.obj
 0001:001895f0       ?run@?$_icmd_uifield@$0NEJ@@UI@@SAXPAUident@@PAHPAIPAM2@Z 0058a5f0 f   ui.obj
 0001:00189840       ?run@?$_icmd_uiconsole@$0NEG@@UI@@SAXPAM0PAI@Z 0058a840 f   ui.obj
 0001:00189a50       ?run@?$_icmd_uiabovehud@$0NED@@UI@@SAXXZ 0058aa50 f   ui.obj
 0001:00189a60       ?run@?$_icmd_uifont@$0NEB@@UI@@SAXPADPAI@Z 0058aa60 f   ui.obj
 0001:00189c30       ?run@?$_icmd_uitexteditor@$0NDO@@UI@@SAXPADPAH1PAM01PAI@Z 0058ac30 f   ui.obj
 0001:0018a020       ?run@?$_icmd_uiwrapcontext@$0NDL@@UI@@SAXPAUtagval@@PAM1PAI@Z 0058b020 f   ui.obj
 0001:0018a070       ?run@?$_icmd_uiwrapcolorcontext@$0NDI@@UI@@SAXPAUtagval@@PAMPAH1PAI@Z 0058b070 f   ui.obj
 0001:0018a0e0       ?run@?$_icmd_uicontextfill@$0NDF@@UI@@SAXPAM0PAI@Z 0058b0e0 f   ui.obj
 0001:0018a310       ?run@?$_icmd_uicontext@$0NDC@@UI@@SAXPAUtagval@@PAMPAI@Z 0058b310 f   ui.obj
 0001:0018a360       ?run@?$_icmd_uicolorcontext@$0NCP@@UI@@SAXPAUtagval@@PAHPAMPAI@Z 0058b360 f   ui.obj
 0001:0018a3d0       ?run@?$_icmd_uiwraptext@$0NCM@@UI@@SAXPAUtagval@@PAM1PAI@Z 0058b3d0 f   ui.obj
 0001:0018a410       ?run@?$_icmd_uiwrapcolortext@$0NCJ@@UI@@SAXPAUtagval@@PAMPAH1PAI@Z 0058b410 f   ui.obj
 0001:0018a470       ?run@?$_icmd_uitextfill@$0NCG@@UI@@SAXPAM0PAI@Z 0058b470 f   ui.obj
 0001:0018a690       ?run@?$_icmd_uitext@$0NCD@@UI@@SAXPAUtagval@@PAMPAI@Z 0058b690 f   ui.obj
 0001:0018a6d0       ?run@?$_icmd_uicolortext@$0NCA@@UI@@SAXPAUtagval@@PAHPAMPAI@Z 0058b6d0 f   ui.obj
 0001:0018ae00       ?run@?$_icmd_uimodcircle@$0NAC@@UI@@SAXPAHPAMPAI@Z 0058be00 f   ui.obj
 0001:0018b040       ?run@?$_icmd_uicircleoutline@$0MPP@@UI@@SAXPAHPAMPAI@Z 0058c040 f   ui.obj
 0001:0018b280       ?run@?$_icmd_uicircle@$0MPM@@UI@@SAXPAHPAMPAI@Z 0058c280 f   ui.obj
 0001:0018b4c0       ?run@?$_icmd_uimodtriangle@$0MPJ@@UI@@SAXPAHPAM10PAI@Z 0058c4c0 f   ui.obj
 0001:0018b980       ?run@?$_icmd_uitriangleoutline@$0MPG@@UI@@SAXPAHPAM10PAI@Z 0058c980 f   ui.obj
 0001:0018be40       ?run@?$_icmd_uitriangle@$0MPD@@UI@@SAXPAHPAM10PAI@Z 0058ce40 f   ui.obj
 0001:0018c300       ?run@?$_icmd_uiline@$0MPA@@UI@@SAXPAHPAM1PAI@Z 0058d300 f   ui.obj
 0001:0018c530       ?run@?$_icmd_uioutline@$0MON@@UI@@SAXPAHPAM1PAI@Z 0058d530 f   ui.obj
 0001:0018c760       ?run@?$_icmd_uimodhgradient@$0MOK@@UI@@SAXPAH0PAM1PAI@Z 0058d760 f   ui.obj
 0001:0018c9c0       ?run@?$_icmd_uihgradient@$0MOH@@UI@@SAXPAH0PAM1PAI@Z 0058d9c0 f   ui.obj
 0001:0018cc20       ?run@?$_icmd_uimodvgradient@$0MOE@@UI@@SAXPAH0PAM1PAI@Z 0058dc20 f   ui.obj
 0001:0018ce80       ?run@?$_icmd_uivgradient@$0MOB@@UI@@SAXPAH0PAM1PAI@Z 0058de80 f   ui.obj
 0001:0018d0e0       ?run@?$_icmd_uimodcolor@$0MNO@@UI@@SAXPAHPAM1PAI@Z 0058e0e0 f   ui.obj
 0001:0018d320       ?run@?$_icmd_uicolor@$0MNL@@UI@@SAXPAHPAM1PAI@Z 0058e320 f   ui.obj
 0001:0018d560       ?run@?$_icmd_uisliderbutton@$0MNI@@UI@@SAXPAI@Z 0058e560 f   ui.obj
 0001:0018d750       ?run@?$_icmd_uisliderarrow@$0MNF@@UI@@SAXPAMPAI@Z 0058e750 f   ui.obj
 0001:0018d960       ?run@?$_icmd_uivslider@$0MNC@@UI@@SAXPAUident@@PAM11PAI2@Z 0058e960 f   ui.obj
 0001:0018dbc0       ?run@?$_icmd_uihslider@$0MMP@@UI@@SAXPAUident@@PAM11PAI2@Z 0058ebc0 f   ui.obj
 0001:0018de20       ?run@?$_icmd_uiscrollbutton@$0MMM@@UI@@SAXPAI@Z 0058ee20 f   ui.obj
 0001:0018e010       ?run@?$_icmd_uiscrollarrow@$0MMJ@@UI@@SAXPAMPAI@Z 0058f010 f   ui.obj
 0001:0018e210       ?run@?$_icmd_uivscrollbar@$0MMG@@UI@@SAXPAI@Z 0058f210 f   ui.obj
 0001:0018e420       ?run@?$_icmd_uihscrollbar@$0MMD@@UI@@SAXPAI@Z 0058f420 f   ui.obj
 0001:0018e630       ?run@?$_icmd_uivscrolloffset@$0MMA@@UI@@SAXXZ 0058f630 f   ui.obj
 0001:0018e670       ?run@?$_icmd_uihscrolloffset@$0MLH@@UI@@SAXXZ 0058f670 f   ui.obj
 0001:0018e6b0       ?run@?$_icmd_uiscroll@$0MKO@@UI@@SAXPAM0PAI@Z 0058f6b0 f   ui.obj
 0001:0018e8d0       ?run@?$_icmd_uiclip@$0MKL@@UI@@SAXPAM0PAI@Z 0058f8d0 f   ui.obj
 0001:0018eae0       ?run@?$_icmd_uitarget@$0MKI@@UI@@SAXPAM0PAI@Z 0058fae0 f   ui.obj
 0001:0018ecf0       ?run@?$_icmd_uifill@$0MKF@@UI@@SAXPAM0PAI@Z 0058fcf0 f   ui.obj
 0001:0018ef00       ?run@?$_icmd_uioffset@$0MKC@@UI@@SAXPAM0PAI@Z 0058ff00 f   ui.obj
 0001:0018f110       ?run@?$_icmd_uispace@$0MJP@@UI@@SAXPAM0PAI@Z 00590110 f   ui.obj
 0001:0018f320       ?run@?$_icmd_uitable@$0MJM@@UI@@SAXPAM0PAI@Z 00590320 f   ui.obj
 0001:0018f540       ?run@?$_icmd_uitablerow@$0MJK@@UI@@SAXPAI0@Z 00590540 f   ui.obj
 0001:0018f760       ?run@?$_icmd_uitableheader@$0MJI@@UI@@SAXPAI0@Z 00590760 f   ui.obj
 0001:0018f970       ?run@?$_icmd_uigrid@$0MJF@@UI@@SAXPAHPAM1PAI@Z 00590970 f   ui.obj
 0001:0018fbc0       ?run@?$_icmd_uilist@$0MJC@@UI@@SAXPAMPAI@Z 00590bc0 f   ui.obj
 0001:0018ffc0       ?run@?$_icmd_uivlist@$0MIF@@UI@@SAXPAMPAI@Z 00590fc0 f   ui.obj
 0001:001901c0       ?run@?$_icmd_uihlist@$0MIC@@UI@@SAXPAMPAI@Z 005911c0 f   ui.obj
 0001:001903c0       ?run@?$_icmd_uigroup@$0MHP@@UI@@SAXPAI@Z 005913c0 f   ui.obj
 0001:001905b0       ?run@?$uiclamp__@$0MHM@@UI@@SAXPAH000@Z 005915b0 f   ui.obj
 0001:00190640       ?run@?$uiclamp_@$0MHI@@UI@@SAXPAH000@Z 00591640 f   ui.obj
 0001:001906b0       ?run@?$_icmd_uiclamp@$0MHE@@UI@@SAXPAH000@Z 005916b0 f   ui.obj
 0001:00190710       ?run@?$uialign__@$0MGP@@UI@@SAXPAH0@Z 00591710 f   ui.obj
 0001:00190790       ?run@?$uialign_@$0MGL@@UI@@SAXPAH0@Z 00591790 f   ui.obj
 0001:00190800       ?run@?$_icmd_uialign@$0MGH@@UI@@SAXPAH0@Z 00591800 f   ui.obj
 0001:00190860       ?run@?$uinextfocus__@$0MGC@@UI@@SAXPAUtagval@@0@Z 00591860 f   ui.obj
 0001:001908e0       ?run@?$uinextfocus_@$0MGA@@UI@@SAXPAI0@Z 005918e0 f   ui.obj
 0001:00190920       ?run@?$uifocus__@$0MFO@@UI@@SAXPAUtagval@@0@Z 00591920 f   ui.obj
 0001:00190990       ?run@?$uifocus_@$0MFM@@UI@@SAXPAI0@Z 00591990 f   ui.obj
 0001:001909c0       ?run@?$uinextscrolldown__@$0MFI@@UI@@SAXPAUtagval@@0@Z 005919c0 f   ui.obj
 0001:00190a50       ?run@?$uinextnotscrolldown__@$0MFI@@UI@@SAXPAUtagval@@0@Z 00591a50 f   ui.obj
 0001:00190ae0       ?run@?$uinextscrolldown_@$0MFI@@UI@@SAXPAI0@Z 00591ae0 f   ui.obj
 0001:00190b30       ?run@?$uinextnotscrolldown_@$0MFI@@UI@@SAXPAI0@Z 00591b30 f   ui.obj
 0001:00190b80       ?run@?$uiscrolldown__@$0MFI@@UI@@SAXPAUtagval@@0@Z 00591b80 f   ui.obj
 0001:00190bf0       ?run@?$uinotscrolldown__@$0MFI@@UI@@SAXPAUtagval@@0@Z 00591bf0 f   ui.obj
 0001:00190c60       ?run@?$uiscrolldown_@$0MFI@@UI@@SAXPAI0@Z 00591c60 f   ui.obj
 0001:00190ca0       ?run@?$uinotscrolldown_@$0MFI@@UI@@SAXPAI0@Z 00591ca0 f   ui.obj
 0001:00190cd0       ?run@?$uinextscrollup__@$0MFI@@UI@@SAXPAUtagval@@0@Z 00591cd0 f   ui.obj
 0001:00190d60       ?run@?$uinextnotscrollup__@$0MFI@@UI@@SAXPAUtagval@@0@Z 00591d60 f   ui.obj
 0001:00190df0       ?run@?$uinextscrollup_@$0MFI@@UI@@SAXPAI0@Z 00591df0 f   ui.obj
 0001:00190e40       ?run@?$uinextnotscrollup_@$0MFI@@UI@@SAXPAI0@Z 00591e40 f   ui.obj
 0001:00190e90       ?run@?$uiscrollup__@$0MFI@@UI@@SAXPAUtagval@@0@Z 00591e90 f   ui.obj
 0001:00190f00       ?run@?$uinotscrollup__@$0MFI@@UI@@SAXPAUtagval@@0@Z 00591f00 f   ui.obj
 0001:00190f70       ?run@?$uiscrollup_@$0MFI@@UI@@SAXPAI0@Z 00591f70 f   ui.obj
 0001:00190fb0       ?run@?$uinotscrollup_@$0MFI@@UI@@SAXPAI0@Z 00591fb0 f   ui.obj
 0001:00190fe0       ?run@?$uinextescrelease__@$0MFI@@UI@@SAXPAUtagval@@0@Z 00591fe0 f   ui.obj
 0001:00191070       ?run@?$uinextnotescrelease__@$0MFI@@UI@@SAXPAUtagval@@0@Z 00592070 f   ui.obj
 0001:00191100       ?run@?$uinextescrelease_@$0MFI@@UI@@SAXPAI0@Z 00592100 f   ui.obj
 0001:00191150       ?run@?$uinextnotescrelease_@$0MFI@@UI@@SAXPAI0@Z 00592150 f   ui.obj
 0001:001911a0       ?run@?$uiescrelease__@$0MFI@@UI@@SAXPAUtagval@@0@Z 005921a0 f   ui.obj
 0001:00191210       ?run@?$uinotescrelease__@$0MFI@@UI@@SAXPAUtagval@@0@Z 00592210 f   ui.obj
 0001:00191280       ?run@?$uiescrelease_@$0MFI@@UI@@SAXPAI0@Z 00592280 f   ui.obj
 0001:001912c0       ?run@?$uinotescrelease_@$0MFI@@UI@@SAXPAI0@Z 005922c0 f   ui.obj
 0001:001912f0       ?run@?$uinextescpress__@$0MFI@@UI@@SAXPAUtagval@@0@Z 005922f0 f   ui.obj
 0001:00191380       ?run@?$uinextnotescpress__@$0MFI@@UI@@SAXPAUtagval@@0@Z 00592380 f   ui.obj
 0001:00191400       ?run@?$uinextescpress_@$0MFI@@UI@@SAXPAI0@Z 00592400 f   ui.obj
 0001:00191450       ?run@?$uinextnotescpress_@$0MFI@@UI@@SAXPAI0@Z 00592450 f   ui.obj
 0001:001914a0       ?run@?$uiescpress__@$0MFI@@UI@@SAXPAUtagval@@0@Z 005924a0 f   ui.obj
 0001:00191510       ?run@?$uinotescpress__@$0MFI@@UI@@SAXPAUtagval@@0@Z 00592510 f   ui.obj
 0001:00191580       ?run@?$uiescpress_@$0MFI@@UI@@SAXPAI0@Z 00592580 f   ui.obj
 0001:001915b0       ?run@?$uinotescpress_@$0MFI@@UI@@SAXPAI0@Z 005925b0 f   ui.obj
 0001:001915e0       ?run@?$uinexteschold__@$0MFI@@UI@@SAXPAUtagval@@0@Z 005925e0 f   ui.obj
 0001:00191660       ?run@?$uinextnoteschold__@$0MFI@@UI@@SAXPAUtagval@@0@Z 00592660 f   ui.obj
 0001:001916f0       ?run@?$uinexteschold_@$0MFI@@UI@@SAXPAI0@Z 005926f0 f   ui.obj
 0001:00191730       ?run@?$uinextnoteschold_@$0MFI@@UI@@SAXPAI0@Z 00592730 f   ui.obj
 0001:00191780       ?run@?$uieschold__@$0MFI@@UI@@SAXPAUtagval@@0@Z 00592780 f   ui.obj
 0001:001917f0       ?run@?$uinoteschold__@$0MFI@@UI@@SAXPAUtagval@@0@Z 005927f0 f   ui.obj
 0001:00191860       ?run@?$uieschold_@$0MFI@@UI@@SAXPAI0@Z 00592860 f   ui.obj
 0001:00191890       ?run@?$uinoteschold_@$0MFI@@UI@@SAXPAI0@Z 00592890 f   ui.obj
 0001:001918c0       ?run@?$uinextaltrelease__@$0MFI@@UI@@SAXPAUtagval@@0@Z 005928c0 f   ui.obj
 0001:00191950       ?run@?$uinextnotaltrelease__@$0MFI@@UI@@SAXPAUtagval@@0@Z 00592950 f   ui.obj
 0001:001919d0       ?run@?$uinextaltrelease_@$0MFI@@UI@@SAXPAI0@Z 005929d0 f   ui.obj
 0001:00191a20       ?run@?$uinextnotaltrelease_@$0MFI@@UI@@SAXPAI0@Z 00592a20 f   ui.obj
 0001:00191a70       ?run@?$uialtrelease__@$0MFI@@UI@@SAXPAUtagval@@0@Z 00592a70 f   ui.obj
 0001:00191ae0       ?run@?$uinotaltrelease__@$0MFI@@UI@@SAXPAUtagval@@0@Z 00592ae0 f   ui.obj
 0001:00191b50       ?run@?$uialtrelease_@$0MFI@@UI@@SAXPAI0@Z 00592b50 f   ui.obj
 0001:00191b80       ?run@?$uinotaltrelease_@$0MFI@@UI@@SAXPAI0@Z 00592b80 f   ui.obj
 0001:00191bb0       ?run@?$uinextaltpress__@$0MFI@@UI@@SAXPAUtagval@@0@Z 00592bb0 f   ui.obj
 0001:00191c40       ?run@?$uinextnotaltpress__@$0MFI@@UI@@SAXPAUtagval@@0@Z 00592c40 f   ui.obj
 0001:00191cc0       ?run@?$uinextaltpress_@$0MFI@@UI@@SAXPAI0@Z 00592cc0 f   ui.obj
 0001:00191d10       ?run@?$uinextnotaltpress_@$0MFI@@UI@@SAXPAI0@Z 00592d10 f   ui.obj
 0001:00191d60       ?run@?$uialtpress__@$0MFI@@UI@@SAXPAUtagval@@0@Z 00592d60 f   ui.obj
 0001:00191dd0       ?run@?$uinotaltpress__@$0MFI@@UI@@SAXPAUtagval@@0@Z 00592dd0 f   ui.obj
 0001:00191e40       ?run@?$uialtpress_@$0MFI@@UI@@SAXPAI0@Z 00592e40 f   ui.obj
 0001:00191e70       ?run@?$uinotaltpress_@$0MFI@@UI@@SAXPAI0@Z 00592e70 f   ui.obj
 0001:00191ea0       ?run@?$uinextalthold__@$0MFI@@UI@@SAXPAUtagval@@0@Z 00592ea0 f   ui.obj
 0001:00191f30       ?run@?$uinextnotalthold__@$0MFI@@UI@@SAXPAUtagval@@0@Z 00592f30 f   ui.obj
 0001:00191fb0       ?run@?$uinextalthold_@$0MFI@@UI@@SAXPAI0@Z 00592fb0 f   ui.obj
 0001:00192000       ?run@?$uinextnotalthold_@$0MFI@@UI@@SAXPAI0@Z 00593000 f   ui.obj
 0001:00192050       ?run@?$uialthold__@$0MFI@@UI@@SAXPAUtagval@@0@Z 00593050 f   ui.obj
 0001:001920c0       ?run@?$uinotalthold__@$0MFI@@UI@@SAXPAUtagval@@0@Z 005930c0 f   ui.obj
 0001:00192130       ?run@?$uialthold_@$0MFI@@UI@@SAXPAI0@Z 00593130 f   ui.obj
 0001:00192160       ?run@?$uinotalthold_@$0MFI@@UI@@SAXPAI0@Z 00593160 f   ui.obj
 0001:00192190       ?run@?$uinextrelease__@$0MFI@@UI@@SAXPAUtagval@@0@Z 00593190 f   ui.obj
 0001:00192220       ?run@?$uinextnotrelease__@$0MFI@@UI@@SAXPAUtagval@@0@Z 00593220 f   ui.obj
 0001:001922a0       ?run@?$uinextrelease_@$0MFI@@UI@@SAXPAI0@Z 005932a0 f   ui.obj
 0001:001922f0       ?run@?$uinextnotrelease_@$0MFI@@UI@@SAXPAI0@Z 005932f0 f   ui.obj
 0001:00192340       ?run@?$uirelease__@$0MFI@@UI@@SAXPAUtagval@@0@Z 00593340 f   ui.obj
 0001:001923b0       ?run@?$uinotrelease__@$0MFI@@UI@@SAXPAUtagval@@0@Z 005933b0 f   ui.obj
 0001:00192420       ?run@?$uirelease_@$0MFI@@UI@@SAXPAI0@Z 00593420 f   ui.obj
 0001:00192450       ?run@?$uinotrelease_@$0MFI@@UI@@SAXPAI0@Z 00593450 f   ui.obj
 0001:00192480       ?run@?$uinexthold__@$0MFI@@UI@@SAXPAUtagval@@0@Z 00593480 f   ui.obj
 0001:00192510       ?run@?$uinextnothold__@$0MFI@@UI@@SAXPAUtagval@@0@Z 00593510 f   ui.obj
 0001:00192590       ?run@?$uinexthold_@$0MFI@@UI@@SAXPAI0@Z 00593590 f   ui.obj
 0001:001925e0       ?run@?$uinextnothold_@$0MFI@@UI@@SAXPAI0@Z 005935e0 f   ui.obj
 0001:00192630       ?run@?$uihold__@$0MFI@@UI@@SAXPAUtagval@@0@Z 00593630 f   ui.obj
 0001:001926a0       ?run@?$uinothold__@$0MFI@@UI@@SAXPAUtagval@@0@Z 005936a0 f   ui.obj
 0001:00192710       ?run@?$uihold_@$0MFI@@UI@@SAXPAI0@Z 00593710 f   ui.obj
 0001:00192740       ?run@?$uinothold_@$0MFI@@UI@@SAXPAI0@Z 00593740 f   ui.obj
 0001:00192770       ?run@?$uinextpress__@$0MFI@@UI@@SAXPAUtagval@@0@Z 00593770 f   ui.obj
 0001:001927f0       ?run@?$uinextnotpress__@$0MFI@@UI@@SAXPAUtagval@@0@Z 005937f0 f   ui.obj
 0001:00192870       ?run@?$uinextpress_@$0MFI@@UI@@SAXPAI0@Z 00593870 f   ui.obj
 0001:001928c0       ?run@?$uinextnotpress_@$0MFI@@UI@@SAXPAI0@Z 005938c0 f   ui.obj
 0001:00192910       ?run@?$uipress__@$0MFI@@UI@@SAXPAUtagval@@0@Z 00593910 f   ui.obj
 0001:00192980       ?run@?$uinotpress__@$0MFI@@UI@@SAXPAUtagval@@0@Z 00593980 f   ui.obj
 0001:001929f0       ?run@?$uipress_@$0MFI@@UI@@SAXPAI0@Z 005939f0 f   ui.obj
 0001:00192a20       ?run@?$uinotpress_@$0MFI@@UI@@SAXPAI0@Z 00593a20 f   ui.obj
 0001:00192a50       ?run@?$uinexthover__@$0MFI@@UI@@SAXPAUtagval@@0@Z 00593a50 f   ui.obj
 0001:00192ad0       ?run@?$uinextnothover__@$0MFI@@UI@@SAXPAUtagval@@0@Z 00593ad0 f   ui.obj
 0001:00192b50       ?run@?$uinexthover_@$0MFI@@UI@@SAXPAI0@Z 00593b50 f   ui.obj
 0001:00192b90       ?run@?$uinextnothover_@$0MFI@@UI@@SAXPAI0@Z 00593b90 f   ui.obj
 0001:00192be0       ?run@?$uihover__@$0MFI@@UI@@SAXPAUtagval@@0@Z 00593be0 f   ui.obj
 0001:00192c50       ?run@?$uinothover__@$0MFI@@UI@@SAXPAUtagval@@0@Z 00593c50 f   ui.obj
 0001:00192cc0       ?run@?$uihover_@$0MFI@@UI@@SAXPAI0@Z 00593cc0 f   ui.obj
 0001:00192cf0       ?run@?$uinothover_@$0MFI@@UI@@SAXPAI0@Z 00593cf0 f   ui.obj
 0001:00192d20       ?run@?$_icmd_uiname@$0MEE@@UI@@SAXXZ 00593d20 f   ui.obj
 0001:00192d40       ?run@?$_icmd_uivisible@$0MED@@UI@@SAXPAD@Z 00593d40 f   ui.obj
 0001:00192dd0       ?run@?$_icmd_holdui@$0MEC@@UI@@SAXPADPAH@Z 00593dd0 f   ui.obj
 0001:00192e20       ?run@?$_icmd_toggleui@$0MEB@@UI@@SAXPAD@Z 00593e20 f   ui.obj
 0001:00192e90       ?run@?$_icmd_hideallui@$0MEA@@UI@@SAXXZ 00593e90 f   ui.obj
 0001:00192eb0       ?run@?$_icmd_hidetopui@$0MDP@@UI@@SAXXZ 00593eb0 f   ui.obj
 0001:00192f20       ?run@?$_icmd_hideui@$0MDO@@UI@@SAXPAD@Z 00593f20 f   ui.obj
 0001:00192fa0       ?run@?$_icmd_showui@$0MDN@@UI@@SAXPAD@Z 00593fa0 f   ui.obj
 0001:00192fc0       ?holdui@UI@@YAXPBD_N@Z     00593fc0 f   ui.obj
 0001:00193010       ?toggleui@UI@@YA_NPBD@Z    00594010 f   ui.obj
 0001:00193070       ?hideui@UI@@YA_NPBD@Z      00594070 f   ui.obj
 0001:001930c0       ?showui@UI@@YA_NPBD@Z      005940c0 f   ui.obj
 0001:00193180       ?run@?$_icmd_uieschide@$0MBK@@UI@@SAXPAH@Z 00594180 f   ui.obj
 0001:001931c0       ?run@?$_icmd_uiallowinput@$0MBJ@@UI@@SAXPAH@Z 005941c0 f   ui.obj
 0001:00193200       ?run@?$_icmd_newui@$0MBH@@UI@@SAXPAD000@Z 00594200 f   ui.obj
 0001:00193660       ?wheelscroll@Slider@UI@@QAEXM@Z 00594660 f   ui.obj
 0001:00193980       ?wheelscroll@ScrollBar@UI@@QAEXM@Z 00594980 f   ui.obj
 0001:001939f0       ?scrolldown@Scroller@UI@@UAEXMM@Z 005949f0 f   ui.obj
 0001:00193a80       ?scrollup@Scroller@UI@@UAEXMM@Z 00594a80 f   ui.obj
 0001:00193b10       ?run@?$_icmd_uicontextscale@$0HPG@@UI@@SAXXZ 00594b10 f   ui.obj
 0001:00193c00       ?build@Window@UI@@QAEXXZ   00594c00 f   ui.obj
 0001:00193c80       ?escrelease@Window@UI@@UAEXMM@Z 00594c80 f   ui.obj
 0001:00193cc0       ?scissor@ClipArea@UI@@QAEXXZ 00594cc0 f   ui.obj
 0001:00193d40       ?modblend@UI@@YAXXZ        00594d40 f   ui.obj
 0001:00193d70       ?resetblend@UI@@YAXXZ      00594d70 f   ui.obj
 0001:001944b0       ?run@?$_icmd_textexec@$0DBF@@@SAXPAH@Z 005954b0 f   ui.obj
 0001:00194580       ?run@?$_icmd_textcurrentline@$0DAP@@@SAXXZ 00595580 f   ui.obj
 0001:001945a0       ?run@?$_icmd_textclear@$0DAO@@@SAXXZ 005955a0 f   ui.obj
 0001:001945c0       ?run@?$_icmd_textselectall@$0DAN@@@SAXXZ 005955c0 f   ui.obj
 0001:001945f0       ?run@?$_icmd_textmark@$0DAM@@@SAXPAH@Z 005955f0 f   ui.obj
 0001:00194670       ?run@?$_icmd_textpaste@$0DAI@@@SAXXZ 00595670 f   ui.obj
 0001:001946a0       ?run@?$_icmd_textcopy@$0DAH@@@SAXXZ 005956a0 f   ui.obj
 0001:001946d0       ?run@?$_icmd_textinit@$0DAD@@@SAXPAD00@Z 005956d0 f   ui.obj
 0001:001947b0       ?run@?$_icmd_textload@$0CPI@@@SAXPAD@Z 005957b0 f   ui.obj
 0001:00194800       ?run@?$_icmd_textsave@$0CPA@@@SAXPAD@Z 00595800 f   ui.obj
 0001:00194890       ?run@?$_icmd_textmode@$0COM@@@SAXPAH@Z 00595890 f   ui.obj
 0001:001948d0       ?run@?$_icmd_textprev@$0COI@@@SAXXZ 005958d0 f   ui.obj
 0001:00194930       ?run@?$_icmd_textfocus@$0COH@@@SAXPADPAH@Z 00595930 f   ui.obj
 0001:00194990       ?run@?$_icmd_textshow@$0COC@@@SAXXZ 00595990 f   ui.obj
 0001:001949f0       ?run@?$_icmd_textlist@$0CNM@@@SAXXZ 005959f0 f   ui.obj
 0001:00194f20       ?getcursorpos@UI@@YAXAAM0@Z 00595f20 f   ui.obj
 0001:00194f60       ?abovehud@UI@@YAMXZ        00595f60 f   ui.obj
 0001:00194fc0       ?uivisible@UI@@YA_NPBD@Z   00595fc0 f   ui.obj
 0001:00195030       ?render@UI@@YAXXZ          00596030 f   ui.obj
 0001:00195090       ?hascursor@UI@@YA_NXZ      00596090 f   ui.obj
 0001:00195580       ?var_waterfallenv@@YAXPAUident@@@Z 00596580 f   water.obj
 0001:00195590       ?var_waterenvmap@@YAXPAUident@@@Z 00596590 f   water.obj
 0001:001955a0       ?var_waterreflect@@YAXPAUident@@@Z 005965a0 f   water.obj
 0001:001955b0       ?getlavaspec@@YAHH@Z       005965b0 f   water.obj
 0001:001955f0       ?getlavaglowmax@@YAMH@Z    005965f0 f   water.obj
 0001:00195630       ?getlavaglowmin@@YAMH@Z    00596630 f   water.obj
 0001:00195670       ?var_lava4colour@@YAXPAUident@@@Z 00596670 f   water.obj
 0001:001956b0       ?var_lava3colour@@YAXPAUident@@@Z 005966b0 f   water.obj
 0001:001956f0       ?var_lava2colour@@YAXPAUident@@@Z 005966f0 f   water.obj
 0001:00195730       ?var_lavacolour@@YAXPAUident@@@Z 00596730 f   water.obj
 0001:00195770       ?getwaterfallrefract@@YAMH@Z 00596770 f   water.obj
 0001:001957b0       ?getwaterfallspec@@YAHH@Z  005967b0 f   water.obj
 0001:001957f0       ?getwaterrefract@@YAMH@Z   005967f0 f   water.obj
 0001:00195830       ?getwaterspec@@YAHH@Z      00596830 f   water.obj
 0001:00195870       ?getwaterfallrefractcolour@@YAABUbvec@@H@Z 00596870 f   water.obj
 0001:001958b0       ?getwaterrefractcolour@@YAABUbvec@@H@Z 005968b0 f   water.obj
 0001:001958f0       ?getwaterdeepfade@@YAABUbvec@@H@Z 005968f0 f   water.obj
 0001:00195930       ?var_water4fallrefractcolour@@YAXPAUident@@@Z 00596930 f   water.obj
 0001:00195960       ?var_water4fallcolour@@YAXPAUident@@@Z 00596960 f   water.obj
 0001:00195990       ?var_water4refractcolour@@YAXPAUident@@@Z 00596990 f   water.obj
 0001:001959d0       ?var_water4deepfade@@YAXPAUident@@@Z 005969d0 f   water.obj
 0001:00195a10       ?var_water4deepcolour@@YAXPAUident@@@Z 00596a10 f   water.obj
 0001:00195a50       ?var_water4colour@@YAXPAUident@@@Z 00596a50 f   water.obj
 0001:00195a90       ?var_water3fallrefractcolour@@YAXPAUident@@@Z 00596a90 f   water.obj
 0001:00195ac0       ?var_water3fallcolour@@YAXPAUident@@@Z 00596ac0 f   water.obj
 0001:00195af0       ?var_water3refractcolour@@YAXPAUident@@@Z 00596af0 f   water.obj
 0001:00195b30       ?var_water3deepfade@@YAXPAUident@@@Z 00596b30 f   water.obj
 0001:00195b70       ?var_water3deepcolour@@YAXPAUident@@@Z 00596b70 f   water.obj
 0001:00195bb0       ?var_water3colour@@YAXPAUident@@@Z 00596bb0 f   water.obj
 0001:00195bf0       ?var_water2fallrefractcolour@@YAXPAUident@@@Z 00596bf0 f   water.obj
 0001:00195c20       ?var_water2fallcolour@@YAXPAUident@@@Z 00596c20 f   water.obj
 0001:00195c50       ?var_water2refractcolour@@YAXPAUident@@@Z 00596c50 f   water.obj
 0001:00195c90       ?var_water2deepfade@@YAXPAUident@@@Z 00596c90 f   water.obj
 0001:00195cd0       ?var_water2deepcolour@@YAXPAUident@@@Z 00596cd0 f   water.obj
 0001:00195d10       ?var_water2colour@@YAXPAUident@@@Z 00596d10 f   water.obj
 0001:00195d50       ?var_waterfallrefractcolour@@YAXPAUident@@@Z 00596d50 f   water.obj
 0001:00195d80       ?var_waterfallcolour@@YAXPAUident@@@Z 00596d80 f   water.obj
 0001:00195db0       ?var_waterrefractcolour@@YAXPAUident@@@Z 00596db0 f   water.obj
 0001:00195df0       ?var_waterdeepfade@@YAXPAUident@@@Z 00596df0 f   water.obj
 0001:00195e30       ?var_waterdeepcolour@@YAXPAUident@@@Z 00596e30 f   water.obj
 0001:00195e70       ?var_watercolour@@YAXPAUident@@@Z 00596e70 f   water.obj
 0001:00196080       ?var_vertwater@@YAXPAUident@@@Z 00597080 f   water.obj
 0001:00196090       ?renderflatwater@@YAXHHHHHH@Z 00597090 f   water.obj
 0001:00196200       ?renderwaterlod@@YAHHHHHH@Z 00597200 f   water.obj
 0001:001963b0       ?calcwatersubdiv@@YAHHHHH@Z 005973b0 f   water.obj
 0001:001964c0       ?rendervertwater@@YAXHHHHHH@Z 005974c0 f   water.obj
 0001:00196580       ?flushwater@@YAXH_N@Z      00597580 f   water.obj
 0001:001968a0       ?flushwaterstrips@@YAXXZ   005978a0 f   water.obj
 0001:00197000       ?rendercaustics@@YAXMMM@Z  00598000 f   water.obj
 0001:00197180       ?setupcaustics@@YAXHM@Z    00598180 f   water.obj
 0001:001975f0       ?var_caustics@@YAXPAUident@@@Z 005985f0 f   water.obj
 0001:00197600       ?var_causticmillis@@YAXPAUident@@@Z 00598600 f   water.obj
 0001:00197610       ?var_causticscale@@YAXPAUident@@@Z 00598610 f   water.obj
 0001:00197620       ?getwaterfallcolour@@YAABUbvec@@H@Z 00598620 f   water.obj
 0001:00197660       ?getwatercolour@@YAABUbvec@@H@Z 00598660 f   water.obj
 0001:001976a0       ?getwaterdeepcolour@@YAABUbvec@@H@Z 005986a0 f   water.obj
 0001:001976e0       ?getwaterfog@@YAHH@Z       005986e0 f   water.obj
 0001:00197720       ?getwaterdeep@@YAHH@Z      00598720 f   water.obj
 0001:00197760       ?getlavacolour@@YAABUbvec@@H@Z 00598760 f   water.obj
 0001:001977a0       ?getlavafog@@YAHH@Z        005987a0 f   water.obj
 0001:001977e0       ?renderwaterfog@@YAXHM@Z   005987e0 f   water.obj
 0001:00198280       ?loadcaustics@@YAX_N@Z     00599280 f   water.obj
 0001:00198330       ?preloadwatershaders@@YAX_N@Z 00599330 f   water.obj
 0001:001984e0       ?renderlava@@YAXXZ         005994e0 f   water.obj
 0001:00199860       ?renderwater@@YAXXZ        0059a860 f   water.obj
 0001:0019abf0       ?renderwaterfalls@@YAXXZ   0059bbf0 f   water.obj
 0001:0019ce40       ?clearsleep_@@YAXPAH@Z     0059de40 f   command.obj
 0001:0019ce60       ?checksleep@@YAXH@Z        0059de60 f   command.obj
 0001:0019cf50       ?addsleep@@YAXPAHPAD@Z     0059df50 f   command.obj
 0001:0019d080       ?run@?$_stdcmd@$0BBBN@@@SAXPAH@Z 0059e080 f   command.obj
 0001:0019d0b0       ?strsplice@@YAXPBD0PAH1@Z  0059e0b0 f   command.obj
 0001:0019d1a0       ?run@?$_stdcmd@$0BBAM@@@SAXPAD000@Z 0059e1a0 f   command.obj
 0001:0019d1e0       ?strreplace@@YAPADPBD000@Z 0059e1e0 f   command.obj
 0001:0019d590       ?run@?$_stdcmd@$0BAPC@@@SAXPAD@Z 0059e590 f   command.obj
 0001:0019d610       ?run@?$_stdcmd@$0BAPB@@@SAXPAD@Z 0059e610 f   command.obj
 0001:0019d690       ?run@?$_stdcmd@$0BAOF@@@SAXPAD0@Z 0059e690 f   command.obj
 0001:0019d800       ?naturalsort@@YAHPBD0@Z    0059e800 f   command.obj
 0001:0019d960       ?run@?$_stdcmd@$0BAML@@@SAXPAH@Z 0059e960 f   command.obj
 0001:0019d9c0       ?run@?$_stdcmd@$0BAMK@@@SAXPADPAH@Z 0059e9c0 f   command.obj
 0001:0019da30       ?run@?$_stdcmd@$0BAMJ@@@SAXPAH@Z 0059ea30 f   command.obj
 0001:0019da60       ?run@?$_stdcmd@$0BAMI@@@SAXPADPAH@Z 0059ea60 f   command.obj
 0001:0019dac0       ?run@?$_stdcmd@$0BAMH@@@SAXPAD@Z 0059eac0 f   command.obj
 0001:0019dae0       ?run@?$_stdcmd@$0BAMG@@@SAXPAD0@Z 0059eae0 f   command.obj
 0001:0019db10       ?run@?$_stdcmd@$0BAMF@@@SAXPAD@Z 0059eb10 f   command.obj
 0001:0019db30       ?run@?$_stdcmd@$0BAME@@@SAXPAD@Z 0059eb30 f   command.obj
 0001:0019db50       ?run@?$_stdcmd@$0BAMC@@@SAXPAUtagval@@H@Z 0059eb50 f   command.obj
 0001:0019dc00       ?run@?$_stdcmd@$0BAMB@@@SAXPAUtagval@@H@Z 0059ec00 f   command.obj
 0001:0019dcb0       ?run@?$_stdcmd@$0BAMA@@@SAXPAUtagval@@H@Z 0059ecb0 f   command.obj
 0001:0019dd60       ?run@?$_stdcmd@$0BALP@@@SAXPAUtagval@@H@Z 0059ed60 f   command.obj
 0001:0019de10       ?run@?$_stdcmd@$0BALO@@@SAXPAUtagval@@H@Z 0059ee10 f   command.obj
 0001:0019dec0       ?run@?$_stdcmd@$0BALN@@@SAXPAUtagval@@H@Z 0059eec0 f   command.obj
 0001:0019df70       ?run@?$_stdcmd@$0BALM@@@SAXPAUtagval@@H@Z 0059ef70 f   command.obj
 0001:0019e020       ?run@?$_stdcmd@$0BAKN@@@SAXPAH0@Z 0059f020 f   command.obj
 0001:0019e070       ?run@?$_stdcmd@$0BAKF@@@SAXPAH@Z 0059f070 f   command.obj
 0001:0019e100       ?run@?$_stdcmd@$0BAJF@@@SAXPAH0@Z 0059f100 f   command.obj
 0001:0019e140       ?run@?$_stdcmd@$0BAJD@@@SAXPAUtagval@@H@Z 0059f140 f   command.obj
 0001:0019e250       ?run@?$_stdcmd@$0BAJC@@@SAXPAUtagval@@H@Z 0059f250 f   command.obj
 0001:0019e380       ?run@?$_stdcmd@$0BAJB@@@SAXPAUtagval@@H@Z 0059f380 f   command.obj
 0001:0019e470       ?run@?$_stdcmd@$0BAIA@@@SAXPAUtagval@@H@Z 0059f470 f   command.obj
 0001:0019e570       ?run@?$_stdcmd@$0BAGM@@@SAXPAM0@Z 0059f570 f   command.obj
 0001:0019e690       ?run@?$_stdcmd@$0BAGA@@@SAXPAM@Z 0059f690 f   command.obj
 0001:0019e6c0       ?run@?$_stdcmd@$0BAFP@@@SAXPAM@Z 0059f6c0 f   command.obj
 0001:0019e730       ?run@?$_stdcmd@$0BAFN@@@SAXPAM@Z 0059f730 f   command.obj
 0001:0019e750       ?run@?$_stdcmd@$0BAFM@@@SAXPAH@Z 0059f750 f   command.obj
 0001:0019e770       ?run@?$_stdcmd@$0BAFK@@@SAXPAH@Z 0059f770 f   command.obj
 0001:0019e790       ?run@?$_stdcmd@$0BAFI@@@SAXPAUtagval@@H@Z 0059f790 f   command.obj
 0001:0019e830       ?run@?$_stdcmd@$0BAFH@@@SAXPAUtagval@@H@Z 0059f830 f   command.obj
 0001:0019e8d0       ?run@?$_stdcmd@$0BAFG@@@SAXPAUtagval@@H@Z 0059f8d0 f   command.obj
 0001:0019e930       ?run@?$_stdcmd@$0BAFF@@@SAXPAUtagval@@H@Z 0059f930 f   command.obj
 0001:0019e990       ?run@?$_stdcmd@$0BAEL@@@SAXPAM@Z 0059f990 f   command.obj
 0001:0019e9b0       ?run@?$_stdcmd@$0BAEK@@@SAXPAM@Z 0059f9b0 f   command.obj
 0001:0019e9d0       ?run@?$_stdcmd@$0BAEJ@@@SAXPAM@Z 0059f9d0 f   command.obj
 0001:0019ea00       ?run@?$_stdcmd@$0BAEI@@@SAXPAM@Z 0059fa00 f   command.obj
 0001:0019ea20       ?run@?$_stdcmd@$0BAEH@@@SAXPAM@Z 0059fa20 f   command.obj
 0001:0019ea40       ?run@?$_stdcmd@$0BAEG@@@SAXPAM0@Z 0059fa40 f   command.obj
 0001:0019ea80       ?run@?$_stdcmd@$0BAEF@@@SAXPAM@Z 0059fa80 f   command.obj
 0001:0019eab0       ?run@?$_stdcmd@$0BAEE@@@SAXPAM@Z 0059fab0 f   command.obj
 0001:0019eae0       ?run@?$_stdcmd@$0BAED@@@SAXPAM@Z 0059fae0 f   command.obj
 0001:0019eb10       ?run@?$_stdcmd@$0BAEC@@@SAXPAM@Z 0059fb10 f   command.obj
 0001:0019eb40       ?run@?$_stdcmd@$0BAEB@@@SAXPAM@Z 0059fb40 f   command.obj
 0001:0019eb70       ?run@?$_stdcmd@$0BAEA@@@SAXPAM@Z 0059fb70 f   command.obj
 0001:0019eba0       ?run@?$_stdcmd@$0BADO@@@SAXPAUtagval@@H@Z 0059fba0 f   command.obj
 0001:0019ec30       ?run@?$_stdcmd@$0BADN@@@SAXPAUtagval@@H@Z 0059fc30 f   command.obj
 0001:0019ed00       ?run@?$_stdcmd@$0BADM@@@SAXPAUtagval@@H@Z 0059fd00 f   command.obj
 0001:0019ee40       ?run@?$_stdcmd@$0BADL@@@SAXPAUtagval@@H@Z 0059fe40 f   command.obj
 0001:0019eed0       ?run@?$_stdcmd@$0BADK@@@SAXPAUtagval@@H@Z 0059fed0 f   command.obj
 0001:0019ef60       ?run@?$_stdcmd@$0BADF@@@SAXPAUtagval@@H@Z 0059ff60 f   command.obj
 0001:0019f050       ?run@?$_stdcmd@$0BACK@@@SAXPAUtagval@@H@Z 005a0050 f   command.obj
 0001:0019f150       ?run@?$_stdcmd@$0BABP@@@SAXPAUtagval@@@Z 005a0150 f   command.obj
 0001:0019f170       ?run@?$_stdcmd@$0BABN@@@SAXPAUtagval@@H@Z 005a0170 f   command.obj
 0001:0019f240       ?run@?$_stdcmd@$0BABM@@@SAXPAUtagval@@H@Z 005a0240 f   command.obj
 0001:0019f310       ?run@?$_stdcmd@$0BABL@@@SAXPAUtagval@@H@Z 005a0310 f   command.obj
 0001:0019f3e0       ?run@?$_stdcmd@$0BABK@@@SAXPAUtagval@@H@Z 005a03e0 f   command.obj
 0001:0019f4b0       ?run@?$_stdcmd@$0BABJ@@@SAXPAUtagval@@H@Z 005a04b0 f   command.obj
 0001:0019f5b0       ?run@?$_stdcmd@$0BABI@@@SAXPAUtagval@@H@Z 005a05b0 f   command.obj
 0001:0019f6b0       ?run@?$_stdcmd@$0BABH@@@SAXPAUtagval@@H@Z 005a06b0 f   command.obj
 0001:0019f760       ?run@?$_stdcmd@$0BABG@@@SAXPAUtagval@@H@Z 005a0760 f   command.obj
 0001:0019f820       ?run@?$_stdcmd@$0BABF@@@SAXPAUtagval@@H@Z 005a0820 f   command.obj
 0001:0019f8d0       ?run@?$_stdcmd@$0BABD@@@SAXPAUtagval@@H@Z 005a08d0 f   command.obj
 0001:0019f960       ?run@?$_stdcmd@$0BABC@@@SAXPAUtagval@@H@Z 005a0960 f   command.obj
 0001:0019f9f0       ?run@?$_stdcmd@$0BABB@@@SAXPAUtagval@@H@Z 005a09f0 f   command.obj
 0001:0019fa60       ?run@?$_stdcmd@$0BABA@@@SAXPAUtagval@@H@Z 005a0a60 f   command.obj
 0001:0019fad0       ?run@?$_stdcmd@$0BAAP@@@SAXPAUtagval@@H@Z 005a0ad0 f   command.obj
 0001:0019fb40       ?run@?$_stdcmd@$0BAAO@@@SAXPAUtagval@@H@Z 005a0b40 f   command.obj
 0001:0019fbb0       ?run@?$_stdcmd@$0BAAN@@@SAXPAUtagval@@H@Z 005a0bb0 f   command.obj
 0001:0019fc20       ?run@?$_stdcmd@$0BAAM@@@SAXPAUtagval@@H@Z 005a0c20 f   command.obj
 0001:0019fc90       ?run@?$_stdcmd@$0BAAL@@@SAXPAUtagval@@H@Z 005a0c90 f   command.obj
 0001:0019fd00       ?run@?$_stdcmd@$0BAAK@@@SAXPAUtagval@@H@Z 005a0d00 f   command.obj
 0001:0019fd70       ?run@?$_stdcmd@$0BAAJ@@@SAXPAUtagval@@H@Z 005a0d70 f   command.obj
 0001:0019fde0       ?run@?$_stdcmd@$0BAAI@@@SAXPAUtagval@@H@Z 005a0de0 f   command.obj
 0001:0019fe50       ?run@?$_stdcmd@$0BAAH@@@SAXPAUtagval@@H@Z 005a0e50 f   command.obj
 0001:0019fec0       ?run@?$_stdcmd@$0BAAG@@@SAXPAUtagval@@H@Z 005a0ec0 f   command.obj
 0001:0019ff30       ?run@?$_stdcmd@$0BAAF@@@SAXPAUtagval@@H@Z 005a0f30 f   command.obj
 0001:0019ffa0       ?run@?$_stdcmd@$0BAAE@@@SAXPAUtagval@@H@Z 005a0fa0 f   command.obj
 0001:001a0030       ?run@?$_stdcmd@$0BAAD@@@SAXPAUtagval@@H@Z 005a1030 f   command.obj
 0001:001a00a0       ?run@?$_stdcmd@$0BAAC@@@SAXPAUtagval@@H@Z 005a10a0 f   command.obj
 0001:001a0140       ?run@?$_stdcmd@$0PNM@@@SAXPADPAUident@@1PAI@Z 005a1140 f   command.obj
 0001:001a0160       ?sortlist@@YAXPADPAUident@@1PAI2@Z 005a1160 f   command.obj
 0001:001a0550       ?findfile_@@YAXPAD@Z       005a1550 f   command.obj
 0001:001a0680       ?run@?$_stdcmd@$0PFN@@@SAXPAUident@@PAD1PAI@Z 005a1680 f   command.obj
 0001:001a0930       ?listsplice@@YAXPBD0PAH1@Z 005a1930 f   command.obj
 0001:001a0df0       ?run@?$_stdcmd@$0PDC@@@SAXPBD0@Z 005a1df0 f   command.obj
 0001:001a10d0       ?run@?$_stdcmd@$0PDB@@@SAXPBD0@Z 005a20d0 f   command.obj
 0001:001a1350       ?run@?$_stdcmd@$0PDA@@@SAXPBD0@Z 005a2350 f   command.obj
 0001:001a15d0       ?run@?$_stdcmd@$0PBM@@@SAXPAD0@Z 005a25d0 f   command.obj
 0001:001a1610       ?listincludes@@YAHPBD0H@Z  005a2610 f   command.obj
 0001:001a1880       ?prettylist@@YAXPBD0@Z     005a2880 f   command.obj
 0001:001a1da0       ?listcount@@YAXPAUident@@PBDPBI@Z 005a2da0 f   command.obj
 0001:001a1fb0       ?listfilter@@YAXPAUident@@PBDPBI@Z 005a2fb0 f   command.obj
 0001:001a2400       ?run@?$_stdcmd@$0ONA@@@SAXPAUident@@PADPAI@Z 005a3400 f   command.obj
 0001:001a2420       ?run@?$_stdcmd@$0OMP@@@SAXPAUident@@PADPAI@Z 005a3420 f   command.obj
 0001:001a2440       ?looplistconc@@YAXPAUident@@PBDPBI_N@Z 005a3440 f   command.obj
 0001:001a28f0       ?looplist3@@YAXPAUident@@00PBDPBI@Z 005a38f0 f   command.obj
 0001:001a2b50       ?looplist2@@YAXPAUident@@0PBDPBI@Z 005a3b50 f   command.obj
 0001:001a2f00       ?loopsublist@@YAXPAUident@@PBDPAH2PBI@Z 005a3f00 f   command.obj
 0001:001a3030       ?looplist@@YAXPAUident@@PBDPBI@Z 005a4030 f   command.obj
 0001:001a3220       ?run@?$_stdcmd@$0OHK@@@SAXPAD0@Z 005a4220 f   command.obj
 0001:001a3370       ?run@?$_stdcmd@$0OHJ@@@SAXPADPAM@Z 005a4370 f   command.obj
 0001:001a34e0       ?run@?$_stdcmd@$0OHI@@@SAXPADPAH@Z 005a44e0 f   command.obj
 0001:001a3600       ?run@?$_stdcmd@$0OGM@@@SAXPAD0PAH@Z 005a4600 f   command.obj
 0001:001a3920       ?run@?$_stdcmd@$0OGL@@@SAXPADPAMPAH@Z 005a4920 f   command.obj
 0001:001a3a50       ?run@?$_stdcmd@$0OGK@@@SAXPADPAH1@Z 005a4a50 f   command.obj
 0001:001a3ce0       ?listassoc@@YAXPAUident@@PBDPBI@Z 005a4ce0 f   command.obj
 0001:001a3f40       ?listfind@@YAXPAUident@@PBDPBI@Z 005a4f40 f   command.obj
 0001:001a4230       ?run@?$_stdcmd@$0OCI@@@SAXPAD@Z 005a5230 f   command.obj
 0001:001a42b0       ?sublist@@YAXPBDPAH11@Z    005a52b0 f   command.obj
 0001:001a4430       ?chopstr@@YAXPADPAH0@Z     005a5430 f   command.obj
 0001:001a4500       ?substr@@YAXPADPAH11@Z     005a5500 f   command.obj
 0001:001a45a0       ?at@@YAXPAUtagval@@H@Z     005a55a0 f   command.obj
 0001:001a4720       ?run@?$_stdcmd@$0NOG@@@SAXPAD@Z 005a5720 f   command.obj
 0001:001a4740       ?listlen@@YAHPBD@Z         005a5740 f   command.obj
 0001:001a4c80       ?format@@YAXPAUtagval@@H@Z 005a5c80 f   command.obj
 0001:001a5040       ?run@?$_stdcmd@$0NHP@@@SAXPAUtagval@@@Z 005a6040 f   command.obj
 0001:001a5060       ?run@?$_stdcmd@$0NGJ@@@SAXPAUident@@PAUtagval@@@Z 005a6060 f   command.obj
 0001:001a5080       ?run@?$_stdcmd@$0NGI@@@SAXPAUident@@PAUtagval@@@Z 005a6080 f   command.obj
 0001:001a50a0       ?append@@YAXPAUident@@PAUtagval@@_N@Z 005a60a0 f   command.obj
 0001:001a5140       ?concatword@@YAXPAUtagval@@H@Z 005a6140 f   command.obj
 0001:001a5170       ?concat@@YAXPAUtagval@@H@Z 005a6170 f   command.obj
 0001:001a51a0       ?run@?$_stdcmd@$0NFB@@@SAXPAUident@@PAH11PAI@Z 005a61a0 f   command.obj
 0001:001a51d0       ?run@?$_stdcmd@$0NFA@@@SAXPAUident@@PAH1PAI@Z 005a61d0 f   command.obj
 0001:001a5200       ?run@?$_stdcmd@$0NEP@@@SAXPAUident@@PAH1PAI@Z 005a6200 f   command.obj
 0001:001a5230       ?run@?$_stdcmd@$0NEO@@@SAXPAUident@@PAHPAI@Z 005a6230 f   command.obj
 0001:001a5250       ?run@?$_stdcmd@$0NEN@@@SAXPAUident@@PAH11PAI@Z 005a6250 f   command.obj
 0001:001a5280       ?run@?$_stdcmd@$0NEM@@@SAXPAUident@@PAH1PAI@Z 005a6280 f   command.obj
 0001:001a52b0       ?run@?$_stdcmd@$0NEL@@@SAXPAUident@@PAH1PAI@Z 005a62b0 f   command.obj
 0001:001a52e0       ?run@?$_stdcmd@$0NEK@@@SAXPAUident@@PAHPAI@Z 005a62e0 f   command.obj
 0001:001a5730       ?run@?$_stdcmd@$0NDE@@@SAXPAI0@Z 005a6730 f   command.obj
 0001:001a5770       ?run@?$_stdcmd@$0NDC@@@SAXPAUident@@PAH11PAI2@Z 005a6770 f   command.obj
 0001:001a57a0       ?run@?$_stdcmd@$0NDB@@@SAXPAUident@@PAH1PAI2@Z 005a67a0 f   command.obj
 0001:001a57d0       ?run@?$_stdcmd@$0NDA@@@SAXPAUident@@PAH1PAI2@Z 005a67d0 f   command.obj
 0001:001a5800       ?run@?$_stdcmd@$0NCP@@@SAXPAUident@@PAHPAI2@Z 005a6800 f   command.obj
 0001:001a5980       ?run@?$_stdcmd@$0NCB@@@SAXPAUident@@PAH11PAI@Z 005a6980 f   command.obj
 0001:001a59b0       ?run@?$_stdcmd@$0NCA@@@SAXPAUident@@PAH1PAI@Z 005a69b0 f   command.obj
 0001:001a59d0       ?run@?$_stdcmd@$0NBP@@@SAXPAUident@@PAH1PAI@Z 005a69d0 f   command.obj
 0001:001a59f0       ?run@?$_stdcmd@$0NBO@@@SAXPAUident@@PAHPAI@Z 005a69f0 f   command.obj
 0001:001a5c20       ?run@?$_stdcmd@$0MOI@@@SAXPAUident@@PAUtagval@@PAI@Z 005a6c20 f   command.obj
 0001:001a5c80       ?run@?$_stdcmd@$0MNK@@@SAXPAUtagval@@00@Z 005a6c80 f   command.obj
 0001:001a5cb0       ?run@?$_stdcmd@$0MNJ@@@SAXPAUtagval@@PAI1@Z 005a6cb0 f   command.obj
 0001:001a5ed0       ?run@?$_stdcmd@$0MML@@@SAXPAI@Z 005a6ed0 f   command.obj
 0001:001a5ee0       ?changedvars@@YAXXZ        005a6ee0 f   command.obj
 0001:001a6060       ?writecfg@@YAXPBD@Z        005a7060 f   command.obj
 0001:001a65c0       ?validateblock@@YA_NPBD@Z  005a75c0 f   command.obj
 0001:001a66b0       ?run@?$_icmd_unescape@$0MEK@@@SAXPAD@Z 005a76b0 f   command.obj
 0001:001a6710       ?run@?$_icmd_escape@$0MED@@@SAXPAD@Z 005a7710 f   command.obj
 0001:001a6770       ?run@?$_icmd_exec@$0MCO@@@SAXPADPAH@Z 005a7770 f   command.obj
 0001:001a67a0       ?execidentbool@@YA_NPBD_N1@Z 005a77a0 f   command.obj
 0001:001a6870       ?executebool@@YA_NPAUident@@PAUtagval@@H_N@Z 005a7870 f   command.obj
 0001:001ab650       ?run@?$_icmd_printvar@$0IFH@@@SAXPAUident@@@Z 005ac650 f   command.obj
 0001:001ab660       ?printvar@@YAXPAUident@@@Z 005ac660 f   command.obj
 0001:001ab7e0       ?printsvar@@YAXPAUident@@PBD@Z 005ac7e0 f   command.obj
 0001:001ab820       ?printvar@@YAXPAUident@@H@Z 005ac820 f   command.obj
 0001:001b02f0       ?unescapestring@@YAHPADPBD1@Z 005b12f0 f   command.obj
 0001:001b0350       ?parsestring@@YAPBDPBD@Z   005b1350 f   command.obj
 0001:001b03f0       ?run@?$_icmd_set@$0DEM@@@SAXPAUident@@PAUtagval@@@Z 005b13f0 f   command.obj
 0001:001b04c0       ?clampfvar@@YAMPAUident@@MMM@Z 005b14c0 f   command.obj
 0001:001b05e0       ?clampvar@@YAHPAUident@@HHH@Z 005b15e0 f   command.obj
 0001:001b0640       ?run@?$_icmd_getalias@$0CNF@@@SAXPAD@Z 005b1640 f   command.obj
 0001:001b06d0       ?getalias@@YAPBDPBD@Z      005b16d0 f   command.obj
 0001:001b0720       ?run@?$_icmd_identexists@$0CLO@@@SAXPAD@Z 005b1720 f   command.obj
 0001:001b0750       ?identexists@@YA_NPBD@Z    005b1750 f   command.obj
 0001:001b0770       ?run@?$_icmd_getfvarmax@$0CLL@@@SAXPAD@Z 005b1770 f   command.obj
 0001:001b07c0       ?run@?$_icmd_getfvarmin@$0CLK@@@SAXPAD@Z 005b17c0 f   command.obj
 0001:001b0810       ?run@?$_icmd_getvarmax@$0CLJ@@@SAXPAD@Z 005b1810 f   command.obj
 0001:001b0850       ?run@?$_icmd_getvarmin@$0CLI@@@SAXPAD@Z 005b1850 f   command.obj
 0001:001b0890       ?getfvarmax@@YAMPBD@Z      005b1890 f   command.obj
 0001:001b08c0       ?getfvarmin@@YAMPBD@Z      005b18c0 f   command.obj
 0001:001b08f0       ?getvarmax@@YAHPBD@Z       005b18f0 f   command.obj
 0001:001b0910       ?getvarmin@@YAHPBD@Z       005b1910 f   command.obj
 0001:001b0930       ?run@?$_icmd_defsvarp@$0CGL@@@SAXPAD00@Z 005b1930 f   command.obj
 0001:001b09e0       ?run@?$_icmd_defsvar@$0CGK@@@SAXPAD00@Z 005b19e0 f   command.obj
 0001:001b0a90       ?run@?$_icmd_deffvarp@$0CGJ@@@SAXPADPAM110@Z 005b1a90 f   command.obj
 0001:001b0ba0       ?run@?$_icmd_deffvar@$0CGI@@@SAXPADPAM110@Z 005b1ba0 f   command.obj
 0001:001b0ca0       ?run@?$_icmd_defvarp@$0CGH@@@SAXPADPAH110@Z 005b1ca0 f   command.obj
 0001:001b0d90       ?run@?$_icmd_defvar@$0CGG@@@SAXPADPAH110@Z 005b1d90 f   command.obj
 0001:001b0e90       ?run@?$_icmd_alias@$0CCG@@@SAXPBDPAUtagval@@@Z 005b1e90 f   command.obj
 0001:001b1160       ?resetvar@@YAXPAD@Z        005b2160 f   command.obj
 0001:001b1190       ?readident@@YAPAUident@@PBD@Z 005b2190 f   command.obj
 0001:001b11d0       ?newident@@YAPAUident@@PBDH@Z 005b21d0 f   command.obj
 0001:001b13e0       ?run@?$_icmd_push@$0BHE@@@SAXPAUident@@PAUtagval@@PAI@Z 005b23e0 f   command.obj
 0001:001b15c0       ?run@?$_icmd_nodebug@$0BBL@@@SAXPAI@Z 005b25c0 f   command.obj
 0001:001b1c50       ?clearoverride@@YAXAAUident@@@Z 005b2c50 f   command.obj
 0001:001b1cf0       ?clear_command@@YAXXZ      005b2cf0 f   command.obj
 0001:001b20e0       ?executeret@@YAXPBIAAUtagval@@@Z 005b30e0 f   command.obj
 0001:001b20f0       ?compilecode@@YAPAIPBD@Z   005b30f0 f   command.obj
 0001:001b2350       ?freecode@@YAXPAI@Z        005b3350 f   command.obj
 0001:001b23d0       ?executeret@@YAXPAUident@@PAUtagval@@H_NAAU2@@Z 005b33d0 f   command.obj
 0001:001b26f0       ?cleanup@tagval@@QAEXXZ    005b36f0 f   command.obj
 0001:001b2730       ?setvarchecked@@YAXPAUident@@H@Z 005b3730 f   command.obj
 0001:001b2820       ?setfvarchecked@@YAXPAUident@@M@Z 005b3820 f   command.obj
 0001:001b29c0       ?setsvarchecked@@YAXPAUident@@PBD@Z 005b39c0 f   command.obj
 0001:001b2ab0       ?numberstr@@YAPBDN@Z       005b3ab0 f   command.obj
 0001:001b2b40       ?alias@@YAXPBD0@Z          005b3b40 f   command.obj
 0001:001b2ba0       ?execute@@YAHPAUident@@PAUtagval@@H_N@Z 005b3ba0 f   command.obj
 0001:001b2c50       ?executestr@@YAPADPAUident@@PAUtagval@@H_N@Z 005b3c50 f   command.obj
 0001:001b2c90       ?result@@YAXAAUtagval@@@Z  005b3c90 f   command.obj
 0001:001b2cb0       ?execute@@YAHPBD@Z         005b3cb0 f   command.obj
 0001:001b2f70       ?explodelist@@YAXPBDAAU?$vector@PAD@@H@Z 005b3f70 f   command.obj
 0001:001b3090       ?printfvar@@YAXPAUident@@M@Z 005b4090 f   command.obj
 0001:001b30f0       ?escapestring@@YAPBDPBD@Z  005b40f0 f   command.obj
 0001:001b3330       ?escapeid@@YAPBDPBD@Z      005b4330 f   command.obj
 0001:001b3360       ?getident@@YAPAUident@@PBD@Z 005b4360 f   command.obj
 0001:001b3370       ?setfvar@@YAXPBDM_N1@Z     005b4370 f   command.obj
 0001:001b3400       ?setsvar@@YAXPBD0_N@Z      005b4400 f   command.obj
 0001:001b34c0       ?intstr@@YAPBDH@Z          005b44c0 f   command.obj
 0001:001b3510       ?svariable@@YAPADPBD0PAPADP6AXPAUident@@@ZH@Z 005b4510 f   command.obj
 0001:001b3590       ?executebool@@YA_NPBI@Z    005b4590 f   command.obj
 0001:001b3640       ?clearoverrides@@YAXXZ     005b4640 f   command.obj
 0001:001b3760       ?clearsleep@@YAX_N@Z       005b4760 f   command.obj
 0001:001b37d0       ?setvar@@YAXPBDH_N1@Z      005b47d0 f   command.obj
 0001:001b3880       ?execfile@@YA_NPBD_N@Z     005b4880 f   command.obj
 0001:001b3a20       ?execident@@YAHPBDH_N@Z    005b4a20 f   command.obj
 0001:001b3a50       ?floatstr@@YAPBDM@Z        005b4a50 f   command.obj
 0001:001b3a90       ?execute@@YAHPBI@Z         005b4a90 f   command.obj
 0001:001b3b30       ?floatret@@YAXM@Z          005b4b30 f   command.obj
 0001:001b3b50       ?stringret@@YAXPAD@Z       005b4b50 f   command.obj
 0001:001b3b60       ?loopiter@@YAXPAUident@@AAUidentstack@@ABUtagval@@@Z 005b4b60 f   command.obj
 0001:001b3be0       ?loopend@@YAXPAUident@@AAUidentstack@@@Z 005b4be0 f   command.obj
 0001:001b3bf0       ?fvariable@@YAMPBDMMMPAMP6AXPAUident@@@ZH@Z 005b4bf0 f   command.obj
 0001:001b3c50       ?addcommand@@YA_NPBDP6AXPAUident@@@Z0H@Z 005b4c50 f   command.obj
 0001:001b3dc0       ?variable@@YAHPBDHHHPAHP6AXPAUident@@@ZH@Z 005b4dc0 f   command.obj
 0001:001b3e20       ?result@@YAXPBD@Z          005b4e20 f   command.obj
 0001:001b3e70       ?intret@@YAXH@Z            005b4e70 f   command.obj
 0001:001b4580       ?complete@@YAXPADHPBD@Z    005b5580 f   console.obj
 0001:001b4a20       ?addlistcomplete@@YAXPAD0@Z 005b5a20 f   console.obj
 0001:001b4a40       ?addvarcomplete@@YAXPAD00@Z 005b5a40 f   console.obj
 0001:001b4a60       ?addfilecomplete@@YAXPAD00@Z 005b5a60 f   console.obj
 0001:001b4a80       ?addcomplete@@YAXPADH00@Z  005b5a80 f   console.obj
 0001:001b4e00       ?resetcomplete@@YAXXZ      005b5e00 f   console.obj
 0001:001b4f00       ?clear_console@@YAXXZ      005b5f00 f   console.obj
 0001:001b4f50       ?processkey@@YAXH_NH@Z     005b5f50 f   console.obj
 0001:001b50d0       ?processtextinput@@YAXPBDH@Z 005b60d0 f   console.obj
 0001:001b5190       ?consolekey@@YA_NH_N@Z     005b6190 f   console.obj
 0001:001b5aa0       ?consoleinput@@YA_NPBDH@Z  005b6aa0 f   console.obj
 0001:001b5b50       ?execbind@@YAXAAUkeym@@_N@Z 005b6b50 f   console.obj
 0001:001b5cd0       ?onrelease@@YAXPBD@Z       005b6cd0 f   console.obj
 0001:001b5d40       ?addreleaseaction@@YAPBDPAD@Z 005b6d40 f   console.obj
 0001:001b5d80       ?history_@@YAXPAH@Z        005b6d80 f   console.obj
 0001:001b5dc0       ?pasteconsole@@YAXXZ       005b6dc0 f   console.obj
 0001:001b5e30       ?run@?$_icmd_saycommand@$0BDF@@@SAXPAD@Z 005b6e30 f   console.obj
 0001:001b5f40       ?inputcommand@@YAXPAD000@Z 005b6f40 f   console.obj
 0001:001b60c0       ?run@?$_icmd_clearallbinds@$0BBO@@@SAXXZ 005b70c0 f   console.obj
 0001:001b6150       ?run@?$_icmd_cleareditbinds@$0BBN@@@SAXXZ 005b7150 f   console.obj
 0001:001b61d0       ?run@?$_icmd_clearspecbinds@$0BBM@@@SAXXZ 005b71d0 f   console.obj
 0001:001b6250       ?run@?$_icmd_clearbinds@$0BBL@@@SAXXZ 005b7250 f   console.obj
 0001:001b62d0       ?clear@keym@@QAEXH@Z       005b72d0 f   console.obj
 0001:001b6320       ?run@?$_icmd_searcheditbinds@$0BAP@@@SAXPAD@Z 005b7320 f   console.obj
 0001:001b6330       ?run@?$_icmd_searchspecbinds@$0BAO@@@SAXPAD@Z 005b7330 f   console.obj
 0001:001b6340       ?run@?$_icmd_searchbinds@$0BAN@@@SAXPAD@Z 005b7340 f   console.obj
 0001:001b6350       ?run@?$_icmd_geteditbind@$0BAM@@@SAXPAD@Z 005b7350 f   console.obj
 0001:001b6360       ?run@?$_icmd_getspecbind@$0BAL@@@SAXPAD@Z 005b7360 f   console.obj
 0001:001b6370       ?run@?$_icmd_getbind@$0BAK@@@SAXPAD@Z 005b7370 f   console.obj
 0001:001b6380       ?run@?$_icmd_editbind@$0BAJ@@@SAXPAD0@Z 005b7380 f   console.obj
 0001:001b63a0       ?run@?$_icmd_specbind@$0BAI@@@SAXPAD0@Z 005b73a0 f   console.obj
 0001:001b63c0       ?run@?$_icmd_bind@$0BAH@@@SAXPAD0@Z 005b73c0 f   console.obj
 0001:001b63e0       ?bindkey@@YAXPAD0HPBD@Z    005b73e0 f   console.obj
 0001:001b64a0       ?getbind@@YAXPADH@Z        005b74a0 f   console.obj
 0001:001b6500       ?findbind@@YAPAUkeym@@PAD@Z 005b7500 f   console.obj
 0001:001b6560       ?searchbinds@@YAXPADH@Z    005b7560 f   console.obj
 0001:001b68a0       ?keymap@@YAXPAHPAD@Z       005b78a0 f   console.obj
 0001:001b6960       ?drawconlines@@YAMHHMMMHMH@Z 005b7960 f   console.obj
 0001:001b6bf0       ?run@?$_icmd_clearconsole@$0GN@@@SAXXZ 005b7bf0 f   console.obj
 0001:001b6c50       ?run@?$_icmd_miniconskip@$0GL@@@SAXPAH@Z 005b7c50 f   console.obj
 0001:001b6c70       ?run@?$_icmd_conskip@$0GK@@@SAXPAH@Z 005b7c70 f   console.obj
 0001:001b6cf0       ?setconskip@@YAXAAHHH@Z    005b7cf0 f   console.obj
 0001:001b6da0       ?run@?$_icmd_toggleconsole@$0DM@@@SAXXZ 005b7da0 f   console.obj
 0001:001b6de0       ?run@?$_icmd_fullconsole@$0DL@@@SAXPAH0PAUident@@@Z 005b7de0 f   console.obj
 0001:001b6ea0       ?conline@@YAXHPBD@Z        005b7ea0 f   console.obj
 0001:001b7160       ?var_maxcon@@YAXPAUident@@@Z 005b8160 f   console.obj
 0001:001b71d0       ?conoutfv@@YAXHPBDPAD@Z    005b81d0 f   console.obj
 0001:001b7220       ?addreleaseaction@@YAPAUtagval@@PAUident@@H@Z 005b8220 f   console.obj
 0001:001b7260       ?writebinds@@YAXPAUstream@@@Z 005b8260 f   console.obj
 0001:001b74b0       ?writecompletions@@YAXPAUstream@@@Z 005b84b0 f   console.obj
 0001:001b77d0       ?renderfullconsole@@YAMMM@Z 005b87d0 f   console.obj
 0001:001b7830       ?getkeyname@@YAPBDH@Z      005b8830 f   console.obj
 0001:001b7860       ?rendercommand@@YAMMMM@Z   005b8860 f   console.obj
 0001:001b7950       ?renderconsole@@YAMMMM@Z   005b8950 f   console.obj
 0001:001b7d80       ?var_clockfix@@YAXPAUident@@@Z 005b8d80 f   main.obj
 0001:001b7da0       ?var_clockerror@@YAXPAUident@@@Z 005b8da0 f   main.obj
 0001:001b7e20       ?getfps_@@YAXPAH@Z         005b8e20 f   main.obj
 0001:001b7ea0       ?updatefpshistory@@YAXH@Z  005b8ea0 f   main.obj
 0001:001b7ee0       ?resetfpshistory@@YAXXZ    005b8ee0 f   main.obj
 0001:001b7f00       ?stackdumper@@YAXIPAU_EXCEPTION_POINTERS@@@Z 005b8f00 f   main.obj
 0001:001b80d0       ?limitfps@@YAXAAHH@Z       005b90d0 f   main.obj
 0001:001b8160       ?swapbuffers@@YAX_N@Z      005b9160 f   main.obj
 0001:001b82c0       ?checkinput@@YAXXZ         005b92c0 f   main.obj
 0001:001b8ea0       ?resetgl@@YAXXZ            005b9ea0 f   main.obj
 0001:001b93d0       ?setupscreen@@YAXXZ        005ba3d0 f   main.obj
 0001:001b9620       ?var_vsynctear@@YAXPAUident@@@Z 005ba620 f   main.obj
 0001:001b9630       ?var_vsync@@YAXPAUident@@@Z 005ba630 f   main.obj
 0001:001b9680       ?restorevsync@@YAXXZ       005ba680 f   main.obj
 0001:001b96d0       ?cleargamma@@YAXXZ         005ba6d0 f   main.obj
 0001:001b9700       ?restoregamma@@YAXXZ       005ba700 f   main.obj
 0001:001b9720       ?var_gamma@@YAXPAUident@@@Z 005ba720 f   main.obj
 0001:001b97a0       ?run@?$_icmd_screenres@$0CAH@@@SAXPAH0@Z 005ba7a0 f   main.obj
 0001:001b9880       ?screenres@@YAXHH@Z        005ba880 f   main.obj
 0001:001b9950       ?var_fullscreen@@YAXPAUident@@@Z 005ba950 f   main.obj
 0001:001b99d0       ?setfullscreen@@YAX_N@Z    005ba9d0 f   main.obj
 0001:001b9a40       ?inputgrab@@YAX_N0@Z       005baa40 f   main.obj
 0001:001b9b00       ?renderprogressview@@YAXHHMPBD@Z 005bab00 f   main.obj
 0001:001b9f00       ?restorebackground@@YAXHH_N@Z 005baf00 f   main.obj
 0001:001b9f90       ?setbackgroundinfo@@YAXPBDPAUTexture@@00@Z 005baf90 f   main.obj
 0001:001ba050       ?renderbackgroundview@@YAXHHPBDPAUTexture@@00@Z 005bb050 f   main.obj
 0001:001ba7a0       ?bgquad@@YAXMMMMMMMM@Z     005bb7a0 f   main.obj
 0001:001baa50       ?writeinitcfg@@YAXXZ       005bba50 f   main.obj
 0001:001bab40       ?var_screenh@@YAXPAUident@@@Z 005bbb40 f   main.obj
 0001:001bab60       ?var_screenw@@YAXPAUident@@@Z 005bbb60 f   main.obj
 0001:001bab80       ?quit@@YAXXZ               005bbb80 f   main.obj
 0001:001babc0       ?cleanup@@YAXXZ            005bbbc0 f   main.obj
 0001:001baf80       ?textinput@@YAX_NH@Z       005bbf80 f   main.obj
 0001:001bafd0       ?initwarning@@YA_NPBDHH@Z  005bbfd0 f   main.obj
 0001:001bb150       ?getclockmillis@@YAHXZ     005bc150 f   main.obj
 0001:001bb1a0       ?getfps@@YAXAAH00@Z        005bc1a0 f   main.obj
 0001:001bb2f0       ?fatal@@YAXPBDZZ           005bc2f0 f   main.obj
 0001:001bb3a0       _SDL_main                  005bc3a0 f   main.obj
 0001:001bbb70       ?keyrepeat@@YAX_NH@Z       005bcb70 f   main.obj
 0001:001bbb90       ?interceptkey@@YA_NH@Z     005bcb90 f   main.obj
 0001:001bbc30       ?renderprogress@@YAXMPBD_N@Z 005bcc30 f   main.obj
 0001:001bbe30       ?renderbackground@@YAXPBDPAUTexture@@00_N@Z 005bce30 f   main.obj
 0001:001bc060       ?run@?$_icmd_pendingchanges@$0DF@@@SAXPAH@Z 005bd060 f   menus.obj
 0001:001bc0a0       ?applychanges@@YAXXZ       005bd0a0 f   menus.obj
 0001:001bc1f0       ?notifywelcome@@YAXXZ      005bd1f0 f   menus.obj
 0001:001bc230       ?addchange@@YAXPBDH@Z      005bd230 f   menus.obj
 0001:001bc390       ?menuprocess@@YAXXZ        005bd390 f   menus.obj
 0001:001bc410       ?clearchanges@@YAXH@Z      005bd410 f   menus.obj
 0001:001bc4e0       ?clearmainmenu@@YAXXZ      005bd4e0 f   menus.obj
 0001:001bc560       ?run@?$_icmd_movierecording@$0EIN@@@SAXXZ 005bd560 f   movie.obj
 0001:001bc580       ?movie@@YAXPAD@Z           005bd580 f   movie.obj
 0001:001bc5d0       ?drawhud@recorder@@YAXXZ   005bd5d0 f   movie.obj
 0001:001bc7f0       ?readbuffer@recorder@@YA_NXZ 005bd7f0 f   movie.obj
 0001:001bc920       ?readbuffer@recorder@@YAXAAUvideobuffer@1@I@Z 005bd920 f   movie.obj
 0001:001bd370       ?start@recorder@@YAXPBDHHH_N@Z 005be370 f   movie.obj
 0001:001bd6e0       ?soundencoder@recorder@@YAXPAXPAEH@Z 005be6e0 f   movie.obj
 0001:001bd800       ?videoencoder@recorder@@YAHPAX@Z 005be800 f   movie.obj
 0001:001bdae0       ?gettime@recorder@@YAHXZ   005beae0 f   movie.obj
 0001:001bdb40       ?calcquality@recorder@@YAMXZ 005beb40 f   movie.obj
 0001:001bdba0       ?isrecording@recorder@@YA_NXZ 005beba0 f   movie.obj
 0001:001bdbb0       ?stop@recorder@@YAXXZ      005bebb0 f   movie.obj
 0001:001bdd30       ?cleanup@recorder@@YAXXZ   005bed30 f   movie.obj
 0001:001bddd0       ?capture@recorder@@YAX_N@Z 005bedd0 f   movie.obj
 0001:001bdff0       ?updatemumble@@YAXXZ       005beff0 f   sound.obj
 0001:001be1a0       ?closemumble@@YAXXZ        005bf1a0 f   sound.obj
 0001:001be1e0       ?var_mumble@@YAXPAUident@@@Z 005bf1e0 f   sound.obj
 0001:001be230       ?resetsound@@YAXXZ         005bf230 f   sound.obj
 0001:001be3a0       ?run@?$_icmd_playsound@$0COA@@@SAXPAH@Z 005bf3a0 f   sound.obj
 0001:001be3c0       ?playsound@@YAHHPBUvec@@PAUextentity@@HHHHHH@Z 005bf3c0 f   sound.obj
 0001:001be7c0       ?preloadmapsound@@YAXH@Z   005bf7c0 f   sound.obj
 0001:001be7d0       ?preloadsound@@YAXH@Z      005bf7d0 f   sound.obj
 0001:001be7e0       ?syncchannels@@YAXXZ       005bf7e0 f   sound.obj
 0001:001be870       ?reclaimchannels@@YAXXZ    005bf870 f   sound.obj
 0001:001be8f0       ?updatechannel@@YA_NAAUsoundchannel@@@Z 005bf8f0 f   sound.obj
 0001:001beae0       ?checkmapsounds@@YAXXZ     005bfae0 f   sound.obj
 0001:001bec10       ?stopmapsound@@YAXPAUextentity@@@Z 005bfc10 f   sound.obj
 0001:001bec90       ?stopmapsounds@@YAXXZ      005bfc90 f   sound.obj
 0001:001bed10       ?resetchannels@@YAXXZ      005bfd10 f   sound.obj
 0001:001bed70       ?mapsoundreset@@YAXXZ      005bfd70 f   sound.obj
 0001:001bed80       ?soundreset@@YAXXZ         005bfd80 f   sound.obj
 0001:001bed90       ?run@?$_icmd_nummapsounds@$0BMG@@@SAXXZ 005bfd90 f   sound.obj
 0001:001bedb0       ?run@?$_icmd_numsounds@$0BMF@@@SAXXZ 005bfdb0 f   sound.obj
 0001:001bedd0       ?altmapsound@@YAXPADPAH@Z  005bfdd0 f   sound.obj
 0001:001bee00       ?altsound@@YAXPADPAH@Z     005bfe00 f   sound.obj
 0001:001bee30       ?mapsound@@YAXPADPAH1@Z    005bfe30 f   sound.obj
 0001:001bee70       ?registersound@@YAXPADPAH@Z 005bfe70 f   sound.obj
 0001:001beea0       ?load@soundsample@@QAE_NPBD_N@Z 005bfea0 f   sound.obj
 0001:001bf0a0       ?startmusic@@YAXPAD0@Z     005c00a0 f   sound.obj
 0001:001bf1f0       ?loadmusic@@YAPAU_Mix_Music@@PBD@Z 005c01f0 f   sound.obj
 0001:001bf2f0       ?musicdone@@YAXXZ          005c02f0 f   sound.obj
 0001:001bf3a0       ?initaudio@@YA_NXZ         005c03a0 f   sound.obj
 0001:001bf570       ?var_soundbufferlen@@YAXPAUident@@@Z 005c0570 f   sound.obj
 0001:001bf590       ?var_soundfreq@@YAXPAUident@@@Z 005c0590 f   sound.obj
 0001:001bf5b0       ?var_soundchans@@YAXPAUident@@@Z 005c05b0 f   sound.obj
 0001:001bf5d0       ?var_sound@@YAXPAUident@@@Z 005c05d0 f   sound.obj
 0001:001bf5f0       ?var_audiodriver@@YAXPAUident@@@Z 005c05f0 f   sound.obj
 0001:001bf610       ?stopmusic@@YAXXZ          005c0610 f   sound.obj
 0001:001bf6c0       ?setmusicvol@@YAXH@Z       005c06c0 f   sound.obj
 0001:001bf700       ?var_musicvol@@YAXPAUident@@@Z 005c0700 f   sound.obj
 0001:001bf750       ?var_soundvol@@YAXPAUident@@@Z 005c0750 f   sound.obj
 0001:001bf840       ?stopchannels@@YAXXZ       005c0840 f   sound.obj
 0001:001bf8b0       ?syncchannel@@YAXAAUsoundchannel@@@Z 005c08b0 f   sound.obj
 0001:001bf900       ?freechannel@@YAXH@Z       005c0900 f   sound.obj
 0001:001bf940       ?newchannel@@YAAAUsoundchannel@@HPAUsoundslot@@PBUvec@@PAUextentity@@HH@Z 005c0940 f   sound.obj
 0001:001bfb60       ?stopsounds@@YAXXZ         005c0b60 f   sound.obj
 0001:001bfbd0       ?initsound@@YAXXZ          005c0bd0 f   sound.obj
 0001:001bfe90       ?initmumble@@YAXXZ         005c0e90 f   sound.obj
 0001:001bff50       ?updatesounds@@YAXXZ       005c0f50 f   sound.obj
 0001:001c03e0       ?clear_sound@@YAXXZ        005c13e0 f   sound.obj
 0001:001c04f0       ?preloadmapsounds@@YAXXZ   005c14f0 f   sound.obj
 0001:001c0570       ?clearmapsounds@@YAXXZ     005c1570 f   sound.obj
 0001:001c07a0       ?var_stainfade@@YAXPAUident@@@Z 005c17a0 f   stain.obj
 0001:001c07b0       ?var_maxstaintris@@YAXPAUident@@@Z 005c17b0 f   stain.obj
 0001:001c07c0       ?cleanupstains@@YAXXZ      005c17c0 f   stain.obj
 0001:001c0810       ?initstains@@YAXXZ         005c1810 f   stain.obj
 0001:001c09e0       ?addstain@@YAXHABUvec@@0MABUbvec@@H@Z 005c19e0 f   stain.obj
 0001:001c0a90       ?renderstains@@YA_NH_NH@Z  005c1a90 f   stain.obj
 0001:001c0d80       ?genstainmmtri@@YAXPAUstainrenderer@@QBUvec@@@Z 005c1d80 f   stain.obj
 0001:001c0d90       ?clearstains@@YAXXZ        005c1d90 f   stain.obj
 0001:001c11c0       ?checkchallenge@@YA_NPBDPAX@Z 005c21c0 f   crypto.obj
 0001:001c1210       ?freechallenge@@YAXPAX@Z   005c2210 f   crypto.obj
 0001:001c1220       ?genchallenge@@YAPAXPAXPBXHAAU?$vector@D@@@Z 005c2220 f   crypto.obj
 0001:001c13e0       ?freepubkey@@YAXPAX@Z      005c23e0 f   crypto.obj
 0001:001c13f0       ?parsepubkey@@YAPAXPBD@Z   005c23f0 f   crypto.obj
 0001:001c1450       ?answerchallenge@@YAXPBD0AAU?$vector@D@@@Z 005c2450 f   crypto.obj
 0001:001c14c0       ?hashstring@@YA_NPBDPADH@Z 005c24c0 f   crypto.obj
 0001:001c15d0       ?genprivkey@@YAXPBDAAU?$vector@D@@1@Z 005c25d0 f   crypto.obj
 0001:001c1700       ?calcpubkey@@YA_NPBDAAU?$vector@D@@@Z 005c2700 f   crypto.obj
 0001:001c1750       ?calcpubkey@@YAXU?$bigint@$0N@@@AAU?$vector@D@@@Z 005c2750 f   crypto.obj
 0001:001c1820       ?hash@tiger@@YAXPBEHAAThashval@1@@Z 005c2820 f   crypto.obj
 0001:001c1940       ?gensboxes@tiger@@YAXXZ    005c2940 f   crypto.obj
 0001:001c1b30       ?compress@tiger@@YAXPB_KQA_K@Z 005c2b30 f   crypto.obj
 0001:001c2570       ?linecylinderintersect@@YA_NABUvec@@000MAAM@Z 005c3570 f   geom.obj
 0001:001c2a00       ?invert@matrix4@@QAE_NABU1@N@Z 005c3a00 f   geom.obj
 0001:001c30c0       ?polyclip@@YAHPBUvec@@HABU1@MMPAU1@@Z 005c40c0 f   geom.obj
 0001:001c3480       ?rayboxintersect@@YA_NABUvec@@000AAMAAH@Z 005c4480 f   geom.obj
 0001:001c3870       ?multidraw@gle@@YAXXZ      005c4870 f   glemu.obj
 0001:001c3910       ?setup@gle@@YAXXZ          005c4910 f   glemu.obj
 0001:001c3980       ?cleanup@gle@@YAXXZ        005c4980 f   glemu.obj
 0001:001c3a00       ?enablequads@gle@@YAXXZ    005c4a00 f   glemu.obj
 0001:001c3ac0       ?drawquads@gle@@YAXHH@Z    005c4ac0 f   glemu.obj
 0001:001c3b30       ?disablequads@gle@@YAXXZ   005c4b30 f   glemu.obj
 0001:001c3b60       ?begin@gle@@YAXIH@Z        005c4b60 f   glemu.obj
 0001:001c3c50       ?defattrib@gle@@YAXHHH@Z   005c4c50 f   glemu.obj
 0001:001c3e80       ?begin@gle@@YAXI@Z         005c4e80 f   glemu.obj
 0001:001c3e90       ?end@gle@@YAHXZ            005c4e90 f   glemu.obj
 0001:001c4180       ?forcedisable@gle@@YAXXZ   005c5180 f   glemu.obj
 0001:001c42c0       ?opentempfile@@YAPAUstream@@PBD0@Z 005c52c0 f   stream.obj
 0001:001c4370       ?openrawfile@@YAPAUstream@@PBD0@Z 005c5370 f   stream.obj
 0001:001c4420       ?printf@stream@@UAAIPBDZZ  005c5420 f   stream.obj
 0001:001c44f0       ?getline@stream@@UAE_NPADI@Z 005c54f0 f   stream.obj
 0001:001c4560       ?size@stream@@UAE_JXZ      005c5560 f   stream.obj
 0001:001c46b0       ?listdir@@YA_NPBD_N0AAU?$vector@PAD@@@Z 005c56b0 f   stream.obj
 0001:001c48d0       ?subhomedir@@YA_NPADHPBD@Z 005c58d0 f   stream.obj
 0001:001c4980       ?fixpackagedir@@YAIPAD@Z   005c5980 f   stream.obj
 0001:001c49b0       ?sethomedir@@YAPBDPBD@Z    005c59b0 f   stream.obj
 0001:001c4a80       ?addpackagedir@@YAPBDPBD@Z 005c5a80 f   stream.obj
 0001:001c4e00       ?decodeutf8@@YAIPAEIPBEIPAI@Z 005c5e00 f   stream.obj
 0001:001c4ff0       ?conoutf@@YAXHHPBDZZ       005c5ff0 f   stream.obj
 0001:001c5050       ?loadfile@@YAPADPBDPAI_N@Z 005c6050 f   stream.obj
 0001:001c5150       ?listfiles@@YAHPBD0AAU?$vector@PAD@@@Z 005c6150 f   stream.obj
 0001:001c52f0       ?rwops@stream@@QAEPAUSDL_RWops@@XZ 005c62f0 f   stream.obj
 0001:001c5320       ?fileexists@@YA_NPBD0@Z    005c6320 f   stream.obj
 0001:001c5360       ?createdir@@YA_NPBD@Z      005c6360 f   stream.obj
 0001:001c53c0       ?parentdir@@YAPBDPBD@Z     005c63c0 f   stream.obj
 0001:001c5430       ?openutf8file@@YAPAUstream@@PBD0PAU1@@Z 005c6430 f   stream.obj
 0001:001c5570       ?path@@YAPADPBD_N@Z        005c6570 f   stream.obj
 0001:001c55c0       ?encodeutf8@@YAIPAEIPBEIPAI@Z 005c65c0 f   stream.obj
 0001:001c5720       ?findfile@@YAPBDPBD0@Z     005c6720 f   stream.obj
 0001:001c5960       ?openfile@@YAPAUstream@@PBD0@Z 005c6960 f   stream.obj
 0001:001c5980       ?makerelpath@@YAPADPBD000@Z 005c6980 f   stream.obj
 0001:001c5af0       ?path@@YAPADPAD@Z          005c6af0 f   stream.obj
 0001:001c5c40       ?opengzfile@@YAPAUstream@@PBD0PAU1@H@Z 005c6c40 f   stream.obj
 0001:001c5e60       ?conoutf@@YAXPBDZZ         005c6e60 f   stream.obj
 0001:001c5eb0       ?conoutf@@YAXHPBDZZ        005c6eb0 f   stream.obj
 0001:001c6730       ?parse@ipmask@@QAEXPBD@Z   005c7730 f   tools.obj
 0001:001c6810       ?sendstring@@YAXPBDAAU?$databuf@E@@@Z 005c7810 f   tools.obj
 0001:001c6840       ?putfloat@@YAXAAU?$databuf@E@@M@Z 005c7840 f   tools.obj
 0001:001c6880       ?putuint@@YAXAAUpacketbuf@@H@Z 005c7880 f   tools.obj
 0001:001c6960       ?putuint@@YAXAAU?$databuf@E@@H@Z 005c7960 f   tools.obj
 0001:001c6970       ?seedMT@@YAXI@Z            005c7970 f   tools.obj
 0001:001c69b0       ??3@YAXPAX@Z               005c79b0 f   tools.obj
 0001:001c69f0       ?sendstring@@YAXPBDAAU?$vector@E@@@Z 005c79f0 f   tools.obj
 0001:001c6a20       ?putfloat@@YAXAAU?$vector@E@@M@Z 005c7a20 f   tools.obj
 0001:001c6a60       ?putint@@YAXAAU?$vector@E@@H@Z 005c7a60 f   tools.obj
 0001:001c6a70       ?putuint@@YAXAAU?$vector@E@@H@Z 005c7a70 f   tools.obj
 0001:001c6a80       ?getfloat@@YAMAAU?$databuf@E@@@Z 005c7a80 f   tools.obj
 0001:001c6ad0       ?getuint@@YAHAAU?$databuf@E@@@Z 005c7ad0 f   tools.obj
 0001:001c6ba0       ?getint@@YAHAAU?$databuf@E@@@Z 005c7ba0 f   tools.obj
 0001:001c6cb0       ?putint@@YAXAAU?$databuf@E@@H@Z 005c7cb0 f   tools.obj
 0001:001c6cc0       ?getstring@@YAXPADAAU?$databuf@E@@I@Z 005c7cc0 f   tools.obj
 0001:001c6da0       ?filtertext@@YAXPADPBD_N2I@Z 005c7da0 f   tools.obj
 0001:001c6e00       ?putint@@YAXAAUpacketbuf@@H@Z 005c7e00 f   tools.obj
 0001:001c6ed0       ?putfloat@@YAXAAUpacketbuf@@M@Z 005c7ed0 f   tools.obj
 0001:001c6ef0       ?sendstring@@YAXPBDAAUpacketbuf@@@Z 005c7ef0 f   tools.obj
 0001:001c6f30       ?randomMT@@YAIXZ           005c7f30 f   tools.obj
 0001:001c7010       ?tempformatstring@@YAPADPBDZZ 005c8010 f   tools.obj
 0001:001c7080       ??_U@YAPAXI_N@Z            005c8080 f   tools.obj
 0001:001c7090       ??2@YAPAXI@Z               005c8090 f   tools.obj
 0001:001c70b0       ??_U@YAPAXI@Z              005c80b0 f   tools.obj
 0001:001c70d0       ??_V@YAXPAX@Z              005c80d0 f   tools.obj
 0001:001c7230       ?run@?$_icmd_removezip@$0CEK@@@SAXPBD@Z 005c8230 f   zip.obj
 0001:001c7240       ?run@?$_icmd_addzip@$0CEJ@@@SAXPBD00@Z 005c8240 f   zip.obj
 0001:001c7270       ?removezip@@YA_NPBD@Z      005c8270 f   zip.obj
 0001:001c7470       ?addzip@@YA_NPBD00@Z       005c8470 f   zip.obj
 0001:001c7cd0       ?findzip@@YAPAUziparchive@@PBD@Z 005c8cd0 f   zip.obj
 0001:001c8260       ?listzipfiles@@YAHPBD0AAU?$vector@PAD@@@Z 005c9260 f   zip.obj
 0001:001c8510       ?findzipfile@@YA_NPBD@Z    005c9510 f   zip.obj
 0001:001c85c0       ?openzipfile@@YAPAUstream@@PBD0@Z 005c95c0 f   zip.obj
 0001:001c88c0       ?render@ai@@YAXXZ          005c98c0 f   ai.obj
 0001:001c9010       ?drawroute@ai@@YAXPAUgameent@@M@Z 005ca010 f   ai.obj
 0001:001c9480       ?think@ai@@YAXPAUgameent@@_N@Z 005ca480 f   ai.obj
 0001:001c9a30       ?avoid@ai@@YAXXZ           005caa30 f   ai.obj
 0001:001c9b60       ?logic@ai@@YAXPAUgameent@@AAUaistate@1@_N@Z 005cab60 f   ai.obj
 0001:001c9e40       ?timeouts@ai@@YAXPAUgameent@@AAUaistate@1@@Z 005cae40 f   ai.obj
 0001:001ca060       ?request@ai@@YA_NPAUgameent@@AAUaistate@1@@Z 005cb060 f   ai.obj
 0001:001ca1e0       ?hasrange@ai@@YA_NPAUgameent@@0H@Z 005cb1e0 f   ai.obj
 0001:001ca2b0       ?process@ai@@YAHPAUgameent@@AAUaistate@1@@Z 005cb2b0 f   ai.obj
 0001:001cb0b0       ?lockon@ai@@YA_NPAUgameent@@H0M@Z 005cc0b0 f   ai.obj
 0001:001cb170       ?scaleyawpitch@ai@@YAXAAM0MMMM@Z 005cc170 f   ai.obj
 0001:001cb2e0       ?getyawpitch@ai@@YAXABUvec@@0AAM1@Z 005cc2e0 f   ai.obj
 0001:001cb3c0       ?fixrange@ai@@YAXAAM0@Z    005cc3c0 f   ai.obj
 0001:001cb450       ?fixfullrange@ai@@YAXAAM00_N@Z 005cc450 f   ai.obj
 0001:001cb510       ?jumpto@ai@@YAXPAUgameent@@AAUaistate@1@ABUvec@@@Z 005cc510 f   ai.obj
 0001:001cb710       ?hunt@ai@@YA_NPAUgameent@@AAUaistate@1@@Z 005cc710 f   ai.obj
 0001:001cb7f0       ?checkroute@ai@@YA_NPAUgameent@@H@Z 005cc7f0 f   ai.obj
 0001:001cba70       ?anynode@ai@@YA_NPAUgameent@@AAUaistate@1@H@Z 005cca70 f   ai.obj
 0001:001cbbb0       ?randomlink@ai@@YAHPAUgameent@@H@Z 005ccbb0 f   ai.obj
 0001:001cbe10       ?wpspot@ai@@YAHPAUgameent@@H_N@Z 005cce10 f   ai.obj
 0001:001cbf20       ?closenode@ai@@YAHPAUgameent@@@Z 005ccf20 f   ai.obj
 0001:001cc0d0       ?dopursue@ai@@YAHPAUgameent@@AAUaistate@1@@Z 005cd0d0 f   ai.obj
 0001:001cc230       ?dointerest@ai@@YAHPAUgameent@@AAUaistate@1@@Z 005cd230 f   ai.obj
 0001:001cc350       ?dodefend@ai@@YAHPAUgameent@@AAUaistate@1@@Z 005cd350 f   ai.obj
 0001:001cc4a0       ?dowait@ai@@YAHPAUgameent@@AAUaistate@1@@Z 005cd4a0 f   ai.obj
 0001:001cc560       ?check@ai@@YA_NPAUgameent@@AAUaistate@1@@Z 005cd560 f   ai.obj
 0001:001cc590       ?itemspawned@ai@@YAXH@Z    005cd590 f   ai.obj
 0001:001cc5a0       ?killed@ai@@YAXPAUgameent@@0@Z 005cd5a0 f   ai.obj
 0001:001cc610       ?spawned@ai@@YAXPAUgameent@@@Z 005cd610 f   ai.obj
 0001:001cc6f0       ?setup@ai@@YAXPAUgameent@@@Z 005cd6f0 f   ai.obj
 0001:001cc7d0       ?findorientation@ai@@YAXAAUvec@@MM0@Z 005cd7d0 f   ai.obj
 0001:001cc950       ?damaged@ai@@YAXPAUgameent@@0@Z 005cd950 f   ai.obj
 0001:001ccac0       ?find@ai@@YA_NPAUgameent@@AAUaistate@1@_N@Z 005cdac0 f   ai.obj
 0001:001ccbc0       ?parseinterests@ai@@YA_NPAUgameent@@AAUaistate@1@AAU?$vector@Uinterest@ai@@@@_N3@Z 005cdbc0 f   ai.obj
 0001:001cce00       ?assist@ai@@YAXPAUgameent@@AAUaistate@1@AAU?$vector@Uinterest@ai@@@@_N3@Z 005cde00 f   ai.obj
 0001:001ccf30       ?hasgoodammo@ai@@YA_NPAUgameent@@@Z 005cdf30 f   ai.obj
 0001:001ccf50       ?isgoodammo@ai@@YAHH@Z     005cdf50 f   ai.obj
 0001:001ccf70       ?target@ai@@YA_NPAUgameent@@AAUaistate@1@H_NM@Z 005cdf70 f   ai.obj
 0001:001cd340       ?violence@ai@@YA_NPAUgameent@@AAUaistate@1@0H@Z 005ce340 f   ai.obj
 0001:001cd440       ?defend@ai@@YA_NPAUgameent@@AAUaistate@1@ABUvec@@MMH@Z 005ce440 f   ai.obj
 0001:001cd720       ?patrol@ai@@YA_NPAUgameent@@AAUaistate@1@ABUvec@@MMH_N@Z 005ce720 f   ai.obj
 0001:001cd8a0       ?enemy@ai@@YA_NPAUgameent@@AAUaistate@1@ABUvec@@MH@Z 005ce8a0 f   ai.obj
 0001:001cda80       ?badhealth@ai@@YA_NPAUgameent@@@Z 005cea80 f   ai.obj
 0001:001cda90       ?randomnode@ai@@YA_NPAUgameent@@AAUaistate@1@MM@Z 005cea90 f   ai.obj
 0001:001cdaf0       ?randomnode@ai@@YA_NPAUgameent@@AAUaistate@1@ABUvec@@MM@Z 005ceaf0 f   ai.obj
 0001:001cdd30       ?makeroute@ai@@YA_NPAUgameent@@AAUaistate@1@ABUvec@@_NH@Z 005ced30 f   ai.obj
 0001:001cdd70       ?makeroute@ai@@YA_NPAUgameent@@AAUaistate@1@H_NH@Z 005ced70 f   ai.obj
 0001:001cddf0       ?checkothers@ai@@YA_NAAU?$vector@H@@PAUgameent@@HHH_NPAH@Z 005cedf0 f   ai.obj
 0001:001cdf10       ?update@ai@@YAXXZ          005cef10 f   ai.obj
 0001:001ce150       ?init@ai@@YAXPAUgameent@@HHHHHHPBDH@Z 005cf150 f   ai.obj
 0001:001ce560       ?destroy@ai@@YAXPAUgameent@@@Z 005cf560 f   ai.obj
 0001:001ce580       ?create@ai@@YAXPAUgameent@@@Z 005cf580 f   ai.obj
 0001:001ce6a0       ?getaimpos@ai@@YA?AUvec@@PAUgameent@@H0@Z 005cf6a0 f   ai.obj
 0001:001ce850       ?hastarget@ai@@YA_NPAUgameent@@HAAUaistate@1@0MMM@Z 005cf850 f   ai.obj
 0001:001ce9a0       ?canshoot@ai@@YA_NPAUgameent@@H0@Z 005cf9a0 f   ai.obj
 0001:001cea70       ?cansee@ai@@YA_NPAUgameent@@AAUvec@@11@Z 005cfa70 f   ai.obj
 0001:001ceaf0       ?getsight@ai@@YA_NAAUvec@@MM00MMM@Z 005cfaf0 f   ai.obj
 0001:001ced90       ?targetable@ai@@YA_NPAUgameent@@0@Z 005cfd90 f   ai.obj
 0001:001cede0       ?attackrange@ai@@YA_NPAUgameent@@HM@Z 005cfde0 f   ai.obj
 0001:001cee30       ?attackmaxdist@ai@@YAMH@Z  005cfe30 f   ai.obj
 0001:001cee50       ?attackmindist@ai@@YAMH@Z  005cfe50 f   ai.obj
 0001:001cee70       ?canmove@ai@@YA_NPAUgameent@@@Z 005cfe70 f   ai.obj
 0001:001cee90       ?viewfieldy@ai@@YAMH@Z     005cfe90 f   ai.obj
 0001:001ceed0       ?viewfieldx@ai@@YAMH@Z     005cfed0 f   ai.obj
 0001:001cef00       ?viewdist@ai@@YAMH@Z       005cff00 f   ai.obj
 0001:001cef40       ?run@?$_icmd_botbalance@$0BD@@ai@@SAXPAH@Z 005cff40 f   ai.obj
 0001:001cef60       ?run@?$_icmd_botlimit@$0BC@@ai@@SAXPAH@Z 005cff60 f   ai.obj
 0001:001cef80       ?run@?$_icmd_delbot@$0BB@@ai@@SAXXZ 005cff80 f   ai.obj
 0001:001cef90       ?run@?$_icmd_addbot@$0BA@@ai@@SAXPAD@Z 005cff90 f   ai.obj
 0001:001cefe0       ?setspawn@entities@@YAXH_N@Z 005cffe0 f   entities.obj
 0001:001cf010       ?spawnitems@entities@@YAX_N@Z 005d0010 f   entities.obj
 0001:001cf020       ?resetspawns@entities@@YAXXZ 005d0020 f   entities.obj
 0001:001cf050       ?putitems@entities@@YAXAAUpacketbuf@@@Z 005d0050 f   entities.obj
 0001:001cf080       ?trypickup@entities@@YAXHPAUgameent@@@Z 005d0080 f   entities.obj
 0001:001cf220       ?teleport@entities@@YAXHPAUgameent@@@Z 005d0220 f   entities.obj
 0001:001cf510       ?jumppadeffects@entities@@YAXPAUgameent@@H_N@Z 005d0510 f   entities.obj
 0001:001cf6a0       ?teleporteffects@entities@@YAXPAUgameent@@HH_N@Z 005d06a0 f   entities.obj
 0001:001cf8a0       ?pickupeffects@entities@@YAXHPAUgameent@@@Z 005d08a0 f   entities.obj
 0001:001cf8b0       ?renderentities@entities@@YAXXZ 005d08b0 f   entities.obj
 0001:001cf9f0       ?preloadentities@entities@@YAXXZ 005d09f0 f   entities.obj
 0001:001cfa90       ?entmdlname@entities@@YAPBDH@Z 005d0a90 f   entities.obj
 0001:001cfaa0       ?itemicon@entities@@YAHH@Z 005d0aa0 f   entities.obj
 0001:001cfab0       ?checkitems@entities@@YAXPAUgameent@@@Z 005d0ab0 f   entities.obj
 0001:001cfbc0       ?animatemapmodel@entities@@YAXABUextentity@@AAH1@Z 005d0bc0 f   entities.obj
 0001:001cfbd0       ?readent@entities@@YAXAAUentity@@PADH@Z 005d0bd0 f   entities.obj
 0001:001cfbe0       ?extraentinfosize@entities@@YAHXZ 005d0be0 f   entities.obj
 0001:001cfbf0       ?writeent@entities@@YAXAAUentity@@PAD@Z 005d0bf0 f   entities.obj
 0001:001cfc00       ?entname@entities@@YAPBDH@Z 005d0c00 f   entities.obj
 0001:001cfc20       ?entnameinfo@entities@@YAPBDAAUentity@@@Z 005d0c20 f   entities.obj
 0001:001cfc30       ?mayattach@entities@@YA_NAAUextentity@@@Z 005d0c30 f   entities.obj
 0001:001cfc40       ?attachent@entities@@YA_NAAUextentity@@0@Z 005d0c40 f   entities.obj
 0001:001cfc50       ?newentity@entities@@YAPAUextentity@@XZ 005d0c50 f   entities.obj
 0001:001cfce0       ?editent@entities@@YAXH_N@Z 005d0ce0 f   entities.obj
 0001:001cfd50       ?entmodel@entities@@YAPBDABUentity@@@Z 005d0d50 f   entities.obj
 0001:001cfd90       ?entradius@entities@@YAXAAUextentity@@_N@Z 005d0d90 f   entities.obj
 0001:001cfff0       ?fixentity@entities@@YAXAAUextentity@@@Z 005d0ff0 f   entities.obj
 0001:001d0030       ?deleteentity@entities@@YAXPAUextentity@@@Z 005d1030 f   entities.obj
 0001:001d0040       ?printent@entities@@YA_NAAUextentity@@PADH@Z 005d1040 f   entities.obj
 0001:001d0050       ?clearents@entities@@YAXXZ 005d1050 f   entities.obj
 0001:001d0090       ?dropheight@entities@@YAMAAUentity@@@Z 005d1090 f   entities.obj
 0001:001d00b0       ?getents@entities@@YAAAU?$vector@PAUextentity@@@@XZ 005d10b0 f   entities.obj
 0001:001d01d0       ?clientoption@game@@YA_NPBD@Z 005d11d0 f   game.obj
 0001:001d01e0       ?run@?$_icmd_servinfoicon@$0DHI@@game@@SAXPAH@Z 005d11e0 f   game.obj
 0001:001d02b0       ?run@?$_icmd_servinfotime@$0DHC@@game@@SAXPAH0@Z 005d12b0 f   game.obj
 0001:001d03b0       ?run@?$_icmd_servinfomastermodename@$0DGG@@game@@SAXPAH@Z 005d13b0 f   game.obj
 0001:001d04a0       ?run@?$_icmd_servinfomastermode@$0DGA@@game@@SAXPAH@Z 005d14a0 f   game.obj
 0001:001d04f0       ?run@?$_icmd_servinfomodename@$0DFP@@game@@SAXPAH@Z 005d14f0 f   game.obj
 0001:001d0590       ?run@?$_icmd_servinfomode@$0DFJ@@game@@SAXPAH@Z 005d1590 f   game.obj
 0001:001d05e0       ?mastermodeicon@game@@YAPBDHPBD@Z 005d15e0 f   game.obj
 0001:001d0600       ?mastermodecolor@game@@YAPBDHPBD@Z 005d1600 f   game.obj
 0001:001d0620       ?drawhudicons@game@@YAXPAUgameent@@@Z 005d1620 f   game.obj
 0001:001d0630       ?drawicon@game@@YAXHMMM@Z  005d1630 f   game.obj
 0001:001d0890       ?run@?$_icmd_suicide@$0CLF@@game@@SAXXZ 005d1890 f   game.obj
 0001:001d08a0       ?teamsound@game@@YAXPAUgameent@@HPBUvec@@@Z 005d18a0 f   game.obj
 0001:001d0930       ?teamsound@game@@YAX_NHPBUvec@@@Z 005d1930 f   game.obj
 0001:001d0990       ?teamcolor@game@@YAPBDPBD0H0@Z 005d1990 f   game.obj
 0001:001d09f0       ?teamcolorname@game@@YAPBDPAUgameent@@PBD@Z 005d19f0 f   game.obj
 0001:001d0a60       ?duplicatename@game@@YA_NPAUgameent@@PBD1@Z 005d1a60 f   game.obj
 0001:001d0b10       ?msgsound@game@@YAXHPAUphysent@@@Z 005d1b10 f   game.obj
 0001:001d0b80       ?startgame@game@@YAXXZ     005d1b80 f   game.obj
 0001:001d0e80       ?clearclients@game@@YAX_N@Z 005d1e80 f   game.obj
 0001:001d10c0       ?clientdisconnected@game@@YAXH_N@Z 005d20c0 f   game.obj
 0001:001d12c0       ?run@?$_icmd_gettotalshots@$0BNF@@game@@SAXXZ 005d22c0 f   game.obj
 0001:001d12e0       ?run@?$_icmd_gettotaldamage@$0BNE@@game@@SAXXZ 005d22e0 f   game.obj
 0001:001d1300       ?run@?$_icmd_getaccuracy@$0BND@@game@@SAXXZ 005d2300 f   game.obj
 0001:001d1340       ?run@?$_icmd_getdeaths@$0BNC@@game@@SAXXZ 005d2340 f   game.obj
 0001:001d1360       ?run@?$_icmd_getflags@$0BNB@@game@@SAXXZ 005d2360 f   game.obj
 0001:001d1380       ?run@?$_icmd_getfrags@$0BNA@@game@@SAXXZ 005d2380 f   game.obj
 0001:001d13a0       ?timeupdate@game@@YAXH@Z   005d23a0 f   game.obj
 0001:001d1530       ?killed@game@@YAXPAUgameent@@0@Z 005d2530 f   game.obj
 0001:001d1750       ?deathstate@game@@YAXPAUgameent@@_N@Z 005d2750 f   game.obj
 0001:001d1810       ?damaged@game@@YAXHPAUgameent@@0_N@Z 005d2810 f   game.obj
 0001:001d1ab0       ?taunt@game@@YAXXZ         005d2ab0 f   game.obj
 0001:001d1b00       ?run@?$_icmd_melee@$0BDA@@game@@SAXPAH@Z 005d2b00 f   game.obj
 0001:001d1b40       ?run@?$_icmd_shoot@$0BCP@@game@@SAXPAH@Z 005d2b40 f   game.obj
 0001:001d1b80       ?doaction@game@@YAXH@Z     005d2b80 f   game.obj
 0001:001d1bb0       ?respawn@game@@YAXXZ       005d2bb0 f   game.obj
 0001:001d1ce0       ?spawnplayer@game@@YAXPAUgameent@@@Z 005d2ce0 f   game.obj
 0001:001d1d80       ?otherplayers@game@@YAXH@Z 005d2d80 f   game.obj
 0001:001d1ff0       ?predictplayer@game@@YAXPAUgameent@@_N@Z 005d2ff0 f   game.obj
 0001:001d2130       ?run@?$_icmd_allowthirdperson@$0JE@@game@@SAXPAH@Z 005d3130 f   game.obj
 0001:001d2160       ?hudplayer@game@@YAPAUgameent@@XZ 005d3160 f   game.obj
 0001:001d21f0       ?respawnself@game@@YAXXZ   005d31f0 f   game.obj
 0001:001d22c0       ?spawnstate@game@@YAPAUgameent@@PAU2@@Z 005d32c0 f   game.obj
 0001:001d22e0       ?checkfollow@game@@YAXXZ   005d32e0 f   game.obj
 0001:001d2340       ?run@?$_icmd_nextfollow@$0EF@@game@@SAXPAH@Z 005d3340 f   game.obj
 0001:001d2360       ?nextfollow@game@@YAXH@Z   005d3360 f   game.obj
 0001:001d23e0       ?follow@game@@YAXPAD@Z     005d33e0 f   game.obj
 0001:001d2430       ?stopfollowing@game@@YAXXZ 005d3430 f   game.obj
 0001:001d2450       ?run@?$_icmd_getfollow@$0CA@@game@@SAXXZ 005d3450 f   game.obj
 0001:001d24b0       ?var_specmode@game@@YAXPAUident@@@Z 005d34b0 f   game.obj
 0001:001d24e0       ?followingplayer@game@@YAPAUgameent@@PAU2@@Z 005d34e0 f   game.obj
 0001:001d2520       ?newclient@game@@YAPAUgameent@@H@Z 005d3520 f   game.obj
 0001:001d26f0       ?colorname@game@@YAPBDPAUgameent@@PBD11@Z 005d36f0 f   game.obj
 0001:001d2810       ?getclient@game@@YAPAUgameent@@H@Z 005d3810 f   game.obj
 0001:001d2840       ?maxsoundradius@game@@YAHH@Z 005d3840 f   game.obj
 0001:001d2880       ?initclient@game@@YAXXZ    005d3880 f   game.obj
 0001:001d2920       ?gameconfig@game@@YAPBDXZ  005d3920 f   game.obj
 0001:001d2930       ?restoreconfig@game@@YAPBDXZ 005d3930 f   game.obj
 0001:001d2940       ?loadconfigs@game@@YAXXZ   005d3940 f   game.obj
 0001:001d2950       ?updateworld@game@@YAXXZ   005d3950 f   game.obj
 0001:001d2fd0       ?clipconsole@game@@YAMMM@Z 005d3fd0 f   game.obj
 0001:001d3000       ?savedconfig@game@@YAPBDXZ 005d4000 f   game.obj
 0001:001d3010       ?autoexec@game@@YAPBDXZ    005d4010 f   game.obj
 0001:001d3020       ?defaultconfig@game@@YAPBDXZ 005d4020 f   game.obj
 0001:001d3030       ?getscreenshotinfo@game@@YAPBDXZ 005d4030 f   game.obj
 0001:001d3050       ?setupcamera@game@@YAXXZ   005d4050 f   game.obj
 0001:001d3110       ?allowthirdperson@game@@YA_N_N@Z 005d4110 f   game.obj
 0001:001d3170       ?detachcamera@game@@YA_NXZ 005d4170 f   game.obj
 0001:001d31d0       ?collidecamera@game@@YA_NXZ 005d41d0 f   game.obj
 0001:001d3230       ?needminimap@game@@YA_NXZ  005d4230 f   game.obj
 0001:001d3250       ?defaultcrosshair@game@@YAPBDH@Z 005d4250 f   game.obj
 0001:001d3270       ?selectcrosshair@game@@YAHAAUvec@@@Z 005d4270 f   game.obj
 0001:001d33a0       ?gameplayhud@game@@YAXHH@Z 005d43a0 f   game.obj
 0001:001d3690       ?abovegameplayhud@game@@YAMHH@Z 005d4690 f   game.obj
 0001:001d36c0       ?savedservers@game@@YAPBDXZ 005d46c0 f   game.obj
 0001:001d36d0       ?writegamedata@game@@YAXAAU?$vector@D@@@Z 005d46d0 f   game.obj
 0001:001d36e0       ?getmapinfo@game@@YAPBDXZ  005d46e0 f   game.obj
 0001:001d3710       ?readgamedata@game@@YAXAAU?$vector@D@@@Z 005d4710 f   game.obj
 0001:001d3720       ?startmap@game@@YAXPBD@Z   005d4720 f   game.obj
 0001:001d3830       ?numdynents@game@@YAHXZ    005d4830 f   game.obj
 0001:001d3840       ?iterdynents@game@@YAPAUdynent@@H@Z 005d4840 f   game.obj
 0001:001d3860       ?dynentcollide@game@@YAXPAUphysent@@0ABUvec@@@Z 005d4860 f   game.obj
 0001:001d3870       ?allowmove@game@@YA_NPAUphysent@@@Z 005d4870 f   game.obj
 0001:001d38a0       ?physicstrigger@game@@YAXPAUphysent@@_NHHH@Z 005d48a0 f   game.obj
 0001:001d39f0       ?suicide@game@@YAXPAUphysent@@@Z 005d49f0 f   game.obj
 0001:001d3a80       ?canjump@game@@YA_NXZ      005d4a80 f   game.obj
 0001:001d3ab0       ?cancrouch@game@@YA_NXZ    005d4ab0 f   game.obj
 0001:001d3ae0       ?resetgamestate@game@@YAXXZ 005d4ae0 f   game.obj
 0001:001d3b00       ?getclientmap@game@@YAPBDXZ 005d4b00 f   game.obj
 0001:001d3b90       ?preloadsounds@game@@YAXXZ 005d4b90 f   render.obj
 0001:001d3bb0       ?preloadweapons@game@@YAXXZ 005d4bb0 f   render.obj
 0001:001d3ca0       ?hudgunorigin@game@@YA?AUvec@@HABU2@0PAUgameent@@@Z 005d4ca0 f   render.obj
 0001:001d3f90       ?drawhudgun@game@@YAXXZ    005d4f90 f   render.obj
 0001:001d4070       ?drawhudmodel@game@@YAXPAUgameent@@HH@Z 005d5070 f   render.obj
 0001:001d43b0       ?renderplayer@game@@YAXPAUgameent@@ABUplayermodelinfo@1@HHMH_N@Z 005d53b0 f   render.obj
 0001:001d4a40       ?preloadplayermodel@game@@YAXXZ 005d5a40 f   render.obj
 0001:001d4ae0       ?changedplayercolor@game@@YAXXZ 005d5ae0 f   render.obj
 0001:001d4b10       ?changedplayermodel@game@@YAXXZ 005d5b10 f   render.obj
 0001:001d4c90       ?getplayercolor@game@@YAHPAUgameent@@H@Z 005d5c90 f   render.obj
 0001:001d4d30       ?run@?$_icmd_getplayercolor@$0HJ@@game@@SAXPAH0@Z 005d5d30 f   render.obj
 0001:001d4da0       ?getplayercolor@game@@YAHHH@Z 005d5da0 f   render.obj
 0001:001d4de0       ?getplayermodelinfo@game@@YAABUplayermodelinfo@1@PAUgameent@@@Z 005d5de0 f   render.obj
 0001:001d4e30       ?getplayermodelinfo@game@@YAPBUplayermodelinfo@1@H@Z 005d5e30 f   render.obj
 0001:001d4e50       ?var_playermodel@game@@YAXPAUident@@@Z 005d5e50 f   render.obj
 0001:001d4fd0       ?var_playercolorrojo@game@@YAXPAUident@@@Z 005d5fd0 f   render.obj
 0001:001d5000       ?var_playercolorazul@game@@YAXPAUident@@@Z 005d6000 f   render.obj
 0001:001d5030       ?var_playercolor@game@@YAXPAUident@@@Z 005d6030 f   render.obj
 0001:001d5060       ?saveragdoll@game@@YAXPAUgameent@@@Z 005d6060 f   render.obj
 0001:001d5150       ?moveragdolls@game@@YAXXZ  005d6150 f   render.obj
 0001:001d51e0       ?swayhudgun@game@@YAXH@Z   005d61e0 f   render.obj
 0001:001d5450       ?clearragdolls@game@@YAXXZ 005d6450 f   render.obj
 0001:001d54a0       ?syncplayer@game@@YAXXZ    005d64a0 f   render.obj
 0001:001d5520       ?chooserandomplayermodel@game@@YAHH@Z 005d6520 f   render.obj
 0001:001d5530       ?renderplayerpreview@game@@YAXHHHH@Z 005d6530 f   render.obj
 0001:001d57a0       ?numanims@game@@YAHXZ      005d67a0 f   render.obj
 0001:001d57b0       ?findanims@game@@YAXPBDAAU?$vector@H@@@Z 005d67b0 f   render.obj
 0001:001d5870       ?rendergame@game@@YAXXZ    005d6870 f   render.obj
 0001:001d6260       ?renderavatar@game@@YAXXZ  005d7260 f   render.obj
 0001:001d6340       ?preload@game@@YAXXZ       005d7340 f   render.obj
 0001:001d6c40       ?run@?$_icmd_getteamscore@$0NJ@@game@@SAXPAH@Z 005d7c40 f   scoreboard.obj
 0001:001d6cc0       ?run@?$_icmd_scoreboardtime@$0NA@@game@@SAXXZ 005d7cc0 f   scoreboard.obj
 0001:001d6d60       ?run@?$_icmd_scoreboardmap@$0MD@@game@@SAXXZ 005d7d60 f   scoreboard.obj
 0001:001d6dc0       ?run@?$_icmd_scoreboardmode@$0LN@@game@@SAXXZ 005d7dc0 f   scoreboard.obj
 0001:001d6e30       ?run@?$_icmd_scoreboardservinfo@$0LI@@game@@SAXXZ 005d7e30 f   scoreboard.obj
 0001:001d6ec0       ?run@?$_icmd_scoreboardhighlight@$0KI@@game@@SAXPAH@Z 005d7ec0 f   scoreboard.obj
 0001:001d6f30       ?run@?$_icmd_scoreboardmultiplayer@$0KF@@game@@SAXXZ 005d7f30 f   scoreboard.obj
 0001:001d6f70       ?run@?$_icmd_scoreboardshowclientnum@$0KE@@game@@SAXXZ 005d7f70 f   scoreboard.obj
 0001:001d6fb0       ?run@?$_icmd_scoreboardshowfrags@$0KD@@game@@SAXXZ 005d7fb0 f   scoreboard.obj
 0001:001d6ff0       ?run@?$_icmd_scoreboardping@$0KB@@game@@SAXPAH@Z 005d7ff0 f   scoreboard.obj
 0001:001d7070       ?run@?$_icmd_scoreboardpj@$0JH@@game@@SAXPAH@Z 005d8070 f   scoreboard.obj
 0001:001d70f0       ?run@?$_icmd_scoreboardstatus@$0IN@@game@@SAXPAH@Z 005d80f0 f   scoreboard.obj
 0001:001d7170       ?run@?$_icmd_loopscoreboard@$0HO@@game@@SAXPAUident@@PAHPAI@Z 005d8170 f   scoreboard.obj
 0001:001d7200       ?run@?$_icmd_numscoreboard@$0HC@@game@@SAXPAH@Z 005d8200 f   scoreboard.obj
 0001:001d7250       ?refreshscoreboard@game@@YAXXZ 005d8250 f   scoreboard.obj
 0001:001d75d0       ?setteaminfo@game@@YAXHH@Z 005d85d0 f   scoreboard.obj
 0001:001d75e0       ?getbestteams@game@@YAXAAU?$vector@H@@@Z 005d85e0 f   scoreboard.obj
 0001:001d7770       ?getbestplayers@game@@YAXAAU?$vector@PAUgameent@@@@@Z 005d8770 f   scoreboard.obj
 0001:001d78d0       ?showscores@game@@YAX_N@Z  005d88d0 f   scoreboard.obj
 0001:001d7920       ?removegroupedplayer@game@@YAXPAUgameent@@@Z 005d8920 f   scoreboard.obj
 0001:001d79d0       ?clearteaminfo@game@@YAXXZ 005d89d0 f   scoreboard.obj
 0001:001d7ab0       ?run@?$_icmd_movewaypoints@$0DCE@@ai@@SAXPAH00@Z 005d8ab0 f   waypoint.obj
 0001:001d7c10       ?movewaypoints@ai@@YAXABUvec@@@Z 005d8c10 f   waypoint.obj
 0001:001d7d60       ?delselwaypoints@ai@@YAXXZ 005d8d60 f   waypoint.obj
 0001:001d7ea0       ?run@?$_icmd_savewaypoints@$0CPD@@ai@@SAXPAD@Z 005d8ea0 f   waypoint.obj
 0001:001d7eb0       ?run@?$_icmd_loadwaypoints@$0CNG@@ai@@SAXPAD@Z 005d8eb0 f   waypoint.obj
 0001:001d7ec0       ?getwaypointfile@ai@@YA_NPBDPAD@Z 005d8ec0 f   waypoint.obj
 0001:001d7f00       ?cleanwaypoints@ai@@YA_NXZ 005d8f00 f   waypoint.obj
 0001:001d7fd0       ?remapwaypoints@ai@@YAXXZ  005d8fd0 f   waypoint.obj
 0001:001d8230       ?seedwaypoints@ai@@YAXXZ   005d9230 f   waypoint.obj
 0001:001d8370       ?run@?$_icmd_clearwaypoints@$0CGB@@ai@@SAXXZ 005d9370 f   waypoint.obj
 0001:001d8390       ?navigate@ai@@YAXPAUgameent@@@Z 005d9390 f   waypoint.obj
 0001:001d8630       ?linkwaypoint@ai@@YAXAAUwaypoint@1@H@Z 005d9630 f   waypoint.obj
 0001:001d8760       ?addwaypoint@ai@@YAHABUvec@@H@Z 005d9760 f   waypoint.obj
 0001:001d8840       ?var_dropwaypoints@ai@@YAXPAUident@@@Z 005d9840 f   waypoint.obj
 0001:001d8870       ?buildwpcache@ai@@YAXXZ    005d9870 f   waypoint.obj
 0001:001d8940       ?run@?$_icmd_clearwpcache@$0LL@@ai@@SAXXZ 005d9940 f   waypoint.obj
 0001:001d8950       ?clearwpcache@ai@@YAX_N@Z  005d9950 f   waypoint.obj
 0001:001d8ae0       ?getweight@ai@@YAHABUvec@@@Z 005d9ae0 f   waypoint.obj
 0001:001d8c30       ?clipped@ai@@YA_NABUvec@@@Z 005d9c30 f   waypoint.obj
 0001:001d8c60       ?navigate@ai@@YAXXZ        005d9c60 f   waypoint.obj
 0001:001d8cd0       ?savewaypoints@ai@@YAX_NPBD@Z 005d9cd0 f   waypoint.obj
 0001:001d8e90       ?clearwaypoints@ai@@YAX_N@Z 005d9e90 f   waypoint.obj
 0001:001d8ec0       ?inferwaypoints@ai@@YAXPAUgameent@@ABUvec@@1M@Z 005d9ec0 f   waypoint.obj
 0001:001d9030       ?loadwaypoints@ai@@YAX_NPBD@Z 005da030 f   waypoint.obj
 0001:001d93d0       ?route@ai@@YA_NPAUgameent@@HHAAU?$vector@H@@ABUavoidset@1@H@Z 005da3d0 f   waypoint.obj
 0001:001d9bf0       ?closestwaypoint@ai@@YAHABUvec@@M_NPAUgameent@@@Z 005dabf0 f   waypoint.obj
 0001:001d9fe0       ?findwaypointswithin@ai@@YAXABUvec@@MMAAU?$vector@H@@@Z 005dafe0 f   waypoint.obj
 0001:001da430       ?remap@avoidset@ai@@QAEHPAUgameent@@HAAUvec@@_N@Z 005db430 f   waypoint.obj
 0001:001da610       ?avoidnear@avoidset@ai@@QAEXPAXMABUvec@@M@Z 005db610 f   waypoint.obj
 0001:001dac50       ?raydamage@game@@YAXAAUvec@@0PAUgameent@@H@Z 005dbc50 f   weapon.obj
 0001:001dafc0       ?shorten@game@@YAXABUvec@@AAU2@M@Z 005dbfc0 f   weapon.obj
 0001:001db010       ?shoteffects@game@@YAXHABUvec@@0PAUgameent@@_NHH@Z 005dc010 f   weapon.obj
 0001:001db280       ?railhit@game@@YAXABUvec@@0_N@Z 005dc280 f   weapon.obj
 0001:001db570       ?updateprojectiles@game@@YAXH@Z 005dc570 f   weapon.obj
 0001:001dbf50       ?projdamage@game@@YA_NPAUdynent@@AAUprojectile@1@ABUvec@@@Z 005dcf50 f   weapon.obj
 0001:001dc130       ?explodeeffects@game@@YAXHPAUgameent@@_NH@Z 005dd130 f   weapon.obj
 0001:001dc220       ?projsplash@game@@YAXAAUprojectile@1@ABUvec@@PAUdynent@@@Z 005dd220 f   weapon.obj
 0001:001dc260       ?pulsestain@game@@YAXABUprojectile@1@ABUvec@@@Z 005dd260 f   weapon.obj
 0001:001dc410       ?explode@game@@YAX_NPAUgameent@@ABUvec@@2PAUdynent@@HH@Z 005dd410 f   weapon.obj
 0001:001dc6d0       ?radialeffect@game@@YAXPAUdynent@@ABUvec@@1HPAUgameent@@H@Z 005dd6d0 f   weapon.obj
 0001:001dc8b0       ?projdist@game@@YAMPAUdynent@@AAUvec@@ABU3@2@Z 005dd8b0 f   weapon.obj
 0001:001dca10       ?hitpush@game@@YAXHPAUdynent@@PAUgameent@@AAUvec@@2HH@Z 005dda10 f   weapon.obj
 0001:001dcb40       ?hit@game@@YAXHPAUdynent@@PAUgameent@@ABUvec@@HMH@Z 005ddb40 f   weapon.obj
 0001:001dcee0       ?removeprojectiles@game@@YAXPAUgameent@@@Z 005ddee0 f   weapon.obj
 0001:001dcfa0       ?newprojectile@game@@YAXABUvec@@0M_NHPAUgameent@@H@Z 005ddfa0 f   weapon.obj
 0001:001dd1d0       ?removebouncers@game@@YAXPAUgameent@@@Z 005de1d0 f   weapon.obj
 0001:001dd240       ?updatebouncers@game@@YAXH@Z 005de240 f   weapon.obj
 0001:001dd390       ?createrays@game@@YAXHABUvec@@0@Z 005de390 f   weapon.obj
 0001:001dd6b0       ?offsetray@game@@YAXABUvec@@0HMAAU2@@Z 005de6b0 f   weapon.obj
 0001:001dd970       ?run@?$_icmd_weapon@$0HD@@game@@SAXPAUtagval@@H@Z 005de970 f   weapon.obj
 0001:001dda50       ?weaponswitch@game@@YAXPAUgameent@@@Z 005dea50 f   weapon.obj
 0001:001ddad0       ?run@?$_icmd_cycleweapon@$0FL@@game@@SAXPAUtagval@@H@Z 005dead0 f   weapon.obj
 0001:001ddc40       ?cycleweapon@game@@YAXHPAH_N@Z 005dec40 f   weapon.obj
 0001:001ddd20       ?run@?$_icmd_setweapon@$0ED@@game@@SAXPADPAH@Z 005ded20 f   weapon.obj
 0001:001ddd70       ?setweapon@game@@YAXPBD_N@Z 005ded70 f   weapon.obj
 0001:001dddc0       ?getweapon@game@@YAHPBD@Z  005dedc0 f   weapon.obj
 0001:001dde30       ?run@?$_icmd_nextweapon@$0CP@@game@@SAXPAH0@Z 005dee30 f   weapon.obj
 0001:001ddee0       ?nextweapon@game@@YAXH_N@Z 005deee0 f   weapon.obj
 0001:001ddf90       ?run@?$_icmd_getweapon@$0BG@@game@@SAXXZ 005def90 f   weapon.obj
 0001:001ddfb0       ?renderbouncers@game@@YAXXZ 005defb0 f   weapon.obj
 0001:001de110       ?renderprojectiles@game@@YAXXZ 005df110 f   weapon.obj
 0001:001de120       ?preloadbouncers@game@@YAXXZ 005df120 f   weapon.obj
 0001:001de130       ?clearprojectiles@game@@YAXXZ 005df130 f   weapon.obj
 0001:001de150       ?clearbouncers@game@@YAXXZ 005df150 f   weapon.obj
 0001:001de190       ?intersect@game@@YA_NPAUdynent@@ABUvec@@1MAAM@Z 005df190 f   weapon.obj
 0001:001de210       ?updateweapons@game@@YAXH@Z 005df210 f   weapon.obj
 0001:001de380       ?damageeffect@game@@YAXHPAUgameent@@_N@Z 005df380 f   weapon.obj
 0001:001de430       ?gibeffect@game@@YAXHABUvec@@PAUgameent@@@Z 005df430 f   weapon.obj
 0001:001de440       ?removeweapons@game@@YAXPAUgameent@@@Z 005df440 f   weapon.obj
 0001:001de570       ?intersectclosest@game@@YAPAUdynent@@ABUvec@@0PAUgameent@@MAAM@Z 005df570 f   weapon.obj
 0001:001de680       ?gunselect@game@@YAXHPAUgameent@@@Z 005df680 f   weapon.obj
 0001:001de6d0       ?shoot@game@@YAXPAUgameent@@ABUvec@@@Z 005df6d0 f   weapon.obj
 0001:001deb90       ?avoidweapons@game@@YAXAAUavoidset@ai@@M@Z 005dfb90 f   weapon.obj
 0001:001dec10       ?particletrack@game@@YAXPAUphysent@@AAUvec@@1@Z 005dfc10 f   weapon.obj
 0001:001dede0       ?adddynlights@game@@YAXXZ  005dfde0 f   weapon.obj
 0001:001def20       ?dynlighttrack@game@@YAXPAUphysent@@AAUvec@@1@Z 005dff20 f   weapon.obj
 0001:001defc0       ?bounced@game@@YAXPAUphysent@@ABUvec@@@Z 005dffc0 f   weapon.obj
 0001:001df3e0       ?gotosel@game@@YAXXZ       005e03e0 f   client1.obj
 0001:001df5a0       ?gotoplayer@game@@YAXPBD@Z 005e05a0 f   client1.obj
 0001:001df730       ?sendmap@game@@YAXXZ       005e0730 f   client1.obj
 0001:001df8b0       ?listdemos@game@@YAXXZ     005e08b0 f   client1.obj
 0001:001df8d0       ?run@?$_icmd_getdemo@$0IGB@@game@@SAXPAD0@Z 005e08d0 f   client1.obj
 0001:001dfaa0       ?getdemo@game@@YAXPAD0@Z   005e0aa0 f   client1.obj
 0001:001dfc70       ?run@?$_icmd_cleardemos@$0IEO@@game@@SAXPAH@Z 005e0c70 f   client1.obj
 0001:001dfca0       ?cleardemos@game@@YAXH@Z   005e0ca0 f   client1.obj
 0001:001dfcd0       ?run@?$_icmd_recorddemo@$0IEH@@game@@SAXPAH@Z 005e0cd0 f   client1.obj
 0001:001dfd00       ?recorddemo@game@@YAXH@Z   005e0d00 f   client1.obj
 0001:001dfd30       ?stopdemo@game@@YAXXZ      005e0d30 f   client1.obj
 0001:001dfd80       ?getmap@game@@YAXXZ        005e0d80 f   client1.obj
 0001:001dfdd0       ?receivefile@game@@YAXAAUpacketbuf@@@Z 005e0dd0 f   client1.obj
 0001:001e0130       ?parsemessages@game@@YAXHPAUgameent@@AAU?$databuf@E@@@Z 005e1130 f   client1.obj
 0001:001e3650       ?parsestate@game@@YAXPAUgameent@@AAU?$databuf@E@@_N@Z 005e4650 f   client1.obj
 0001:001e37d0       ?parsepositions@game@@YAXAAU?$databuf@E@@@Z 005e47d0 f   client1.obj
 0001:001e44a0       ?updatepos@game@@YAXPAUgameent@@@Z 005e54a0 f   client1.obj
 0001:001e45b0       ?sendintro@game@@YAXXZ     005e55b0 f   client1.obj
 0001:001e4960       ?sendmessages@game@@YAXXZ  005e5960 f   client1.obj
 0001:001e4c10       ?sendpositions@game@@YAXXZ 005e5c10 f   client1.obj
 0001:001e53f0       ?run@?$_icmd_servcmd@$0DNF@@game@@SAXPAD@Z 005e63f0 f   client1.obj
 0001:001e5410       ?sayteam@game@@YAXPAD@Z    005e6410 f   client1.obj
 0001:001e5480       ?chatcolorname@game@@YAPBDPAUgameent@@@Z 005e6480 f   client1.obj
 0001:001e54a0       ?run@?$_icmd_prettygamespeed@$0DFJ@@game@@SAXXZ 005e64a0 f   client1.obj
 0001:001e5520       ?run@?$_icmd_gamespeed@$0DFI@@game@@SAXPAH0PAUident@@@Z 005e6520 f   client1.obj
 0001:001e5600       ?changegamespeed@game@@YAXH@Z 005e6600 f   client1.obj
 0001:001e5660       ?run@?$_icmd_paused@$0DEH@@game@@SAXPAH0PAUident@@@Z 005e6660 f   client1.obj
 0001:001e56f0       ?run@?$_icmd_pausegame@$0DEB@@game@@SAXPAH@Z 005e66f0 f   client1.obj
 0001:001e5750       ?pausegame@game@@YAX_N@Z   005e6750 f   client1.obj
 0001:001e57a0       ?printvar@game@@YAXPAUgameent@@PAUident@@@Z 005e67a0 f   client1.obj
 0001:001e58b0       ?sendclipboard@game@@YAXXZ 005e68b0 f   client1.obj
 0001:001e5a80       ?run@?$_icmd_map@$0CIA@@game@@SAXPAD@Z 005e6a80 f   client1.obj
 0001:001e5ab0       ?changemap@game@@YAXPBDH@Z 005e6ab0 f   client1.obj
 0001:001e5bd0       ?run@?$_icmds_@$0CHB@@game@@SAXPAH@Z 005e6bd0 f   client1.obj
 0001:001e5c10       ?run@?$_icmds_@$0CHA@@game@@SAXPAH@Z 005e6c10 f   client1.obj
 0001:001e5c50       ?run@?$_icmds_@$0CGP@@game@@SAXPAH@Z 005e6c50 f   client1.obj
 0001:001e5c90       ?run@?$_icmds_@$0CGO@@game@@SAXPAH@Z 005e6c90 f   client1.obj
 0001:001e5cd0       ?run@?$_icmds_@$0CGN@@game@@SAXPAH@Z 005e6cd0 f   client1.obj
 0001:001e5d10       ?run@?$_icmds_@$0CGM@@game@@SAXPAH@Z 005e6d10 f   client1.obj
 0001:001e5d50       ?run@?$_icmds_@$0CGL@@game@@SAXPAH@Z 005e6d50 f   client1.obj
 0001:001e5d90       ?run@?$_icmds_@$0CGK@@game@@SAXPAH@Z 005e6d90 f   client1.obj
 0001:001e5dd0       ?run@?$_icmd_intermission@$0CGI@@game@@SAXXZ 005e6dd0 f   client1.obj
 0001:001e5df0       ?run@?$_icmd_timeremaining@$0CGH@@game@@SAXPAH@Z 005e6df0 f   client1.obj
 0001:001e5e70       ?run@?$_icmd_getmodeprettyname@$0CGB@@game@@SAXPAH@Z 005e6e70 f   client1.obj
 0001:001e5ee0       ?run@?$_icmd_getmodename@$0CGA@@game@@SAXPAH@Z 005e6ee0 f   client1.obj
 0001:001e5f50       ?run@?$_icmd_getnextmode@$0CFP@@game@@SAXXZ 005e6f50 f   client1.obj
 0001:001e5f80       ?run@?$_icmd_getmode@$0CFO@@game@@SAXXZ 005e6f80 f   client1.obj
 0001:001e5fa0       ?run@?$_icmd_mode@$0CFN@@game@@SAXPAH@Z 005e6fa0 f   client1.obj
 0001:001e6020       ?setmode@game@@YAXH@Z      005e7020 f   client1.obj
 0001:001e60a0       ?changemapserv@game@@YAXPBDH@Z 005e70a0 f   client1.obj
 0001:001e61b0       ?run@?$_icmd_checkmaps@$0CDJ@@game@@SAXXZ 005e71b0 f   client1.obj
 0001:001e61c0       ?run@?$_icmd_spectator@$0CDH@@game@@SAXPAHPAD@Z 005e71c0 f   client1.obj
 0001:001e6200       ?togglespectator@game@@YAXHPBD@Z 005e7200 f   client1.obj
 0001:001e6240       ?run@?$_icmd_getservauth@$0CDA@@game@@SAXXZ 005e7240 f   client1.obj
 0001:001e6290       ?run@?$_icmd_dauth@$0CCO@@game@@SAXPAD@Z 005e7290 f   client1.obj
 0001:001e62c0       ?run@?$_icmd_sauth@$0CCN@@game@@SAXXZ 005e72c0 f   client1.obj
 0001:001e6300       ?run@?$_icmd_auth@$0CCM@@game@@SAXPAD@Z 005e7300 f   client1.obj
 0001:001e6330       ?tryauth@game@@YA_NPBD@Z   005e7330 f   client1.obj
 0001:001e6360       ?run@?$_icmd_mastermode@$0CCC@@game@@SAXPAH@Z 005e7360 f   client1.obj
 0001:001e6380       ?setmaster@game@@YAXPBD0@Z 005e7380 f   client1.obj
 0001:001e6470       ?hashpwd@game@@YAXPBD@Z    005e7470 f   client1.obj
 0001:001e6520       ?setteam@game@@YAXPBD0@Z   005e7520 f   client1.obj
 0001:001e6580       ?run@?$_icmd_isignored@$0BPK@@game@@SAXPAD@Z 005e7580 f   client1.obj
 0001:001e65d0       ?run@?$_icmd_unignore@$0BPJ@@game@@SAXPAD@Z 005e75d0 f   client1.obj
 0001:001e65e0       ?run@?$_icmd_ignore@$0BPI@@game@@SAXPAD@Z 005e75e0 f   client1.obj
 0001:001e6680       ?isignored@game@@YA_NH@Z   005e7680 f   client1.obj
 0001:001e66b0       ?ignore@game@@YAXH@Z       005e76b0 f   client1.obj
 0001:001e6750       ?run@?$_icmd_dauthkick@$0BOC@@game@@SAXPBD00@Z 005e7750 f   client1.obj
 0001:001e6770       ?run@?$_icmd_sauthkick@$0BOB@@game@@SAXPBD0@Z 005e7770 f   client1.obj
 0001:001e67d0       ?run@?$_icmd_authkick@$0BOA@@game@@SAXPBD0@Z 005e77d0 f   client1.obj
 0001:001e6830       ?authkick@game@@YAXPBD00@Z 005e7830 f   client1.obj
 0001:001e6880       ?kick@game@@YAXPBD0@Z      005e7880 f   client1.obj
 0001:001e68b0       ?clearbans@game@@YAXXZ     005e78b0 f   client1.obj
 0001:001e68c0       ?run@?$_icmd_listclients@$0BMH@@game@@SAXPAH0@Z 005e78c0 f   client1.obj
 0001:001e68e0       ?listclients@game@@YAX_N0@Z 005e78e0 f   client1.obj
 0001:001e6c60       ?run@?$_icmd_getclientnum@$0BLB@@game@@SAXPAD@Z 005e7c60 f   client1.obj
 0001:001e6ca0       ?run@?$_icmd_isai@$0BJI@@game@@SAXPAH0@Z 005e7ca0 f   client1.obj
 0001:001e6d10       ?isai@game@@YA_NHH@Z       005e7d10 f   client1.obj
 0001:001e6d60       ?run@?$_icmd_isdead@$0BJA@@game@@SAXPAH@Z 005e7d60 f   client1.obj
 0001:001e6db0       ?run@?$_icmd_islagged@$0BIK@@game@@SAXPAH@Z 005e7db0 f   client1.obj
 0001:001e6e00       ?run@?$_icmd_isspectator@$0BIE@@game@@SAXPAH@Z 005e7e00 f   client1.obj
 0001:001e6e60       ?isspectator@game@@YA_NH@Z 005e7e60 f   client1.obj
 0001:001e6ea0       ?run@?$_icmd_getmastermodename@$0BHN@@game@@SAXPAH@Z 005e7ea0 f   client1.obj
 0001:001e6f10       ?run@?$_icmd_getmastermode@$0BHM@@game@@SAXXZ 005e7f10 f   client1.obj
 0001:001e6f30       ?run@?$_icmd_isadmin@$0BHK@@game@@SAXPAH@Z 005e7f30 f   client1.obj
 0001:001e6f90       ?isadmin@game@@YA_NH@Z     005e7f90 f   client1.obj
 0001:001e6fd0       ?run@?$_icmd_isauth@$0BHD@@game@@SAXPAH@Z 005e7fd0 f   client1.obj
 0001:001e7030       ?isauth@game@@YA_NH@Z      005e8030 f   client1.obj
 0001:001e7070       ?run@?$_icmd_ismaster@$0BGM@@game@@SAXPAH@Z 005e8070 f   client1.obj
 0001:001e70d0       ?ismaster@game@@YA_NH@Z    005e80d0 f   client1.obj
 0001:001e7110       ?run@?$_icmd_getclientdeaths@$0BGF@@game@@SAXPAH@Z 005e8110 f   client1.obj
 0001:001e7150       ?run@?$_icmd_getclientflags@$0BFP@@game@@SAXPAH@Z 005e8150 f   client1.obj
 0001:001e7190       ?run@?$_icmd_getclientfrags@$0BFJ@@game@@SAXPAH@Z 005e8190 f   client1.obj
 0001:001e71d0       ?run@?$_icmd_getclientcolor@$0BFD@@game@@SAXPAH@Z 005e81d0 f   client1.obj
 0001:001e7260       ?getclientcolor@game@@YAHH@Z 005e8260 f   client1.obj
 0001:001e72d0       ?run@?$_icmd_getclienticon@$0BEM@@game@@SAXPAH@Z 005e82d0 f   client1.obj
 0001:001e7390       ?getclienticon@game@@YAPBDH@Z 005e8390 f   client1.obj
 0001:001e7410       ?run@?$_icmd_getclientmodel@$0BED@@game@@SAXPAH@Z 005e8410 f   client1.obj
 0001:001e7470       ?getclientmodel@game@@YAHH@Z 005e8470 f   client1.obj
 0001:001e74a0       ?run@?$_icmd_getclientteam@$0BDM@@game@@SAXPAH@Z 005e84a0 f   client1.obj
 0001:001e7510       ?getclientteam@game@@YAHH@Z 005e8510 f   client1.obj
 0001:001e7570       ?run@?$_icmd_getclientcolorname@$0BDF@@game@@SAXPAH@Z 005e8570 f   client1.obj
 0001:001e75c0       ?run@?$_icmd_getclientname@$0BCP@@game@@SAXPAH@Z 005e85c0 f   client1.obj
 0001:001e7640       ?getclientname@game@@YAPBDH@Z 005e8640 f   client1.obj
 0001:001e7680       ?saveauthkeys@game@@YAXXZ  005e8680 f   client1.obj
 0001:001e7760       ?getpubkey@game@@YAXPBD@Z  005e8760 f   client1.obj
 0001:001e7840       ?genauthkey@game@@YAXPBD@Z 005e8840 f   client1.obj
 0001:001e7930       ?run@?$_icmd_hasauthkey@$0OD@@game@@SAXPAD0@Z 005e8930 f   client1.obj
 0001:001e7a10       ?hasauthkey@game@@YA_NPBD0@Z 005e8a10 f   client1.obj
 0001:001e7ac0       ?run@?$_icmd_authkey@$0NK@@game@@SAXPAD00@Z 005e8ac0 f   client1.obj
 0001:001e7ae0       ?addauthkey@game@@YAXPBD00@Z 005e8ae0 f   client1.obj
 0001:001e7df0       ?findauthkey@game@@YAPAUauthkey@1@PBD@Z 005e8df0 f   client1.obj
 0001:001e7ee0       ?run@?$_icmd_getteamname@$0LG@@game@@SAXPAH@Z 005e8ee0 f   client1.obj
 0001:001e7f40       ?run@?$_icmd_getteam@$0LF@@game@@SAXXZ 005e8f40 f   client1.obj
 0001:001e7f90       ?run@?$_icmd_team@$0LE@@game@@SAXPADPAH@Z 005e8f90 f   client1.obj
 0001:001e80c0       ?printteam@game@@YAXXZ     005e90c0 f   client1.obj
 0001:001e8120       ?switchteam@game@@YAXPBD@Z 005e9120 f   client1.obj
 0001:001e8180       ?run@?$_icmd_getname@$0KB@@game@@SAXXZ 005e9180 f   client1.obj
 0001:001e81e0       ?run@?$_icmd_name@$0KA@@game@@SAXPADPAH@Z 005e91e0 f   client1.obj
 0001:001e82a0       ?printname@game@@YAXXZ     005e92a0 f   client1.obj
 0001:001e82d0       ?switchname@game@@YAXPBD@Z 005e92d0 f   client1.obj
 0001:001e8350       ?run@?$_icmd_dropflag@$0DIO@@game@@SAXXZ 005e9350 f   client1.obj
 0001:001e83b0       ?drawteammates@game@@YAXPAUgameent@@MMM@Z 005e93b0 f   client1.obj
 0001:001e8660       ?drawplayerblip@game@@YAXPAUgameent@@MMMM@Z 005e9660 f   client1.obj
 0001:001e87a0       ?setbliptex@game@@YAXHPBD@Z 005e97a0 f   client1.obj
 0001:001e8800       ?drawteammate@game@@YAXPAUgameent@@MMM0MM@Z 005e9800 f   client1.obj
 0001:001e8b80       ?drawradar@game@@YAXMMM@Z  005e9b80 f   client1.obj
 0001:001e8d70       ?setradartex@game@@YAXXZ   005e9d70 f   client1.obj
 0001:001e8da0       ?drawminimap@game@@YAXPAUgameent@@MMM@Z 005e9da0 f   client1.obj
 0001:001e8ff0       ?calcradarscale@game@@YAMXZ 005e9ff0 f   client1.obj
 0001:001e9030       ?parseplayer@game@@YAHPBD@Z 005ea030 f   client1.obj
 0001:001e9120       ?c2sinfo@game@@YAX_N@Z     005ea120 f   client1.obj
 0001:001e92c0       ?unignore@game@@YAXH@Z     005ea2c0 f   client1.obj
 0001:001e9340       ?setclientmode@game@@YAXXZ 005ea340 f   client1.obj
 0001:001e9370       ?sendmapinfo@game@@YAXXZ   005ea370 f   client1.obj
 0001:001e93b0       ?sendposition@game@@YAXPAUgameent@@_N@Z 005ea3b0 f   client1.obj
 0001:001e94a0       ?addmsg@game@@YA_NHPBDZZ   005ea4a0 f   client1.obj
 0001:001e9900       ?changemap@game@@YAXPBD@Z  005ea900 f   client1.obj
 0001:001e9920       ?ispaused@game@@YA_NXZ     005ea920 f   client1.obj
 0001:001e9930       ?toserver@game@@YAXPAD@Z   005ea930 f   client1.obj
 0001:001e9990       ?vartrigger@game@@YAXPAUident@@@Z 005ea990 f   client1.obj
 0001:001e9a50       ?writeclientinfo@game@@YAXPAUstream@@@Z 005eaa50 f   client1.obj
 0001:001e9a80       ?allowmouselook@game@@YA_NXZ 005eaa80 f   client1.obj
 0001:001e9ac0       ?connectfail@game@@YAXXZ   005eaac0 f   client1.obj
 0001:001e9ae0       ?connectattempt@game@@YAXPBD0ABU_ENetAddress@@@Z 005eaae0 f   client1.obj
 0001:001e9b20       ?gamedisconnect@game@@YAX_N@Z 005eab20 f   client1.obj
 0001:001e9c30       ?parsepacketclient@game@@YAXHAAUpacketbuf@@@Z 005eac30 f   client1.obj
 0001:001e9c70       ?gameconnect@game@@YAX_N@Z 005eac70 f   client1.obj
 0001:001e9c80       ?forceedit@game@@YAXPBD@Z  005eac80 f   client1.obj
 0001:001e9c90       ?newmap@game@@YAXH@Z       005eac90 f   client1.obj
 0001:001e9cb0       ?scaletime@game@@YAHH@Z    005eacb0 f   client1.obj
 0001:001e9cc0       ?allowedittoggle@game@@YA_NXZ 005eacc0 f   client1.obj
 0001:001e9d40       ?edittoggled@game@@YAX_N@Z 005ead40 f   client1.obj
 0001:001e9df0       ?edittrigger@game@@YAXABUselinfo@@HHHHPBUVSlot@@@Z 005eadf0 f   client1.obj
 0001:001ea850       ?changeteam@aiman@server@@YAXPAUclientinfo@2@@Z 005eb850 f   server1.obj
 0001:001ea870       ?addclient@aiman@server@@YAXPAUclientinfo@2@@Z 005eb870 f   server1.obj
 0001:001ea890       ?changemap@aiman@server@@YAXXZ 005eb890 f   server1.obj
 0001:001ea930       ?setbotbalance@aiman@server@@YAXPAUclientinfo@2@_N@Z 005eb930 f   server1.obj
 0001:001ea9a0       ?setbotlimit@aiman@server@@YAXPAUclientinfo@2@H@Z 005eb9a0 f   server1.obj
 0001:001eaa10       ?reqdel@aiman@server@@YAXPAUclientinfo@2@@Z 005eba10 f   server1.obj
 0001:001eaa70       ?reqadd@aiman@server@@YAXPAUclientinfo@2@H@Z 005eba70 f   server1.obj
 0001:001eaad0       ?checkai@aiman@server@@YAXXZ 005ebad0 f   server1.obj
 0001:001eac20       ?clearai@aiman@server@@YAXXZ 005ebc20 f   server1.obj
 0001:001ead20       ?checksetup@aiman@server@@YAXXZ 005ebd20 f   server1.obj
 0001:001eaed0       ?reassignai@aiman@server@@YA_NXZ 005ebed0 f   server1.obj
 0001:001eafa0       ?removeai@aiman@server@@YAXPAUclientinfo@2@@Z 005ebfa0 f   server1.obj
 0001:001eafd0       ?shiftai@aiman@server@@YAXPAUclientinfo@2@0@Z 005ebfd0 f   server1.obj
 0001:001eb090       ?reinitai@aiman@server@@YAXPAUclientinfo@2@@Z 005ec090 f   server1.obj
 0001:001eb200       ?deleteai@aiman@server@@YA_NXZ 005ec200 f   server1.obj
 0001:001eb2f0       ?deleteai@aiman@server@@YAXPAUclientinfo@2@@Z 005ec2f0 f   server1.obj
 0001:001eb3c0       ?addai@aiman@server@@YA_NHH@Z 005ec3c0 f   server1.obj
 0001:001eb680       ?findaiclient@aiman@server@@YAPAUclientinfo@2@PAU32@@Z 005ec680 f   server1.obj
 0001:001eb740       ?chooseteam@aiman@server@@YAHXZ 005ec740 f   server1.obj
 0001:001eb7d0       ?balanceteams@aiman@server@@YAXXZ 005ec7d0 f   server1.obj
 0001:001eba80       ?calcteams@aiman@server@@YAXAAU?$vector@Uteamscore@@@@@Z 005eca80 f   server1.obj
 0001:001ebc90       ?extserverinforeply@server@@YAXAAU?$databuf@E@@0@Z 005ecc90 f   server1.obj
 0001:001ebe50       ?extinfoteams@server@@YAXAAU?$databuf@E@@@Z 005ece50 f   server1.obj
 0001:001ec140       ?extinfoplayer@server@@YAXAAU?$databuf@E@@PAUclientinfo@1@@Z 005ed140 f   server1.obj
 0001:001ec340       ?connected@server@@YAXPAUclientinfo@1@@Z 005ed340 f   server1.obj
 0001:001ec6f0       ?sendclipboard@server@@YAXPAUclientinfo@1@@Z 005ed6f0 f   server1.obj
 0001:001ec7f0       ?receivefile@server@@YAXHPAEH@Z 005ed7f0 f   server1.obj
 0001:001ec8c0       ?answerchallenge@server@@YA_NPAUclientinfo@1@IPADPBD@Z 005ed8c0 f   server1.obj
 0001:001ecd30       ?tryauth@server@@YA_NPAUclientinfo@1@PBD1@Z 005edd30 f   server1.obj
 0001:001ed240       ?authchallenged@server@@YAXIPBD0@Z 005ee240 f   server1.obj
 0001:001ed2a0       ?authsucceeded@server@@YAXI@Z 005ee2a0 f   server1.obj
 0001:001ed390       ?authfailed@server@@YAXI@Z 005ee390 f   server1.obj
 0001:001ed430       ?authfailed@server@@YAXPAUclientinfo@1@@Z 005ee430 f   server1.obj
 0001:001ed4a0       ?findauth@server@@YAPAUclientinfo@1@I@Z 005ee4a0 f   server1.obj
 0001:001ed4e0       ?allowconnect@server@@YAHPAUclientinfo@1@PBD@Z 005ee4e0 f   server1.obj
 0001:001ed600       ?run@?$_icmd_ipban@$0KGA@@server@@SAXPBD@Z 005ee600 f   server1.obj
 0001:001ed610       ?run@?$_icmd_clearipbans@$0KFP@@server@@SAXXZ 005ee610 f   server1.obj
 0001:001ed630       ?verifybans@server@@YAXXZ  005ee630 f   server1.obj
 0001:001ed6b0       ?checkbans@server@@YA_NI@Z 005ee6b0 f   server1.obj
 0001:001ed730       ?noclients@server@@YAXXZ   005ee730 f   server1.obj
 0001:001ed750       ?sendservinfo@server@@YAXPAUclientinfo@1@@Z 005ee750 f   server1.obj
 0001:001ed790       ?unspectate@server@@YAXPAUclientinfo@1@@Z 005ee790 f   server1.obj
 0001:001ed840       ?shouldspectate@server@@YA_NPAUclientinfo@1@@Z 005ee840 f   server1.obj
 0001:001ed870       ?checkmaps@server@@YAXH@Z  005ee870 f   server1.obj
 0001:001edcb0       ?forcespectator@server@@YAXPAUclientinfo@1@@Z 005eecb0 f   server1.obj
 0001:001edd30       ?cleartimedevents@server@@YAXPAUclientinfo@1@@Z 005eed30 f   server1.obj
 0001:001ede30       ?processevents@server@@YAXXZ 005eee30 f   server1.obj
 0001:001edee0       ?flushevents@server@@YAXPAUclientinfo@1@H@Z 005eeee0 f   server1.obj
 0001:001edf60       ?clearevent@server@@YAXPAUclientinfo@1@@Z 005eef60 f   server1.obj
 0001:001edfc0       ?flush@timedevent@server@@UAE_NPAUclientinfo@2@H@Z 005eefc0 f   server1.obj
 0001:001edff0       ?flush@gameevent@server@@UAE_NPAUclientinfo@2@H@Z 005eeff0 f   server1.obj
 0001:001ee000       ?process@pickupevent@server@@UAEXPAUclientinfo@2@@Z 005ef000 f   server1.obj
 0001:001ee100       ?process@shotevent@server@@UAEXPAUclientinfo@2@@Z 005ef100 f   server1.obj
 0001:001ee3a0       ?process@explodeevent@server@@UAEXPAUclientinfo@2@@Z 005ef3a0 f   server1.obj
 0001:001ee570       ?process@suicideevent@server@@UAEXPAUclientinfo@2@@Z 005ef570 f   server1.obj
 0001:001ee580       ?suicide@server@@YAXPAUclientinfo@1@@Z 005ef580 f   server1.obj
 0001:001ee650       ?dodamage@server@@YAXPAUclientinfo@1@0HHABUvec@@@Z 005ef650 f   server1.obj
 0001:001eeb30       ?startintermission@server@@YAXXZ 005efb30 f   server1.obj
 0001:001eebc0       ?checkintermission@server@@YAX_N@Z 005efbc0 f   server1.obj
 0001:001eec50       ?checkovertime@server@@YA_NXZ 005efc50 f   server1.obj
 0001:001eeeb0       ?vote@server@@YAXPBDHH@Z   005efeb0 f   server1.obj
 0001:001ef0d0       ?checkvotes@server@@YAX_N@Z 005f00d0 f   server1.obj
 0001:001ef3f0       ?rotatemap@server@@YAX_N@Z 005f03f0 f   server1.obj
 0001:001ef540       ?changemap@server@@YAXPBDH@Z 005f0540 f   server1.obj
 0001:001efb40       ?loaditems@server@@YAXXZ   005f0b40 f   server1.obj
 0001:001efba0       ?sendinitclient@server@@YAXPAUclientinfo@1@@Z 005f0ba0 f   server1.obj
 0001:001efc80       ?sendresume@server@@YAXPAUclientinfo@1@@Z 005f0c80 f   server1.obj
 0001:001efce0       ?restorescore@server@@YA_NPAUclientinfo@1@@Z 005f0ce0 f   server1.obj
 0001:001efd60       ?welcomepacket@server@@YAHAAUpacketbuf@@PAUclientinfo@1@@Z 005f0d60 f   server1.obj
 0001:001f02d0       ?hasmap@server@@YA_NPAUclientinfo@1@@Z 005f12d0 f   server1.obj
 0001:001f03b0       ?welcomeinitclient@server@@YAXAAUpacketbuf@@H@Z 005f13b0 f   server1.obj
 0001:001f04c0       ?putinitclient@server@@YAXPAUclientinfo@1@AAUpacketbuf@@@Z 005f14c0 f   server1.obj
 0001:001f0590       ?sendwelcome@server@@YAXPAUclientinfo@1@@Z 005f1590 f   server1.obj
 0001:001f0680       ?sendspawn@server@@YAXPAUclientinfo@1@@Z 005f1680 f   server1.obj
 0001:001f06d0       ?spawnstate@server@@YAXPAUclientinfo@1@@Z 005f16d0 f   server1.obj
 0001:001f06f0       ?buildworldstate@server@@YA_NXZ 005f16f0 f   server1.obj
 0001:001f1860       ?flushclientposition@server@@YAXAAUclientinfo@1@@Z 005f2860 f   server1.obj
 0001:001f1970       ?cleanworldstate@server@@YAXPAU_ENetPacket@@@Z 005f2970 f   server1.obj
 0001:001f1a10       ?checktype@server@@YAHHPAUclientinfo@1@@Z 005f2a10 f   server1.obj
 0001:001f1b10       ?savescore@server@@YAXPAUclientinfo@1@@Z 005f2b10 f   server1.obj
 0001:001f1b30       ?findscore@server@@YAPAUsavedscore@1@PAUclientinfo@1@_N@Z 005f2b30 f   server1.obj
 0001:001f1dd0       ?trykick@server@@YA_NPAUclientinfo@1@HPBD11H_N@Z 005f2dd0 f   server1.obj
 0001:001f1f90       ?setmaster@server@@YA_NPAUclientinfo@1@_NPBD22H11@Z 005f2f90 f   server1.obj
 0001:001f26c0       ?revokemaster@server@@YAXPAUclientinfo@1@@Z 005f36c0 f   server1.obj
 0001:001f26f0       ?checkpassword@server@@YA_NPAUclientinfo@1@PBD1@Z 005f36f0 f   server1.obj
 0001:001f2770       ?clearusers@server@@YAXXZ  005f3770 f   server1.obj
 0001:001f27c0       ?adduser@server@@YAXPAD000@Z 005f37c0 f   server1.obj
 0001:001f2aa0       ?changegamespeed@server@@YAXHPAUclientinfo@1@@Z 005f3aa0 f   server1.obj
 0001:001f2af0       ?checkpausegame@server@@YAXXZ 005f3af0 f   server1.obj
 0001:001f2b70       ?pausegame@server@@YAX_NPAUclientinfo@1@@Z 005f3b70 f   server1.obj
 0001:001f2bb0       ?run@?$_icmd_seekdemo@$0EPD@@server@@SAXPADPAHPAUident@@@Z 005f3bb0 f   server1.obj
 0001:001f2e10       ?seekdemo@server@@YAXPAD@Z 005f3e10 f   server1.obj
 0001:001f2f60       ?readdemo@server@@YAXXZ    005f3f60 f   server1.obj
 0001:001f3060       ?setupdemoplayback@server@@YAXXZ 005f4060 f   server1.obj
 0001:001f32a0       ?enddemoplayback@server@@YAXXZ 005f42a0 f   server1.obj
 0001:001f3340       ?senddemo@server@@YAXPAUclientinfo@1@HH@Z 005f4340 f   server1.obj
 0001:001f3420       ?cleardemos@server@@YAXH@Z 005f4420 f   server1.obj
 0001:001f3520       ?listdemos@server@@YAXH@Z  005f4520 f   server1.obj
 0001:001f36d0       ?setupdemorecord@server@@YAXXZ 005f46d0 f   server1.obj
 0001:001f3810       ?writedemo@server@@YAXHPAXH@Z 005f4810 f   server1.obj
 0001:001f3880       ?enddemorecord@server@@YAXXZ 005f4880 f   server1.obj
 0001:001f3990       ?adddemo@server@@YAXXZ     005f4990 f   server1.obj
 0001:001f3bd0       ?prunedemos@server@@YAXH@Z 005f4bd0 f   server1.obj
 0001:001f3c80       ?chooseworstteam@server@@YAHPAUclientinfo@1@@Z 005f4c80 f   server1.obj
 0001:001f3dc0       ?autoteam@server@@YAXXZ    005f4dc0 f   server1.obj
 0001:001f4150       ?choosebestclient@server@@YAPAUclientinfo@1@AAM@Z 005f5150 f   server1.obj
 0001:001f41e0       ?clearteaminfo@server@@YAXXZ 005f51e0 f   server1.obj
 0001:001f4200       ?pickup@server@@YA_NHH@Z   005f5200 f   server1.obj
 0001:001f42c0       ?spawntime@server@@YAHH@Z  005f52c0 f   server1.obj
 0001:001f42d0       ?canspawnitem@server@@YA_NH@Z 005f52d0 f   server1.obj
 0001:001f42e0       ?colorname@server@@YAPBDPAUclientinfo@1@PBD@Z 005f52e0 f   server1.obj
 0001:001f43b0       ?duplicatename@server@@YA_NPAUclientinfo@1@PBD@Z 005f53b0 f   server1.obj
 0001:001f4420       ?numclients@server@@YAHH_N00@Z 005f5420 f   server1.obj
 0001:001f4490       ?serveroption@server@@YA_NPBD@Z 005f5490 f   server1.obj
 0001:001f44a0       ?resetitems@server@@YAXXZ  005f54a0 f   server1.obj
 0001:001f44c0       ?sendservmsgf@server@@YAXPBDZZ 005f54c0 f   server1.obj
 0001:001f4520       ?privname@server@@YAPBDH@Z 005f5520 f   server1.obj
 0001:001f4550       ?getinfo@server@@YAPAUclientinfo@1@H@Z 005f5550 f   server1.obj
 0001:001f4590       ?checkteamkills@server@@YAXXZ 005f5590 f   server1.obj
 0001:001f4670       ?addteamkill@server@@YAXPAUclientinfo@1@0H@Z 005f5670 f   server1.obj
 0001:001f47c0       ?addteamkillkick@server@@YAXPADPAH1@Z 005f57c0 f   server1.obj
 0001:001f4950       ?teamkillkickreset@server@@YAXXZ 005f5950 f   server1.obj
 0001:001f4960       ?var_publicserver@server@@YAXPAUident@@@Z 005f5960 f   server1.obj
 0001:001f49a0       ?var_autorecorddemo@server@@YAXPAUident@@@Z 005f59a0 f   server1.obj
 0001:001f49b0       ?addmaprotations@server@@YAXPAUtagval@@H@Z 005f59b0 f   server1.obj
 0001:001f4c40       ?addmaprotation@server@@YA_NHPBD@Z 005f5c40 f   server1.obj
 0001:001f4d30       ?genmodemask@server@@YAHAAU?$vector@PAD@@@Z 005f5d30 f   server1.obj
 0001:001f4ea0       ?searchmodename@server@@YA_NPBD0@Z 005f5ea0 f   server1.obj
 0001:001f4f20       ?findmaprotation@server@@YAHHPBD@Z 005f5f20 f   server1.obj
 0001:001f51d0       ?nextmaprotation@server@@YAXXZ 005f61d0 f   server1.obj
 0001:001f5220       ?maprotationreset@server@@YAXXZ 005f6220 f   server1.obj
 0001:001f5240       ?kickclients@server@@YAXIPAUclientinfo@1@H@Z 005f6240 f   server1.obj
 0001:001f52e0       ?addban@server@@YAXIH@Z    005f62e0 f   server1.obj
 0001:001f53f0       ?hashpassword@server@@YAXHHPBDPADH@Z 005f63f0 f   server1.obj
 0001:001f5440       ?forcemap@server@@YAXPBDH@Z 005f6440 f   server1.obj
 0001:001f5510       ?forcepaused@server@@YAX_N@Z 005f6510 f   server1.obj
 0001:001f5540       ?forcegamespeed@server@@YAXH@Z 005f6540 f   server1.obj
 0001:001f5580       ?msgsizelookup@server@@YAHH@Z 005f6580 f   server1.obj
 0001:001f55e0       ?getdemofile@server@@YAPBDPBD_N@Z 005f65e0 f   server1.obj
 0001:001f56f0       ?stopdemo@server@@YAXXZ    005f66f0 f   server1.obj
 0001:001f5720       ?timeupdate@server@@YAXH@Z 005f6720 f   server1.obj
 0001:001f5760       ?modeprettyname@server@@YAPBDHPBD@Z 005f6760 f   server1.obj
 0001:001f5780       ?modename@server@@YAPBDHPBD@Z 005f6780 f   server1.obj
 0001:001f57a0       ?mastermodename@server@@YAPBDHPBD@Z 005f67a0 f   server1.obj
 0001:001f57c0       ?delayspawn@server@@YA_NH@Z 005f67c0 f   server1.obj
 0001:001f57d0       ?parseoptions@game@@YAXAAU?$vector@PBD@@@Z 005f67d0 f   server1.obj
 0001:001f5810       ?protocolversion@server@@YAHXZ 005f6810 f   server1.obj
 0001:001f5820       ?newclientinfo@server@@YAPAXXZ 005f6820 f   server1.obj
 0001:001f5880       ?deleteclientinfo@server@@YAXPAX@Z 005f6880 f   server1.obj
 0001:001f5890       ?recordpacket@server@@YAXHPAXH@Z 005f6890 f   server1.obj
 0001:001f58a0       ?allowbroadcast@server@@YA_NH@Z 005f68a0 f   server1.obj
 0001:001f58f0       ?clientdisconnect@server@@YAXH@Z 005f68f0 f   server1.obj
 0001:001f5b40       ?sendservmsg@server@@YAXPBD@Z 005f6b40 f   server1.obj
 0001:001f5b60       ?parsepacket@server@@YAXHHAAUpacketbuf@@@Z 005f6b60 f   server1.obj
 0001:001f9910       ?masterdisconnected@server@@YAXXZ 005fa910 f   server1.obj
 0001:001f99a0       ?defaultmaster@server@@YAPBDXZ 005fa9a0 f   server1.obj
 0001:001f99b0       ?masterport@server@@YAHXZ  005fa9b0 f   server1.obj
 0001:001f99c0       ?processmasterinput@server@@YAXPBDH0@Z 005fa9c0 f   server1.obj
 0001:001f9cb0       ?serverinforeply@server@@YAXAAU?$databuf@E@@0@Z 005facb0 f   server1.obj
 0001:001f9ea0       ?masterconnected@server@@YAXXZ 005faea0 f   server1.obj
 0001:001f9eb0       ?serverupdate@server@@YAXXZ 005faeb0 f   server1.obj
 0001:001fa450       ?sendpackets@server@@YA_N_N@Z 005fb450 f   server1.obj
 0001:001fa4c0       ?scaletime@server@@YAHH@Z  005fb4c0 f   server1.obj
 0001:001fa4d0       ?ispaused@server@@YA_NXZ   005fb4d0 f   server1.obj
 0001:001fa4e0       ?clientconnect@server@@YAHHI@Z 005fb4e0 f   server1.obj
 0001:001fa5c0       ?localdisconnect@server@@YAXH@Z 005fb5c0 f   server1.obj
 0001:001fa5f0       ?localconnect@server@@YAXH@Z 005fb5f0 f   server1.obj
 0001:001fa6d0       ?reserveclients@server@@YAHXZ 005fb6d0 f   server1.obj
 0001:001fa6e0       ?laninfoport@server@@YAHXZ 005fb6e0 f   server1.obj
 0001:001fa6f0       ?serverinit@server@@YAXXZ  005fb6f0 f   server1.obj
 0001:001fa720       ?serverport@server@@YAHXZ  005fb720 f   server1.obj
 0001:001fa730       ?numchannels@server@@YAHXZ 005fb730 f   server1.obj
 0001:001fa740       ?gameident@game@@YAPBDXZ   005fb740 f   server1.obj
 0001:001fa750       ___vdecl_sin2              005fb750 f   LIBCMT:svml_dsin2_dispatch.obj
 0001:001fa770       ___libm_sse2_sincos_       005fb770 f   LIBCMT:svml_dsin2_dispatch.obj
 0001:001fa7c0       ___vdecl_sinf4             005fb7c0 f   LIBCMT:svml_ssinf4_dispatch.obj
 0001:001fa7e0       ___libm_sse2_sincosf_      005fb7e0 f   LIBCMT:svml_ssinf4_dispatch.obj
 0001:001fa830       ___libm_sse2_sincosf4_     005fb830 f   LIBCMT:svml_ssinf4_dispatch.obj
 0001:001fa840       ___vdecl_exp2              005fb840 f   LIBCMT:svml_dexp2_dispatch.obj
 0001:001fa860       __allshr                   005fb860 f   LIBCMT:llshr.obj
 0001:001fa890       __aulldiv                  005fb890 f   LIBCMT:ulldiv.obj
 0001:001fa900       __ftoui3                   005fb900 f   LIBCMT:ftol3.obj
 0001:001fa950       __dtoui3                   005fb950 f   LIBCMT:ftol3.obj
 0001:001fa9d0       __ultod3                   005fb9d0 f   LIBCMT:ftol3.obj
 0001:001faa30       __ltod3                    005fba30 f   LIBCMT:ftol3.obj
 0001:001faa80       ___sse2_sin2@@16           005fba80 f   LIBCMT:svml_dsin2_sse2.obj
 0001:001fb070       ___sse4_sin2@@16           005fc070 f   LIBCMT:svml_dsin2_sse4.obj
 0001:001fb650       ___sse2_sinf4@@16          005fc650 f   LIBCMT:svml_ssinf4_sse2.obj
 0001:001fb810       ___sse4_sinf4@@16          005fc810 f   LIBCMT:svml_ssinf4_sse4.obj
 0001:001fc020       ___sse2_exp2@@16           005fd020 f   LIBCMT:svml_dexp2_sse2.obj
 0001:001fc1d0       ___sse4_exp2@@16           005fd1d0 f   LIBCMT:svml_dexp2_sse4.obj
 0001:001fc470       ___common_dsin_cout_rare   005fd470 f   LIBCMT:svml_d_sin_cout.obj
 0001:001fc4f0       ___common_sin_reduction_LA 005fd4f0 f   LIBCMT:svml_dtrig.obj
 0001:001fc880       ___common_ssin_cout_rare   005fd880 f   LIBCMT:svml_s_sin_cout.obj
 0001:001fc910       __except_handler3          005fd910 f   libvcruntime:exsup3.obj
 0001:001fca30       _memchr                    005fda30 f   libvcruntime:memchr.obj
 0001:001fcadd       _CallDestructExceptionObject 005fdadd f   libvcruntime:calldtor.obj
 0001:001fcbe0       __ValidateEH3RN            005fdbe0 f   libvcruntime:eh3valid.obj
 0001:001fcf90       __CIfmod                   005fdf90 f   libucrt:87fmod_impl.obj
